MP2COD 3.40, COFF to COD File Converter
Copyright (c) 2003 Microchip Technology Inc.
Listing File Generated: Fri Apr 02 12:39:36 2004


Address  Value    Disassembly              Source                                                                           File
-------  -------  -----------------------  -------------------------------------------------------------------------------  -----
                                           /******************************************************************************* C:\FrcCode\main.c
                                           * FILE NAME: main.c <FRC VERSION>                                                C:\FrcCode\main.c
                                           *                                                                                C:\FrcCode\main.c
                                           * DESCRIPTION:                                                                   C:\FrcCode\main.c
                                           *  This file contains the main program loop.                                     C:\FrcCode\main.c
                                           *                                                                                C:\FrcCode\main.c
                                           * USAGE:                                                                         C:\FrcCode\main.c
                                           *  You should not need to modify this file.                                      C:\FrcCode\main.c
                                           *  Note the different loop speed for the two routines:                           C:\FrcCode\main.c
                                           *     Process_Data_From_Master_uP                                                C:\FrcCode\main.c
                                           *     Process_Data_From_Local_IO                                                 C:\FrcCode\main.c
                                           *******************************************************************************/ C:\FrcCode\main.c
                                                                                                                            C:\FrcCode\main.c
                                           #include "ifi_aliases.h"                                                         C:\FrcCode\main.c
                                           #include "ifi_default.h"                                                         C:\FrcCode\main.c
                                           #include "ifi_utilities.h"                                                       C:\FrcCode\main.c
                                           #include "user_routines.h"                                                       C:\FrcCode\main.c
                                                                                                                            C:\FrcCode\main.c
                                           tx_data_record txdata;          /* DO NOT CHANGE! */                             C:\FrcCode\main.c
                                           rx_data_record rxdata;          /* DO NOT CHANGE! */                             C:\FrcCode\main.c
                                           packed_struct statusflag;       /* DO NOT CHANGE! */                             C:\FrcCode\main.c
                                                                                                                            C:\FrcCode\main.c
                                           /******************************************************************************* C:\FrcCode\main.c
                                           * FUNCTION NAME: main                                                            C:\FrcCode\main.c
                                           * PURPOSE:       Main program function.                                          C:\FrcCode\main.c
                                           * CALLED FROM:   ifi_startup.c                                                   C:\FrcCode\main.c
                                           * ARGUMENTS:     none                                                            C:\FrcCode\main.c
                                           * RETURNS:       void                                                            C:\FrcCode\main.c
                                           * DO NOT DELETE THIS FUNCTION                                                    C:\FrcCode\main.c
                                           *******************************************************************************/ C:\FrcCode\main.c
                                           void main (void)                                                                 C:\FrcCode\main.c
                                           {                                                                                C:\FrcCode\main.c
                                           #ifdef UNCHANGEABLE_DEFINITION_AREA                                              C:\FrcCode\main.c
0034ec   ecea     CALL      0x29d4,0x0       IFI_Initialization ();        /* DO NOT CHANGE! */                             C:\FrcCode\main.c
0034ee   f014                                                                                                               
                                           #endif                                                                           C:\FrcCode\main.c
                                                                                                                            C:\FrcCode\main.c
0034f0   ec2b     CALL      0x2256,0x0       User_Initialization();        /* You edit this in user_routines.c */           C:\FrcCode\main.c
0034f2   f011                                                                                                               
                                                                                                                            C:\FrcCode\main.c
0034f4   0107     MOVLB     0x7              statusflag.NEW_SPI_DATA = 0;  /* DO NOT CHANGE! */                             C:\FrcCode\main.c
0034f6   9198     BCF       0x98,0x0,0x1                                                                                    
                                                                                                                            C:\FrcCode\main.c
003510   d7f3     BRA       0x34f8           while (1)   /* This loop will repeat indefinitely. */                          C:\FrcCode\main.c
                                             {                                                                              C:\FrcCode\main.c
                                           #ifdef _SIMULATOR                                                                C:\FrcCode\main.c
                                               statusflag.NEW_SPI_DATA = 1;                                                 C:\FrcCode\main.c
                                           #endif                                                                           C:\FrcCode\main.c
                                                                                                                            C:\FrcCode\main.c
0034f8   0107     MOVLB     0x7                if (statusflag.NEW_SPI_DATA)      /* 26.2ms loop area */                     C:\FrcCode\main.c
0034fa   a198     BTFSS     0x98,0x0,0x1                                                                                    
0034fc   d007     BRA       0x350c                                                                                          
                                               {                                 /* I'm slow!  I only execute every 26.2ms because */ C:\FrcCode\main.c
                                                                                 /* that's how fast the Master uP gives me data. */ C:\FrcCode\main.c
0034fe   ec9c     CALL      0x2338,0x0           Process_Data_From_Master_uP();  /* You edit this in user_routines.c */     C:\FrcCode\main.c
003500   f011                                                                                                               
                                                                                                                            C:\FrcCode\main.c
003502   0107     MOVLB     0x7                  if (autonomous_mode)            /* DO NOT CHANGE! */                       C:\FrcCode\main.c
003504   ad79     BTFSS     0x79,0x6,0x1                                                                                    
003506   d002     BRA       0x350c                                                                                          
                                                 {                                                                          C:\FrcCode\main.c
003508   ecf5     CALL      0x31ea,0x0             User_Autonomous_Code();        /* You edit this in user_routines_fast.c */ C:\FrcCode\main.c
00350a   f018                                                                                                               
                                                 }                                                                          C:\FrcCode\main.c
                                               }                                                                            C:\FrcCode\main.c
00350c   ec21     CALL      0x3242,0x0         Process_Data_From_Local_IO();     /* You edit this in user_routines_fast.c */ C:\FrcCode\main.c
00350e   f019                                                                                                               
                                                                                 /* I'm fast!  I execute during every loop.*/ C:\FrcCode\main.c
                                             } /* while (1) */                                                              C:\FrcCode\main.c
003512   0012     RETURN    0x0            }  /* END of Main */                                                             C:\FrcCode\main.c
                                                                                                                            C:\FrcCode\main.c
                                                                                                                            C:\FrcCode\main.c
                                           /******************************************************************************/ C:\FrcCode\main.c
                                           /******************************************************************************/ C:\FrcCode\main.c
                                           /******************************************************************************/ C:\FrcCode\main.c
                                           /******************************************************************************* C:\FrcCode\user_routines_fast.c
                                           * FILE NAME: user_routines_fast.c <FRC VERSION>                                  C:\FrcCode\user_routines_fast.c
                                           *                                                                                C:\FrcCode\user_routines_fast.c
                                           * DESCRIPTION:                                                                   C:\FrcCode\user_routines_fast.c
                                           *  This file is where the user can add their custom code within the framework    C:\FrcCode\user_routines_fast.c
                                           *  of the routines below.                                                        C:\FrcCode\user_routines_fast.c
                                           *                                                                                C:\FrcCode\user_routines_fast.c
                                           * USAGE:                                                                         C:\FrcCode\user_routines_fast.c
                                           *  You can either modify this file to fit your needs, or remove it from your     C:\FrcCode\user_routines_fast.c
                                           *  project and replace it with a modified copy.                                  C:\FrcCode\user_routines_fast.c
                                           *                                                                                C:\FrcCode\user_routines_fast.c
                                           * OPTIONS:  Interrupts are disabled and not used by default.                     C:\FrcCode\user_routines_fast.c
                                           *                                                                                C:\FrcCode\user_routines_fast.c
                                           *******************************************************************************/ C:\FrcCode\user_routines_fast.c
                                                                                                                            C:\FrcCode\user_routines_fast.c
                                           #include "ifi_aliases.h"                                                         C:\FrcCode\user_routines_fast.c
                                           #include "ifi_default.h"                                                         C:\FrcCode\user_routines_fast.c
                                           #include "ifi_utilities.h"                                                       C:\FrcCode\user_routines_fast.c
                                           #include "user_routines.h"                                                       C:\FrcCode\user_routines_fast.c
                                                                                                                            C:\FrcCode\user_routines_fast.c
                                                                                                                            C:\FrcCode\user_routines_fast.c
                                           /*** DEFINE USER VARIABLES AND INITIALIZE THEM HERE ***/                         C:\FrcCode\user_routines_fast.c
                                           unsigned int counter=0;                                                          C:\FrcCode\user_routines_fast.c
                                                                                                                            C:\FrcCode\user_routines_fast.c
                                           /******************************************************************************* C:\FrcCode\user_routines_fast.c
                                           * FUNCTION NAME: InterruptVectorLow                                              C:\FrcCode\user_routines_fast.c
                                           * PURPOSE:       Low priority interrupt vector                                   C:\FrcCode\user_routines_fast.c
                                           * CALLED FROM:   nowhere by default                                              C:\FrcCode\user_routines_fast.c
                                           * ARGUMENTS:     none                                                            C:\FrcCode\user_routines_fast.c
                                           * RETURNS:       void                                                            C:\FrcCode\user_routines_fast.c
                                           * DO NOT MODIFY OR DELETE THIS FUNCTION                                          C:\FrcCode\user_routines_fast.c
                                           *******************************************************************************/ C:\FrcCode\user_routines_fast.c
                                           #pragma code InterruptVectorLow = LOW_INT_VECTOR                                 C:\FrcCode\user_routines_fast.c
                                           void InterruptVectorLow (void)                                                   C:\FrcCode\user_routines_fast.c
                                           {                                                                                C:\FrcCode\user_routines_fast.c
                                             _asm                                                                           C:\FrcCode\user_routines_fast.c
000818   efc4     GOTO      0x3188             goto InterruptHandlerLow  /*jump to interrupt routine*/                      C:\FrcCode\user_routines_fast.c
00081a   f018                                                                                                               
                                             _endasm                                                                        C:\FrcCode\user_routines_fast.c
00081c   0012     RETURN    0x0            }                                                                                C:\FrcCode\user_routines_fast.c
                                                                                                                            C:\FrcCode\user_routines_fast.c
                                                                                                                            C:\FrcCode\user_routines_fast.c
                                           /******************************************************************************* C:\FrcCode\user_routines_fast.c
                                           * FUNCTION NAME: InterruptHandlerLow                                             C:\FrcCode\user_routines_fast.c
                                           * PURPOSE:       Low priority interrupt handler                                  C:\FrcCode\user_routines_fast.c
                                           * If you want to use these external low priority interrupts or any of the        C:\FrcCode\user_routines_fast.c
                                           * peripheral interrupts then you must enable them in your initialization         C:\FrcCode\user_routines_fast.c
                                           * routine.  Innovation First, Inc. will not provide support for using these      C:\FrcCode\user_routines_fast.c
                                           * interrupts, so be careful.  There is great potential for glitchy code if good  C:\FrcCode\user_routines_fast.c
                                           * interrupt programming practices are not followed.  Especially read p. 28 of    C:\FrcCode\user_routines_fast.c
                                           * the "MPLAB(R) C18 C Compiler User's Guide" for information on context saving.  C:\FrcCode\user_routines_fast.c
                                           * CALLED FROM:   this file, InterruptVectorLow routine                           C:\FrcCode\user_routines_fast.c
                                           * ARGUMENTS:     none                                                            C:\FrcCode\user_routines_fast.c
                                           * RETURNS:       void                                                            C:\FrcCode\user_routines_fast.c
                                           *******************************************************************************/ C:\FrcCode\user_routines_fast.c
                                           #pragma code                                                                     C:\FrcCode\user_routines_fast.c
                                           #pragma interruptlow InterruptHandlerLow save=PROD /* You may want to save additional symbols. */ C:\FrcCode\user_routines_fast.c
                                                                                                                            C:\FrcCode\user_routines_fast.c
003188   cfd8     MOVFF     0xfd8,0xfe4    void InterruptHandlerLow ()                                                      C:\FrcCode\user_routines_fast.c
00318a   ffe4                                                                                                               
00318c   cfe0     MOVFF     0xfe0,0xfe4                                                                                     
00318e   ffe4                                                                                                               
003190   6ee4     MOVWF     0xe4,0x0                                                                                        
003192   cfda     MOVFF     0xfda,0xfe4                                                                                     
003194   ffe4                                                                                                               
003196   cfe2     MOVFF     0xfe2,0xfda                                                                                     
003198   ffda                                                                                                               
00319a   cff3     MOVFF     0xff3,0xfe4                                                                                     
00319c   ffe4                                                                                                               
00319e   cff4     MOVFF     0xff4,0xfe4                                                                                     
0031a0   ffe4                                                                                                               
0031a2   52e6     MOVF      0xe6,0x1,0x0                                                                                    
0031a4   cfd9     MOVFF     0xfd9,0xfe6                                                                                     
0031a6   ffe6                                                                                                               
0031a8   cfe1     MOVFF     0xfe1,0xfd9                                                                                     
0031aa   ffd9                                                                                                               
0031ac   52e6     MOVF      0xe6,0x1,0x0                                                                                    
                                           {                                                                                C:\FrcCode\user_routines_fast.c
                                             unsigned char int_byte;                                                        C:\FrcCode\user_routines_fast.c
0031ae   a2f0     BTFSS     0xf0,0x1,0x0     if (INTCON3bits.INT2IF)         /* The INT2 pin is RB2/DIG I/O 1. */           C:\FrcCode\user_routines_fast.c
0031b0   d002     BRA       0x31b6                                                                                          
                                             {                                                                              C:\FrcCode\user_routines_fast.c
0031b2   92f0     BCF       0xf0,0x1,0x0       INTCON3bits.INT2IF = 0;                                                      C:\FrcCode\user_routines_fast.c
                                             }                                                                              C:\FrcCode\user_routines_fast.c
0031b4   d009     BRA       0x31c8           else if (INTCON3bits.INT3IF)    /* The INT3 pin is RB3/DIG I/O 2. */           C:\FrcCode\user_routines_fast.c
0031b6   a4f0     BTFSS     0xf0,0x2,0x0                                                                                    
0031b8   d002     BRA       0x31be                                                                                          
                                             {                                                                              C:\FrcCode\user_routines_fast.c
0031ba   94f0     BCF       0xf0,0x2,0x0       INTCON3bits.INT3IF = 0;                                                      C:\FrcCode\user_routines_fast.c
                                             }                                                                              C:\FrcCode\user_routines_fast.c
0031bc   d005     BRA       0x31c8           else if (INTCONbits.RBIF)       /* DIG I/O 3-6 (RB4, RB5, RB6, or RB7) changed. */ C:\FrcCode\user_routines_fast.c
0031be   a0f2     BTFSS     0xf2,0x0,0x0                                                                                    
0031c0   d003     BRA       0x31c8                                                                                          
                                             {                                                                              C:\FrcCode\user_routines_fast.c
0031c2   5081     MOVF      0x81,0x0,0x0       int_byte = PORTB;           /* You must read or write to PORTB   */          C:\FrcCode\user_routines_fast.c
0031c4   6edf     MOVWF     0xdf,0x0                                                                                        
0031c6   90f2     BCF       0xf2,0x0,0x0       INTCONbits.RBIF = 0;        /* and clear the interrupt flag      */          C:\FrcCode\user_routines_fast.c
                                             }                             /* to clear the interrupt condition. */          C:\FrcCode\user_routines_fast.c
0031c8   52e5     MOVF      0xe5,0x1,0x0   }                                                                                C:\FrcCode\user_routines_fast.c
0031ca   52e5     MOVF      0xe5,0x1,0x0                                                                                    
0031cc   cfe7     MOVFF     0xfe7,0xfd9                                                                                     
0031ce   ffd9                                                                                                               
0031d0   52e5     MOVF      0xe5,0x1,0x0                                                                                    
0031d2   cfe5     MOVFF     0xfe5,0xff4                                                                                     
0031d4   fff4                                                                                                               
0031d6   cfe5     MOVFF     0xfe5,0xff3                                                                                     
0031d8   fff3                                                                                                               
0031da   cfe5     MOVFF     0xfe5,0xfda                                                                                     
0031dc   ffda                                                                                                               
0031de   50e5     MOVF      0xe5,0x0,0x0                                                                                    
0031e0   cfe5     MOVFF     0xfe5,0xfe0                                                                                     
0031e2   ffe0                                                                                                               
0031e4   cfe5     MOVFF     0xfe5,0xfd8                                                                                     
0031e6   ffd8                                                                                                               
0031e8   0010     RETFIE    0x0                                                                                             
                                                                                                                            C:\FrcCode\user_routines_fast.c
                                                                                                                            C:\FrcCode\user_routines_fast.c
                                           /******************************************************************************* C:\FrcCode\user_routines_fast.c
                                           * FUNCTION NAME: User_Autonomous_Code                                            C:\FrcCode\user_routines_fast.c
                                           * PURPOSE:       Execute user's code during autonomous robot operation.          C:\FrcCode\user_routines_fast.c
                                           * You should modify this routine by adding code which you wish to run in         C:\FrcCode\user_routines_fast.c
                                           * autonomous mode.  It will be executed every program loop, and not              C:\FrcCode\user_routines_fast.c
                                           * wait for or use any data from the Operator Interface.                          C:\FrcCode\user_routines_fast.c
                                           * CALLED FROM:   main.c file, main() routine when in Autonomous mode             C:\FrcCode\user_routines_fast.c
                                           * ARGUMENTS:     none                                                            C:\FrcCode\user_routines_fast.c
                                           * RETURNS:       void                                                            C:\FrcCode\user_routines_fast.c
                                           *******************************************************************************/ C:\FrcCode\user_routines_fast.c
                                           void User_Autonomous_Code(void)                                                  C:\FrcCode\user_routines_fast.c
                                           {                                                                                C:\FrcCode\user_routines_fast.c
0031ea   0107     MOVLB     0x7              while (autonomous_mode)   /* DO NOT CHANGE! */                                 C:\FrcCode\user_routines_fast.c
0031ec   ad79     BTFSS     0x79,0x6,0x1                                                                                    
0031ee   d028     BRA       0x3240                                                                                          
00323e   d7d5     BRA       0x31ea                                                                                          
                                             {                                                                              C:\FrcCode\user_routines_fast.c
0031f0   0107     MOVLB     0x7                if (statusflag.NEW_SPI_DATA)      /* 26.2ms loop area */                     C:\FrcCode\user_routines_fast.c
0031f2   a198     BTFSS     0x98,0x0,0x1                                                                                    
0031f4   d024     BRA       0x323e                                                                                          
                                               {                                                                            C:\FrcCode\user_routines_fast.c
0031f6   0e78     MOVLW     0x78                   Getdata(&rxdata);   /* DO NOT DELETE, or you will be stuck here forever! */ C:\FrcCode\user_routines_fast.c
0031f8   6ee6     MOVWF     0xe6,0x0                                                                                        
0031fa   0e07     MOVLW     0x7                                                                                             
0031fc   6ee6     MOVWF     0xe6,0x0                                                                                        
0031fe   ec89     CALL      0x2b12,0x0                                                                                      
003200   f015                                                                                                               
003202   52e5     MOVF      0xe5,0x1,0x0                                                                                    
003204   52e5     MOVF      0xe5,0x1,0x0                                                                                    
                                                                                                                            C:\FrcCode\user_routines_fast.c
003206   0107     MOVLB     0x7                    if(counter<400)                                                          C:\FrcCode\user_routines_fast.c
003208   0e90     MOVLW     0x90                                                                                            
00320a   5dce     SUBWF     0xce,0x0,0x1                                                                                    
00320c   0e01     MOVLW     0x1                                                                                             
00320e   59cf     SUBWFB    0xcf,0x0,0x1                                                                                    
003210   e20a     BC        0x3226                                                                                          
                                           		{                                                                              C:\FrcCode\user_routines_fast.c
003212   0107     MOVLB     0x7            			pwm02=190;                                                                    C:\FrcCode\user_routines_fast.c
003214   0ebe     MOVLW     0xbe                                                                                            
003216   6f5d     MOVWF     0x5d,0x1                                                                                        
003218   0eb4     MOVLW     0xb4           			pwm04=180;                                                                    C:\FrcCode\user_routines_fast.c
00321a   6f5f     MOVWF     0x5f,0x1                                                                                        
00321c   0107     MOVLB     0x7            			counter++;                                                                    C:\FrcCode\user_routines_fast.c
00321e   2bce     INCF      0xce,0x1,0x1                                                                                    
003220   0e00     MOVLW     0x0                                                                                             
003222   23cf     ADDWFC    0xcf,0x1,0x1                                                                                    
                                           		}                                                                              C:\FrcCode\user_routines_fast.c
003224   d004     BRA       0x322e         		else                                                                           C:\FrcCode\user_routines_fast.c
                                           		{                                                                              C:\FrcCode\user_routines_fast.c
003226   0107     MOVLB     0x7            			pwm02=127;                                                                    C:\FrcCode\user_routines_fast.c
003228   0e7f     MOVLW     0x7f                                                                                            
00322a   6f5d     MOVWF     0x5d,0x1                                                                                        
00322c   6f5f     MOVWF     0x5f,0x1       			pwm04=127;                                                                    C:\FrcCode\user_routines_fast.c
                                           		}                                                                              C:\FrcCode\user_routines_fast.c
                                                                                                                            C:\FrcCode\user_routines_fast.c
00322e   0e58     MOVLW     0x58                   Putdata(&txdata);   /* DO NOT DELETE, or you will get no PWM outputs! */ C:\FrcCode\user_routines_fast.c
003230   6ee6     MOVWF     0xe6,0x0                                                                                        
003232   0e07     MOVLW     0x7                                                                                             
003234   6ee6     MOVWF     0xe6,0x0                                                                                        
003236   ecc3     CALL      0x2b86,0x0                                                                                      
003238   f015                                                                                                               
00323a   52e5     MOVF      0xe5,0x1,0x0                                                                                    
00323c   52e5     MOVF      0xe5,0x1,0x0                                                                                    
                                               }                                                                            C:\FrcCode\user_routines_fast.c
                                             }                                                                              C:\FrcCode\user_routines_fast.c
003240   0012     RETURN    0x0            }                                                                                C:\FrcCode\user_routines_fast.c
                                                                                                                            C:\FrcCode\user_routines_fast.c
                                                                                                                            C:\FrcCode\user_routines_fast.c
                                           /******************************************************************************* C:\FrcCode\user_routines_fast.c
                                           * FUNCTION NAME: Process_Data_From_Local_IO                                      C:\FrcCode\user_routines_fast.c
                                           * PURPOSE:       Execute user's realtime code.                                   C:\FrcCode\user_routines_fast.c
                                           * You should modify this routine by adding code which you wish to run fast.      C:\FrcCode\user_routines_fast.c
                                           * It will be executed every program loop, and not wait for fresh data            C:\FrcCode\user_routines_fast.c
                                           * from the Operator Interface.                                                   C:\FrcCode\user_routines_fast.c
                                           * CALLED FROM:   main.c                                                          C:\FrcCode\user_routines_fast.c
                                           * ARGUMENTS:     none                                                            C:\FrcCode\user_routines_fast.c
                                           * RETURNS:       void                                                            C:\FrcCode\user_routines_fast.c
                                           *******************************************************************************/ C:\FrcCode\user_routines_fast.c
                                           void Process_Data_From_Local_IO(void)                                            C:\FrcCode\user_routines_fast.c
                                           {                                                                                C:\FrcCode\user_routines_fast.c
                                             /* Add code here that you want to be executed every program loop. */           C:\FrcCode\user_routines_fast.c
                                                                                                                            C:\FrcCode\user_routines_fast.c
003242   0012     RETURN    0x0            }                                                                                C:\FrcCode\user_routines_fast.c
                                                                                                                            C:\FrcCode\user_routines_fast.c
                                                                                                                            C:\FrcCode\user_routines_fast.c
                                           /******************************************************************************/ C:\FrcCode\user_routines_fast.c
                                           /******************************************************************************/ C:\FrcCode\user_routines_fast.c
                                           /******************************************************************************/ C:\FrcCode\user_routines_fast.c
                                           /******************************************************************************* C:\FrcCode\user_routines.c
                                           * FILE NAME: user_routines.c <FRC VERSION>                                       C:\FrcCode\user_routines.c
                                           *                                                                                C:\FrcCode\user_routines.c
                                           * DESCRIPTION:                                                                   C:\FrcCode\user_routines.c
                                           *  This file contains the default mappings of inputs                             C:\FrcCode\user_routines.c
                                           *  (like switches, joysticks, and buttons) to outputs on the RC.                 C:\FrcCode\user_routines.c
                                           *                                                                                C:\FrcCode\user_routines.c
                                           * USAGE:                                                                         C:\FrcCode\user_routines.c
                                           *  You can either modify this file to fit your needs, or remove it from your     C:\FrcCode\user_routines.c
                                           *  project and replace it with a modified copy.                                  C:\FrcCode\user_routines.c
                                           *                                                                                C:\FrcCode\user_routines.c
                                           *******************************************************************************/ C:\FrcCode\user_routines.c
                                                                                                                            C:\FrcCode\user_routines.c
                                           #include "ifi_aliases.h"                                                         C:\FrcCode\user_routines.c
                                           #include "ifi_default.h"                                                         C:\FrcCode\user_routines.c
                                           #include "ifi_utilities.h"                                                       C:\FrcCode\user_routines.c
                                           #include "user_routines.h"                                                       C:\FrcCode\user_routines.c
                                           #include "printf_lib.h"                                                          C:\FrcCode\user_routines.c
                                                                                                                            C:\FrcCode\user_routines.c
                                                                                                                            C:\FrcCode\user_routines.c
                                           /*** DEFINE USER VARIABLES AND INITIALIZE THEM HERE ***/                         C:\FrcCode\user_routines.c
                                           /* EXAMPLES: (see MPLAB C18 User's Guide, p.9 for all types)                     C:\FrcCode\user_routines.c
                                           unsigned char wheel_revolutions = 0; (can vary from 0 to 255)                    C:\FrcCode\user_routines.c
                                           unsigned int  delay_count = 7;       (can vary from 0 to 65,535)                 C:\FrcCode\user_routines.c
                                           int           angle_deviation = 142; (can vary from -32,768 to 32,767)           C:\FrcCode\user_routines.c
                                           unsigned long very_big_counter = 0;  (can vary from 0 to 4,294,967,295)          C:\FrcCode\user_routines.c
                                           */                                                                               C:\FrcCode\user_routines.c
                                                                                                                            C:\FrcCode\user_routines.c
                                                                                                                            C:\FrcCode\user_routines.c
                                           /******************************************************************************* C:\FrcCode\user_routines.c
                                           * FUNCTION NAME: Limit_Switch_Max                                                C:\FrcCode\user_routines.c
                                           * PURPOSE:       Sets a PWM value to neutral (127) if it exceeds 127 and the     C:\FrcCode\user_routines.c
                                           *                limit switch is on.                                             C:\FrcCode\user_routines.c
                                           * CALLED FROM:   this file                                                       C:\FrcCode\user_routines.c
                                           * ARGUMENTS:                                                                     C:\FrcCode\user_routines.c
                                           *     Argument       Type             IO   Description                           C:\FrcCode\user_routines.c
                                           *     --------       -------------    --   -----------                           C:\FrcCode\user_routines.c
                                           *     switch_state   unsigned char    I    limit switch state                    C:\FrcCode\user_routines.c
                                           *     *input_value   pointer           O   points to PWM byte value to be limited C:\FrcCode\user_routines.c
                                           * RETURNS:       void                                                            C:\FrcCode\user_routines.c
                                           *******************************************************************************/ C:\FrcCode\user_routines.c
002154   cfd9     MOVFF     0xfd9,0xfe6    void Limit_Switch_Max(unsigned char switch_state, unsigned char *input_value)    C:\FrcCode\user_routines.c
002156   ffe6                                                                                                               
002158   cfe1     MOVFF     0xfe1,0xfd9                                                                                     
00215a   ffd9                                                                                                               
                                           {                                                                                C:\FrcCode\user_routines.c
00215c   0efe     MOVLW     0xfe             if (switch_state == CLOSED)                                                    C:\FrcCode\user_routines.c
00215e   50db     MOVF      0xdb,0x0,0x0                                                                                    
002160   e111     BNZ       0x2184                                                                                          
                                             {                                                                              C:\FrcCode\user_routines.c
002162   0efc     MOVLW     0xfc               if(*input_value > 127)                                                       C:\FrcCode\user_routines.c
002164   cfdb     MOVFF     0xfdb,0xfe9                                                                                     
002166   ffe9                                                                                                               
002168   0efd     MOVLW     0xfd                                                                                            
00216a   cfdb     MOVFF     0xfdb,0xfea                                                                                     
00216c   ffea                                                                                                               
00216e   50ef     MOVF      0xef,0x0,0x0                                                                                    
002170   087f     SUBLW     0x7f                                                                                            
002172   e208     BC        0x2184                                                                                          
002174   0efc     MOVLW     0xfc                 *input_value = 127;                                                        C:\FrcCode\user_routines.c
002176   cfdb     MOVFF     0xfdb,0xfe9                                                                                     
002178   ffe9                                                                                                               
00217a   0efd     MOVLW     0xfd                                                                                            
00217c   cfdb     MOVFF     0xfdb,0xfea                                                                                     
00217e   ffea                                                                                                               
002180   0e7f     MOVLW     0x7f                                                                                            
002182   6eef     MOVWF     0xef,0x0                                                                                        
                                             }                                                                              C:\FrcCode\user_routines.c
002184   52e5     MOVF      0xe5,0x1,0x0   }                                                                                C:\FrcCode\user_routines.c
002186   cfe7     MOVFF     0xfe7,0xfd9                                                                                     
002188   ffd9                                                                                                               
00218a   0012     RETURN    0x0                                                                                             
                                                                                                                            C:\FrcCode\user_routines.c
                                                                                                                            C:\FrcCode\user_routines.c
                                           /******************************************************************************* C:\FrcCode\user_routines.c
                                           * FUNCTION NAME: Limit_Switch_Min                                                C:\FrcCode\user_routines.c
                                           * PURPOSE:       Sets a PWM value to neutral (127) if it's less than 127 and the C:\FrcCode\user_routines.c
                                           *                limit switch is on.                                             C:\FrcCode\user_routines.c
                                           * CALLED FROM:   this file                                                       C:\FrcCode\user_routines.c
                                           * ARGUMENTS:                                                                     C:\FrcCode\user_routines.c
                                           *     Argument       Type             IO   Description                           C:\FrcCode\user_routines.c
                                           *     --------       -------------    --   -----------                           C:\FrcCode\user_routines.c
                                           *     switch_state   unsigned char    I    limit switch state                    C:\FrcCode\user_routines.c
                                           *     *input_value   pointer           O   points to PWM byte value to be limited C:\FrcCode\user_routines.c
                                           * RETURNS:       void                                                            C:\FrcCode\user_routines.c
                                           *******************************************************************************/ C:\FrcCode\user_routines.c
00218c   cfd9     MOVFF     0xfd9,0xfe6    void Limit_Switch_Min(unsigned char switch_state, unsigned char *input_value)    C:\FrcCode\user_routines.c
00218e   ffe6                                                                                                               
002190   cfe1     MOVFF     0xfe1,0xfd9                                                                                     
002192   ffd9                                                                                                               
                                           {                                                                                C:\FrcCode\user_routines.c
002194   0efe     MOVLW     0xfe             if (switch_state == CLOSED)                                                    C:\FrcCode\user_routines.c
002196   50db     MOVF      0xdb,0x0,0x0                                                                                    
002198   e113     BNZ       0x21c0                                                                                          
                                             {                                                                              C:\FrcCode\user_routines.c
00219a   0efc     MOVLW     0xfc               if(*input_value < 127)                                                       C:\FrcCode\user_routines.c
00219c   cfdb     MOVFF     0xfdb,0xfe9                                                                                     
00219e   ffe9                                                                                                               
0021a0   0efd     MOVLW     0xfd                                                                                            
0021a2   cfdb     MOVFF     0xfdb,0xfea                                                                                     
0021a4   ffea                                                                                                               
0021a6   cfef     MOVFF     0xfef,0x2b                                                                                      
0021a8   f02b                                                                                                               
0021aa   0e7f     MOVLW     0x7f                                                                                            
0021ac   5c2b     SUBWF     0x2b,0x0,0x0                                                                                    
0021ae   e208     BC        0x21c0                                                                                          
0021b0   0efc     MOVLW     0xfc                 *input_value = 127;                                                        C:\FrcCode\user_routines.c
0021b2   cfdb     MOVFF     0xfdb,0xfe9                                                                                     
0021b4   ffe9                                                                                                               
0021b6   0efd     MOVLW     0xfd                                                                                            
0021b8   cfdb     MOVFF     0xfdb,0xfea                                                                                     
0021ba   ffea                                                                                                               
0021bc   0e7f     MOVLW     0x7f                                                                                            
0021be   6eef     MOVWF     0xef,0x0                                                                                        
                                             }                                                                              C:\FrcCode\user_routines.c
0021c0   52e5     MOVF      0xe5,0x1,0x0   }                                                                                C:\FrcCode\user_routines.c
0021c2   cfe7     MOVFF     0xfe7,0xfd9                                                                                     
0021c4   ffd9                                                                                                               
0021c6   0012     RETURN    0x0                                                                                             
                                                                                                                            C:\FrcCode\user_routines.c
                                                                                                                            C:\FrcCode\user_routines.c
                                           /******************************************************************************* C:\FrcCode\user_routines.c
                                           * FUNCTION NAME: Limit_Mix                                                       C:\FrcCode\user_routines.c
                                           * PURPOSE:       Limits the mixed value for one joystick drive.                  C:\FrcCode\user_routines.c
                                           * CALLED FROM:   Default_Routine, this file                                      C:\FrcCode\user_routines.c
                                           * ARGUMENTS:                                                                     C:\FrcCode\user_routines.c
                                           *     Argument             Type    IO   Description                              C:\FrcCode\user_routines.c
                                           *     --------             ----    --   -----------                              C:\FrcCode\user_routines.c
                                           *     intermediate_value    int    I                                             C:\FrcCode\user_routines.c
                                           * RETURNS:       unsigned char                                                   C:\FrcCode\user_routines.c
                                           *******************************************************************************/ C:\FrcCode\user_routines.c
0021c8   cfd9     MOVFF     0xfd9,0xfe6    unsigned char Limit_Mix (int intermediate_value)                                 C:\FrcCode\user_routines.c
0021ca   ffe6                                                                                                               
0021cc   cfe1     MOVFF     0xfe1,0xfd9                                                                                     
0021ce   ffd9                                                                                                               
                                           {                                                                                C:\FrcCode\user_routines.c
                                             static int limited_value;                                                      C:\FrcCode\user_routines.c
                                                                                                                            C:\FrcCode\user_routines.c
0021d0   0efd     MOVLW     0xfd             if (intermediate_value < 2000)                                                 C:\FrcCode\user_routines.c
0021d2   cfdb     MOVFF     0xfdb,0x2b                                                                                      
0021d4   f02b                                                                                                               
0021d6   0efe     MOVLW     0xfe                                                                                            
0021d8   cfdb     MOVFF     0xfdb,0x2c                                                                                      
0021da   f02c                                                                                                               
0021dc   502c     MOVF      0x2c,0x0,0x0                                                                                    
0021de   0a07     XORLW     0x7                                                                                             
0021e0   aee8     BTFSS     0xe8,0x7,0x0                                                                                    
0021e2   d002     BRA       0x21e8                                                                                          
0021e4   90d8     BCF       0xd8,0x0,0x0                                                                                    
0021e6   d004     BRA       0x21f0                                                                                          
0021e8   0ed0     MOVLW     0xd0                                                                                            
0021ea   5c2b     SUBWF     0x2b,0x0,0x0                                                                                    
0021ec   0e07     MOVLW     0x7                                                                                             
0021ee   582c     SUBWFB    0x2c,0x0,0x0                                                                                    
0021f0   e206     BC        0x21fe                                                                                          
                                             {                                                                              C:\FrcCode\user_routines.c
0021f2   0107     MOVLB     0x7                limited_value = 2000;                                                        C:\FrcCode\user_routines.c
0021f4   0ed0     MOVLW     0xd0                                                                                            
0021f6   6fcc     MOVWF     0xcc,0x1                                                                                        
0021f8   0e07     MOVLW     0x7                                                                                             
0021fa   6fcd     MOVWF     0xcd,0x1                                                                                        
                                             }                                                                              C:\FrcCode\user_routines.c
0021fc   d01e     BRA       0x223a           else if (intermediate_value > 2254)                                            C:\FrcCode\user_routines.c
0021fe   0efd     MOVLW     0xfd                                                                                            
002200   cfdb     MOVFF     0xfdb,0x2b                                                                                      
002202   f02b                                                                                                               
002204   0efe     MOVLW     0xfe                                                                                            
002206   cfdb     MOVFF     0xfdb,0x2c                                                                                      
002208   f02c                                                                                                               
00220a   502c     MOVF      0x2c,0x0,0x0                                                                                    
00220c   0a08     XORLW     0x8                                                                                             
00220e   aee8     BTFSS     0xe8,0x7,0x0                                                                                    
002210   d002     BRA       0x2216                                                                                          
002212   342c     RLCF      0x2c,0x0,0x0                                                                                    
002214   d005     BRA       0x2220                                                                                          
002216   0ece     MOVLW     0xce                                                                                            
002218   80d8     BSF       0xd8,0x0,0x0                                                                                    
00221a   542b     SUBFWB    0x2b,0x0,0x0                                                                                    
00221c   0e08     MOVLW     0x8                                                                                             
00221e   542c     SUBFWB    0x2c,0x0,0x0                                                                                    
002220   e206     BC        0x222e                                                                                          
                                             {                                                                              C:\FrcCode\user_routines.c
002222   0107     MOVLB     0x7                limited_value = 2254;                                                        C:\FrcCode\user_routines.c
002224   0ece     MOVLW     0xce                                                                                            
002226   6fcc     MOVWF     0xcc,0x1                                                                                        
002228   0e08     MOVLW     0x8                                                                                             
00222a   6fcd     MOVWF     0xcd,0x1                                                                                        
                                             }                                                                              C:\FrcCode\user_routines.c
00222c   d006     BRA       0x223a           else                                                                           C:\FrcCode\user_routines.c
                                             {                                                                              C:\FrcCode\user_routines.c
00222e   0efd     MOVLW     0xfd               limited_value = intermediate_value;                                          C:\FrcCode\user_routines.c
002230   cfdb     MOVFF     0xfdb,0x7cc                                                                                     
002232   f7cc                                                                                                               
002234   0efe     MOVLW     0xfe                                                                                            
002236   cfdb     MOVFF     0xfdb,0x7cd                                                                                     
002238   f7cd                                                                                                               
                                             }                                                                              C:\FrcCode\user_routines.c
00223a   c7cc     MOVFF     0x7cc,0x2b       return (unsigned char) (limited_value - 2000);                                 C:\FrcCode\user_routines.c
00223c   f02b                                                                                                               
00223e   c7cd     MOVFF     0x7cd,0x2c                                                                                      
002240   f02c                                                                                                               
002242   0ed0     MOVLW     0xd0                                                                                            
002244   5e2b     SUBWF     0x2b,0x1,0x0                                                                                    
002246   0e07     MOVLW     0x7                                                                                             
002248   5a2c     SUBWFB    0x2c,0x1,0x0                                                                                    
00224a   502b     MOVF      0x2b,0x0,0x0                                                                                    
00224c   d000     BRA       0x224e                                                                                          
00224e   52e5     MOVF      0xe5,0x1,0x0   }                                                                                C:\FrcCode\user_routines.c
002250   cfe7     MOVFF     0xfe7,0xfd9                                                                                     
002252   ffd9                                                                                                               
002254   0012     RETURN    0x0                                                                                             
                                                                                                                            C:\FrcCode\user_routines.c
                                                                                                                            C:\FrcCode\user_routines.c
                                           /******************************************************************************* C:\FrcCode\user_routines.c
                                           * FUNCTION NAME: User_Initialization                                             C:\FrcCode\user_routines.c
                                           * PURPOSE:       This routine is called first (and only once) in the Main function.   C:\FrcCode\user_routines.c
                                           *                You may modify and add to this function.                        C:\FrcCode\user_routines.c
                                           * CALLED FROM:   main.c                                                          C:\FrcCode\user_routines.c
                                           * ARGUMENTS:     none                                                            C:\FrcCode\user_routines.c
                                           * RETURNS:       void                                                            C:\FrcCode\user_routines.c
                                           *******************************************************************************/ C:\FrcCode\user_routines.c
002256   cfd9     MOVFF     0xfd9,0xfe6    void User_Initialization (void)                                                  C:\FrcCode\user_routines.c
002258   ffe6                                                                                                               
00225a   cfe1     MOVFF     0xfe1,0xfd9                                                                                     
00225c   ffd9                                                                                                               
00225e   0e02     MOVLW     0x2                                                                                             
002260   26e1     ADDWF     0xe1,0x1,0x0                                                                                    
                                           {                                                                                C:\FrcCode\user_routines.c
002262   0ec0     MOVLW     0xc0             rom const	char *strptr = "IFI User Processor Initialized ...";                 C:\FrcCode\user_routines.c
002264   6ede     MOVWF     0xde,0x0                                                                                        
002266   0e33     MOVLW     0x33                                                                                            
002268   6edd     MOVWF     0xdd,0x0                                                                                        
                                                                                                                            C:\FrcCode\user_routines.c
00226a   0ef0     MOVLW     0xf0             Set_Number_of_Analog_Channels(SIXTEEN_ANALOG);    /* DO NOT CHANGE! */         C:\FrcCode\user_routines.c
00226c   6ee6     MOVWF     0xe6,0x0                                                                                        
00226e   ecd4     CALL      0x2fa8,0x0                                                                                      
002270   f017                                                                                                               
002272   52e5     MOVF      0xe5,0x1,0x0                                                                                    
                                                                                                                            C:\FrcCode\user_routines.c
                                           /* FIRST: Set up the I/O pins you want to use as digital INPUTS. */              C:\FrcCode\user_routines.c
002274   8a93     BSF       0x93,0x5,0x0     digital_io_01 = digital_io_02 = digital_io_03 = digital_io_04 = INPUT;         C:\FrcCode\user_routines.c
002276   8893     BSF       0x93,0x4,0x0                                                                                    
002278   8693     BSF       0x93,0x3,0x0                                                                                    
00227a   8493     BSF       0x93,0x2,0x0                                                                                    
00227c   8299     BSF       0x99,0x1,0x0     digital_io_05 = digital_io_06 = digital_io_07 = digital_io_08 = INPUT;         C:\FrcCode\user_routines.c
00227e   8099     BSF       0x99,0x0,0x0                                                                                    
002280   8e93     BSF       0x93,0x7,0x0                                                                                    
002282   8c93     BSF       0x93,0x6,0x0                                                                                    
002284   849a     BSF       0x9a,0x2,0x0     digital_io_09 = digital_io_10 = digital_io_11 = digital_io_12 = INPUT;         C:\FrcCode\user_routines.c
002286   829a     BSF       0x9a,0x1,0x0                                                                                    
002288   8699     BSF       0x99,0x3,0x0                                                                                    
00228a   8499     BSF       0x99,0x2,0x0                                                                                    
00228c   8a9a     BSF       0x9a,0x5,0x0     digital_io_13 = digital_io_14 = digital_io_15 = digital_io_16 = INPUT;         C:\FrcCode\user_routines.c
00228e   889a     BSF       0x9a,0x4,0x0                                                                                    
002290   8094     BSF       0x94,0x0,0x0                                                                                    
002292   869a     BSF       0x9a,0x3,0x0                                                                                    
002294   8e9a     BSF       0x9a,0x7,0x0     digital_io_18 = INPUT;  /* Used for pneumatic pressure switch. */              C:\FrcCode\user_routines.c
                                               /*                                                                           C:\FrcCode\user_routines.c
                                                Note: digital_io_01 = digital_io_02 = ... digital_io_04 = INPUT;            C:\FrcCode\user_routines.c
                                                      is the same as the following:                                         C:\FrcCode\user_routines.c
                                                                                                                            C:\FrcCode\user_routines.c
                                                      digital_io_01 = INPUT;                                                C:\FrcCode\user_routines.c
                                                      digital_io_02 = INPUT;                                                C:\FrcCode\user_routines.c
                                                      ...                                                                   C:\FrcCode\user_routines.c
                                                      digital_io_04 = INPUT;                                                C:\FrcCode\user_routines.c
                                               */                                                                           C:\FrcCode\user_routines.c
                                                                                                                            C:\FrcCode\user_routines.c
                                           /* SECOND: Set up the I/O pins you want to use as digital OUTPUTS. */            C:\FrcCode\user_routines.c
002296   9c9a     BCF       0x9a,0x6,0x0     digital_io_17 = OUTPUT;    /* Example - Not used in Default Code. */           C:\FrcCode\user_routines.c
                                                                                                                            C:\FrcCode\user_routines.c
                                           /* THIRD: Initialize the values on the digital outputs. */                       C:\FrcCode\user_routines.c
002298   9c91     BCF       0x91,0x6,0x0     rc_dig_out17 = 0;                                                              C:\FrcCode\user_routines.c
                                                                                                                            C:\FrcCode\user_routines.c
                                           /* FOURTH: Set your initial PWM values.  Neutral is 127. */                      C:\FrcCode\user_routines.c
00229a   0107     MOVLB     0x7              pwm01 = pwm02 = pwm03 = pwm04 = pwm05 = pwm06 = pwm07 = pwm08 = 127;           C:\FrcCode\user_routines.c
00229c   0e7f     MOVLW     0x7f                                                                                            
00229e   6f63     MOVWF     0x63,0x1                                                                                        
0022a0   c763     MOVFF     0x763,0x762                                                                                     
0022a2   f762                                                                                                               
0022a4   c763     MOVFF     0x763,0x761                                                                                     
0022a6   f761                                                                                                               
0022a8   c763     MOVFF     0x763,0x760                                                                                     
0022aa   f760                                                                                                               
0022ac   c763     MOVFF     0x763,0x75f                                                                                     
0022ae   f75f                                                                                                               
0022b0   c763     MOVFF     0x763,0x75e                                                                                     
0022b2   f75e                                                                                                               
0022b4   c763     MOVFF     0x763,0x75d                                                                                     
0022b6   f75d                                                                                                               
0022b8   c763     MOVFF     0x763,0x75c                                                                                     
0022ba   f75c                                                                                                               
0022bc   6f6b     MOVWF     0x6b,0x1         pwm09 = pwm10 = pwm11 = pwm12 = pwm13 = pwm14 = pwm15 = pwm16 = 127;           C:\FrcCode\user_routines.c
0022be   c76b     MOVFF     0x76b,0x76a                                                                                     
0022c0   f76a                                                                                                               
0022c2   c76b     MOVFF     0x76b,0x769                                                                                     
0022c4   f769                                                                                                               
0022c6   c76b     MOVFF     0x76b,0x768                                                                                     
0022c8   f768                                                                                                               
0022ca   c76b     MOVFF     0x76b,0x767                                                                                     
0022cc   f767                                                                                                               
0022ce   c76b     MOVFF     0x76b,0x766                                                                                     
0022d0   f766                                                                                                               
0022d2   c76b     MOVFF     0x76b,0x765                                                                                     
0022d4   f765                                                                                                               
0022d6   c76b     MOVFF     0x76b,0x764                                                                                     
0022d8   f764                                                                                                               
                                                                                                                            C:\FrcCode\user_routines.c
                                           /* FIFTH: Set your PWM output types for PWM OUTPUTS 13-16.                       C:\FrcCode\user_routines.c
                                             /*   Choose from these parameters for PWM 13-16 respectively:               */ C:\FrcCode\user_routines.c
                                             /*     IFI_PWM  - Standard IFI PWM output generated with Generate_Pwms(...) */ C:\FrcCode\user_routines.c
                                             /*     USER_CCP - User can use PWM pin as digital I/O or CCP pin.           */ C:\FrcCode\user_routines.c
0022da   0e00     MOVLW     0x0              Setup_PWM_Output_Type(IFI_PWM,IFI_PWM,IFI_PWM,IFI_PWM);                        C:\FrcCode\user_routines.c
0022dc   6ee6     MOVWF     0xe6,0x0                                                                                        
0022de   6ae6     CLRF      0xe6,0x0                                                                                        
0022e0   6ee6     MOVWF     0xe6,0x0                                                                                        
0022e2   6ae6     CLRF      0xe6,0x0                                                                                        
0022e4   6ee6     MOVWF     0xe6,0x0                                                                                        
0022e6   6ae6     CLRF      0xe6,0x0                                                                                        
0022e8   6ee6     MOVWF     0xe6,0x0                                                                                        
0022ea   6ae6     CLRF      0xe6,0x0                                                                                        
0022ec   ec0d     CALL      0x2c1a,0x0                                                                                      
0022ee   f016                                                                                                               
0022f0   6ef5     MOVWF     0xf5,0x0                                                                                        
0022f2   0e08     MOVLW     0x8                                                                                             
0022f4   5ee1     SUBWF     0xe1,0x1,0x0                                                                                    
0022f6   50f5     MOVF      0xf5,0x0,0x0                                                                                    
                                                                                                                            C:\FrcCode\user_routines.c
                                             /*                                                                             C:\FrcCode\user_routines.c
                                                Example: The following would generate a 40KHz PWM with a 50% duty cycle on the CCP2 pin: C:\FrcCode\user_routines.c
                                                                                                                            C:\FrcCode\user_routines.c
                                                    CCP2CON = 0x3C;                                                         C:\FrcCode\user_routines.c
                                                    PR2 = 0xF9;                                                             C:\FrcCode\user_routines.c
                                                    CCPR2L = 0x7F;                                                          C:\FrcCode\user_routines.c
                                                    T2CON = 0;                                                              C:\FrcCode\user_routines.c
                                                    T2CONbits.TMR2ON = 1;                                                   C:\FrcCode\user_routines.c
                                                                                                                            C:\FrcCode\user_routines.c
                                                    Setup_PWM_Output_Type(USER_CCP,IFI_PWM,IFI_PWM,IFI_PWM);                C:\FrcCode\user_routines.c
                                             */                                                                             C:\FrcCode\user_routines.c
                                                                                                                            C:\FrcCode\user_routines.c
                                             /* Add any other initialization code here. */                                  C:\FrcCode\user_routines.c
                                                                                                                            C:\FrcCode\user_routines.c
0022f8   ecc6     CALL      0x2f8c,0x0       Initialize_Serial_Comms();                                                     C:\FrcCode\user_routines.c
0022fa   f017                                                                                                               
                                                                                                                            C:\FrcCode\user_routines.c
0022fc   0e58     MOVLW     0x58             Putdata(&txdata);             /* DO NOT CHANGE! */                             C:\FrcCode\user_routines.c
0022fe   6ee6     MOVWF     0xe6,0x0                                                                                        
002300   0e07     MOVLW     0x7                                                                                             
002302   6ee6     MOVWF     0xe6,0x0                                                                                        
002304   ecc3     CALL      0x2b86,0x0                                                                                      
002306   f015                                                                                                               
002308   52e5     MOVF      0xe5,0x1,0x0                                                                                    
00230a   52e5     MOVF      0xe5,0x1,0x0                                                                                    
                                                                                                                            C:\FrcCode\user_routines.c
00230c   cfde     MOVFF     0xfde,0xfe6      printf("%s\n", strptr);       /* Optional - Print initialization message. */   C:\FrcCode\user_routines.c
00230e   ffe6                                                                                                               
002310   cfdd     MOVFF     0xfdd,0xfe6                                                                                     
002312   ffe6                                                                                                               
002314   0ebc     MOVLW     0xbc                                                                                            
002316   6ee6     MOVWF     0xe6,0x0                                                                                        
002318   0e33     MOVLW     0x33                                                                                            
00231a   6ee6     MOVWF     0xe6,0x0                                                                                        
00231c   ec1d     CALL      0x143a,0x0                                                                                      
00231e   f00a                                                                                                               
002320   52e5     MOVF      0xe5,0x1,0x0                                                                                    
002322   52e5     MOVF      0xe5,0x1,0x0                                                                                    
002324   52e5     MOVF      0xe5,0x1,0x0                                                                                    
002326   52e5     MOVF      0xe5,0x1,0x0                                                                                    
                                                                                                                            C:\FrcCode\user_routines.c
002328   ec28     CALL      0x2a50,0x0       User_Proc_Is_Ready();         /* DO NOT CHANGE! - last line of User_Initialization */ C:\FrcCode\user_routines.c
00232a   f015                                                                                                               
00232c   cfd9     MOVFF     0xfd9,0xfe1    }                                                                                C:\FrcCode\user_routines.c
00232e   ffe1                                                                                                               
002330   52e5     MOVF      0xe5,0x1,0x0                                                                                    
002332   cfe7     MOVFF     0xfe7,0xfd9                                                                                     
002334   ffd9                                                                                                               
002336   0012     RETURN    0x0                                                                                             
                                                                                                                            C:\FrcCode\user_routines.c
                                           /******************************************************************************* C:\FrcCode\user_routines.c
                                           * FUNCTION NAME: Process_Data_From_Master_uP                                     C:\FrcCode\user_routines.c
                                           * PURPOSE:       Executes every 26.2ms when it gets new data from the master     C:\FrcCode\user_routines.c
                                           *                microprocessor.                                                 C:\FrcCode\user_routines.c
                                           * CALLED FROM:   main.c                                                          C:\FrcCode\user_routines.c
                                           * ARGUMENTS:     none                                                            C:\FrcCode\user_routines.c
                                           * RETURNS:       void                                                            C:\FrcCode\user_routines.c
                                           *******************************************************************************/ C:\FrcCode\user_routines.c
                                           void Process_Data_From_Master_uP(void)                                           C:\FrcCode\user_routines.c
                                           {                                                                                C:\FrcCode\user_routines.c
002338   0e78     MOVLW     0x78             Getdata(&rxdata);   /* Get fresh data from the master microprocessor. */       C:\FrcCode\user_routines.c
00233a   6ee6     MOVWF     0xe6,0x0                                                                                        
00233c   0e07     MOVLW     0x7                                                                                             
00233e   6ee6     MOVWF     0xe6,0x0                                                                                        
002340   ec89     CALL      0x2b12,0x0                                                                                      
002342   f015                                                                                                               
002344   52e5     MOVF      0xe5,0x1,0x0                                                                                    
002346   52e5     MOVF      0xe5,0x1,0x0                                                                                    
                                                                                                                            C:\FrcCode\user_routines.c
002348   d840     RCALL     0x23ca           Default_Routine();  /* Optional.  See below. */                                C:\FrcCode\user_routines.c
                                                                                                                            C:\FrcCode\user_routines.c
                                             /* Add your own code here. */                                                  C:\FrcCode\user_routines.c
                                                                                                                            C:\FrcCode\user_routines.c
00234a   0107     MOVLB     0x7              printf("Port1 Y %3d, X %3d, Fire %d, Top %d\n",(int)p2_y,(int)p1_x,(int)p1_sw_trig,(int)p1_sw_top);  /* printf EXAMPLE */ C:\FrcCode\user_routines.c
00234c   517a     MOVF      0x7a,0x0,0x1                                                                                    
00234e   0b02     ANDLW     0x2                                                                                             
002350   e001     BZ        0x2354                                                                                          
002352   0e01     MOVLW     0x1                                                                                             
002354   6ee6     MOVWF     0xe6,0x0                                                                                        
002356   6ae6     CLRF      0xe6,0x0                                                                                        
002358   517a     MOVF      0x7a,0x0,0x1                                                                                    
00235a   0b01     ANDLW     0x1                                                                                             
00235c   6ee6     MOVWF     0xe6,0x0                                                                                        
00235e   6ae6     CLRF      0xe6,0x0                                                                                        
002360   5182     MOVF      0x82,0x0,0x1                                                                                    
002362   6ee6     MOVWF     0xe6,0x0                                                                                        
002364   6ae6     CLRF      0xe6,0x0                                                                                        
002366   517f     MOVF      0x7f,0x0,0x1                                                                                    
002368   6ee6     MOVWF     0xe6,0x0                                                                                        
00236a   6ae6     CLRF      0xe6,0x0                                                                                        
00236c   0e97     MOVLW     0x97                                                                                            
00236e   6ee6     MOVWF     0xe6,0x0                                                                                        
002370   0e33     MOVLW     0x33                                                                                            
002372   6ee6     MOVWF     0xe6,0x0                                                                                        
002374   ec1d     CALL      0x143a,0x0                                                                                      
002376   f00a                                                                                                               
002378   6ef5     MOVWF     0xf5,0x0                                                                                        
00237a   0e0a     MOVLW     0xa                                                                                             
00237c   5ee1     SUBWF     0xe1,0x1,0x0                                                                                    
00237e   50f5     MOVF      0xf5,0x0,0x0                                                                                    
002380   0107     MOVLB     0x7            	printf("%d",(int)p4_y);                                                         C:\FrcCode\user_routines.c
002382   5181     MOVF      0x81,0x0,0x1                                                                                    
002384   6ee6     MOVWF     0xe6,0x0                                                                                        
002386   6ae6     CLRF      0xe6,0x0                                                                                        
002388   0e94     MOVLW     0x94                                                                                            
00238a   6ee6     MOVWF     0xe6,0x0                                                                                        
00238c   0e33     MOVLW     0x33                                                                                            
00238e   6ee6     MOVWF     0xe6,0x0                                                                                        
002390   ec1d     CALL      0x143a,0x0                                                                                      
002392   f00a                                                                                                               
002394   52e5     MOVF      0xe5,0x1,0x0                                                                                    
002396   52e5     MOVF      0xe5,0x1,0x0                                                                                    
002398   52e5     MOVF      0xe5,0x1,0x0                                                                                    
00239a   52e5     MOVF      0xe5,0x1,0x0                                                                                    
                                                                                                                            C:\FrcCode\user_routines.c
00239c   c76b     MOVFF     0x76b,0xfe6      Generate_Pwms(pwm13,pwm14,pwm15,pwm16);                                        C:\FrcCode\user_routines.c
00239e   ffe6                                                                                                               
0023a0   c76a     MOVFF     0x76a,0xfe6                                                                                     
0023a2   ffe6                                                                                                               
0023a4   c769     MOVFF     0x769,0xfe6                                                                                     
0023a6   ffe6                                                                                                               
0023a8   c768     MOVFF     0x768,0xfe6                                                                                     
0023aa   ffe6                                                                                                               
0023ac   ec48     CALL      0x3090,0x0                                                                                      
0023ae   f018                                                                                                               
0023b0   52e5     MOVF      0xe5,0x1,0x0                                                                                    
0023b2   52e5     MOVF      0xe5,0x1,0x0                                                                                    
0023b4   52e5     MOVF      0xe5,0x1,0x0                                                                                    
0023b6   52e5     MOVF      0xe5,0x1,0x0                                                                                    
                                                                                                                            C:\FrcCode\user_routines.c
                                                                                                                            C:\FrcCode\user_routines.c
0023b8   0e58     MOVLW     0x58             Putdata(&txdata);             /* DO NOT CHANGE! */                             C:\FrcCode\user_routines.c
0023ba   6ee6     MOVWF     0xe6,0x0                                                                                        
0023bc   0e07     MOVLW     0x7                                                                                             
0023be   6ee6     MOVWF     0xe6,0x0                                                                                        
0023c0   ecc3     CALL      0x2b86,0x0                                                                                      
0023c2   f015                                                                                                               
0023c4   52e5     MOVF      0xe5,0x1,0x0                                                                                    
0023c6   52e5     MOVF      0xe5,0x1,0x0                                                                                    
0023c8   0012     RETURN    0x0            }                                                                                C:\FrcCode\user_routines.c
                                                                                                                            C:\FrcCode\user_routines.c
                                           /******************************************************************************* C:\FrcCode\user_routines.c
                                           * FUNCTION NAME: Default_Routine                                                 C:\FrcCode\user_routines.c
                                           * PURPOSE:       Performs the default mappings of inputs to outputs for the      C:\FrcCode\user_routines.c
                                           *                Robot Controller.                                               C:\FrcCode\user_routines.c
                                           * CALLED FROM:   this file, Process_Data_From_Master_uP routine                  C:\FrcCode\user_routines.c
                                           * ARGUMENTS:     none                                                            C:\FrcCode\user_routines.c
                                           * RETURNS:       void                                                            C:\FrcCode\user_routines.c
                                           *******************************************************************************/ C:\FrcCode\user_routines.c
                                           void Default_Routine(void)                                                       C:\FrcCode\user_routines.c
                                           {                                                                                C:\FrcCode\user_routines.c
                                                                                                                            C:\FrcCode\user_routines.c
                                            /*---------- Analog Inputs (Joysticks) to PWM Outputs-----------------------    C:\FrcCode\user_routines.c
                                             *--------------------------------------------------------------------------    C:\FrcCode\user_routines.c
                                             *   This maps the joystick axes to specific PWM outputs.                       C:\FrcCode\user_routines.c
                                             */                                                                             C:\FrcCode\user_routines.c
0023ca   c77e     MOVFF     0x77e,0x75c      pwm01 = p1_y;                                                                  C:\FrcCode\user_routines.c
0023cc   f75c                                                                                                               
0023ce   c77f     MOVFF     0x77f,0x75d      pwm02 = p2_y;                                                                  C:\FrcCode\user_routines.c
0023d0   f75d                                                                                                               
0023d2   c780     MOVFF     0x780,0x75e      pwm03 = p3_y;                                                                  C:\FrcCode\user_routines.c
0023d4   f75e                                                                                                               
0023d6   c781     MOVFF     0x781,0x75f      pwm04 = p4_y;                                                                  C:\FrcCode\user_routines.c
0023d8   f75f                                                                                                               
0023da   c782     MOVFF     0x782,0x760      pwm05 = p1_x;                                                                  C:\FrcCode\user_routines.c
0023dc   f760                                                                                                               
0023de   c783     MOVFF     0x783,0x761      pwm06 = p2_x;                                                                  C:\FrcCode\user_routines.c
0023e0   f761                                                                                                               
0023e2   c784     MOVFF     0x784,0x762      pwm07 = p3_x;                                                                  C:\FrcCode\user_routines.c
0023e4   f762                                                                                                               
0023e6   c785     MOVFF     0x785,0x763      pwm08 = p4_x;                                                                  C:\FrcCode\user_routines.c
0023e8   f763                                                                                                               
0023ea   c786     MOVFF     0x786,0x764      pwm09 = p1_wheel;                                                              C:\FrcCode\user_routines.c
0023ec   f764                                                                                                               
0023ee   c787     MOVFF     0x787,0x765      pwm10 = p2_wheel;                                                              C:\FrcCode\user_routines.c
0023f0   f765                                                                                                               
0023f2   c788     MOVFF     0x788,0x766      pwm11 = p3_wheel;                                                              C:\FrcCode\user_routines.c
0023f4   f766                                                                                                               
0023f6   c789     MOVFF     0x789,0x767      pwm12 = p4_wheel;                                                              C:\FrcCode\user_routines.c
0023f8   f767                                                                                                               
                                                                                                                            C:\FrcCode\user_routines.c
                                            /*---------- 1 Joystick Drive ----------------------------------------------    C:\FrcCode\user_routines.c
                                             *--------------------------------------------------------------------------    C:\FrcCode\user_routines.c
                                             *  This code mixes the Y and X axis on Port 1 to allow one joystick drive.     C:\FrcCode\user_routines.c
                                             *  Joystick forward  = Robot forward                                           C:\FrcCode\user_routines.c
                                             *  Joystick backward = Robot backward                                          C:\FrcCode\user_routines.c
                                             *  Joystick right    = Robot rotates right                                     C:\FrcCode\user_routines.c
                                             *  Joystick left     = Robot rotates left                                      C:\FrcCode\user_routines.c
                                             *  Connect the right drive motors to PWM13 and/or PWM14 on the RC.             C:\FrcCode\user_routines.c
                                             *  Connect the left  drive motors to PWM15 and/or PWM16 on the RC.             C:\FrcCode\user_routines.c
                                             */                                                                             C:\FrcCode\user_routines.c
0023fa   0107     MOVLB     0x7              pwm13 = pwm14 = Limit_Mix(2000 + p1_y + p1_x - 127);                           C:\FrcCode\user_routines.c
0023fc   517e     MOVF      0x7e,0x0,0x1                                                                                    
0023fe   6a2e     CLRF      0x2e,0x0                                                                                        
002400   0fd0     ADDLW     0xd0                                                                                            
002402   6e2d     MOVWF     0x2d,0x0                                                                                        
002404   0e07     MOVLW     0x7                                                                                             
002406   222e     ADDWFC    0x2e,0x1,0x0                                                                                    
002408   5182     MOVF      0x82,0x0,0x1                                                                                    
00240a   0100     MOVLB     0x0                                                                                             
00240c   242d     ADDWF     0x2d,0x0,0x0                                                                                    
00240e   6f2b     MOVWF     0x2b,0x1                                                                                        
002410   0e00     MOVLW     0x0                                                                                             
002412   202e     ADDWFC    0x2e,0x0,0x0                                                                                    
002414   6f2c     MOVWF     0x2c,0x1                                                                                        
002416   0e7f     MOVLW     0x7f                                                                                            
002418   5e2b     SUBWF     0x2b,0x1,0x0                                                                                    
00241a   0e00     MOVLW     0x0                                                                                             
00241c   5a2c     SUBWFB    0x2c,0x1,0x0                                                                                    
00241e   c02b     MOVFF     0x2b,0xfe6                                                                                      
002420   ffe6                                                                                                               
002422   c02c     MOVFF     0x2c,0xfe6                                                                                      
002424   ffe6                                                                                                               
002426   ded0     RCALL     0x21c8                                                                                          
002428   52e5     MOVF      0xe5,0x1,0x0                                                                                    
00242a   52e5     MOVF      0xe5,0x1,0x0                                                                                    
00242c   0107     MOVLB     0x7                                                                                             
00242e   6f69     MOVWF     0x69,0x1                                                                                        
002430   6f68     MOVWF     0x68,0x1                                                                                        
002432   0107     MOVLB     0x7              pwm15 = pwm16 = Limit_Mix(2000 + p1_y - p1_x + 127);                           C:\FrcCode\user_routines.c
002434   517e     MOVF      0x7e,0x0,0x1                                                                                    
002436   6a2e     CLRF      0x2e,0x0                                                                                        
002438   0fd0     ADDLW     0xd0                                                                                            
00243a   6e2d     MOVWF     0x2d,0x0                                                                                        
00243c   0e07     MOVLW     0x7                                                                                             
00243e   222e     ADDWFC    0x2e,0x1,0x0                                                                                    
002440   5182     MOVF      0x82,0x0,0x1                                                                                    
002442   6e2f     MOVWF     0x2f,0x0                                                                                        
002444   6a30     CLRF      0x30,0x0                                                                                        
002446   502f     MOVF      0x2f,0x0,0x0                                                                                    
002448   5c2d     SUBWF     0x2d,0x0,0x0                                                                                    
00244a   6e2b     MOVWF     0x2b,0x0                                                                                        
00244c   5030     MOVF      0x30,0x0,0x0                                                                                    
00244e   582e     SUBWFB    0x2e,0x0,0x0                                                                                    
002450   6e2c     MOVWF     0x2c,0x0                                                                                        
002452   0e7f     MOVLW     0x7f                                                                                            
002454   262b     ADDWF     0x2b,0x1,0x0                                                                                    
002456   0e00     MOVLW     0x0                                                                                             
002458   222c     ADDWFC    0x2c,0x1,0x0                                                                                    
00245a   c02b     MOVFF     0x2b,0xfe6                                                                                      
00245c   ffe6                                                                                                               
00245e   c02c     MOVFF     0x2c,0xfe6                                                                                      
002460   ffe6                                                                                                               
002462   deb2     RCALL     0x21c8                                                                                          
002464   52e5     MOVF      0xe5,0x1,0x0                                                                                    
002466   52e5     MOVF      0xe5,0x1,0x0                                                                                    
002468   0107     MOVLB     0x7                                                                                             
00246a   6f6b     MOVWF     0x6b,0x1                                                                                        
00246c   6f6a     MOVWF     0x6a,0x1                                                                                        
                                                                                                                            C:\FrcCode\user_routines.c
                                            /*---------- Buttons to Relays----------------------------------------------    C:\FrcCode\user_routines.c
                                             *--------------------------------------------------------------------------    C:\FrcCode\user_routines.c
                                             *  This default code maps the joystick buttons to specific relay outputs.      C:\FrcCode\user_routines.c
                                             *  Relays 1 and 2 use limit switches to stop the movement in one direction.    C:\FrcCode\user_routines.c
                                             *  The & used below is the C symbol for AND                                    C:\FrcCode\user_routines.c
                                             */                                                                             C:\FrcCode\user_routines.c
00246e   5081     MOVF      0x81,0x0,0x0     relay1_fwd = p1_sw_trig & rc_dig_in01;  /* FWD only if switch1 is not closed. */ C:\FrcCode\user_routines.c
002470   0b04     ANDLW     0x4                                                                                             
002472   e001     BZ        0x2476                                                                                          
002474   0e01     MOVLW     0x1                                                                                             
002476   6e2b     MOVWF     0x2b,0x0                                                                                        
002478   0107     MOVLB     0x7                                                                                             
00247a   517a     MOVF      0x7a,0x0,0x1                                                                                    
00247c   0b01     ANDLW     0x1                                                                                             
00247e   142b     ANDWF     0x2b,0x0,0x0                                                                                    
002480   0b01     ANDLW     0x1                                                                                             
002482   6ef3     MOVWF     0xf3,0x0                                                                                        
002484   0efe     MOVLW     0xfe                                                                                            
002486   148c     ANDWF     0x8c,0x0,0x0                                                                                    
002488   10f3     IORWF     0xf3,0x0,0x0                                                                                    
00248a   6e8c     MOVWF     0x8c,0x0                                                                                        
00248c   5081     MOVF      0x81,0x0,0x0     relay1_rev = p1_sw_top  & rc_dig_in02;  /* REV only if switch2 is not closed. */ C:\FrcCode\user_routines.c
00248e   0b08     ANDLW     0x8                                                                                             
002490   e001     BZ        0x2494                                                                                          
002492   0e01     MOVLW     0x1                                                                                             
002494   6e2b     MOVWF     0x2b,0x0                                                                                        
002496   517a     MOVF      0x7a,0x0,0x1                                                                                    
002498   0b02     ANDLW     0x2                                                                                             
00249a   e001     BZ        0x249e                                                                                          
00249c   0e01     MOVLW     0x1                                                                                             
00249e   142b     ANDWF     0x2b,0x0,0x0                                                                                    
0024a0   0b01     ANDLW     0x1                                                                                             
0024a2   6ef3     MOVWF     0xf3,0x0                                                                                        
0024a4   0efe     MOVLW     0xfe                                                                                            
0024a6   148d     ANDWF     0x8d,0x0,0x0                                                                                    
0024a8   10f3     IORWF     0xf3,0x0,0x0                                                                                    
0024aa   6e8d     MOVWF     0x8d,0x0                                                                                        
0024ac   5081     MOVF      0x81,0x0,0x0     relay2_fwd = p2_sw_trig & rc_dig_in03;  /* FWD only if switch3 is not closed. */ C:\FrcCode\user_routines.c
0024ae   0b10     ANDLW     0x10                                                                                            
0024b0   e001     BZ        0x24b4                                                                                          
0024b2   0e01     MOVLW     0x1                                                                                             
0024b4   6e2b     MOVWF     0x2b,0x0                                                                                        
0024b6   517b     MOVF      0x7b,0x0,0x1                                                                                    
0024b8   0b01     ANDLW     0x1                                                                                             
0024ba   142b     ANDWF     0x2b,0x0,0x0                                                                                    
0024bc   0b01     ANDLW     0x1                                                                                             
0024be   6ef3     MOVWF     0xf3,0x0                                                                                        
0024c0   46f3     RLNCF     0xf3,0x1,0x0                                                                                    
0024c2   0efd     MOVLW     0xfd                                                                                            
0024c4   148c     ANDWF     0x8c,0x0,0x0                                                                                    
0024c6   10f3     IORWF     0xf3,0x0,0x0                                                                                    
0024c8   6e8c     MOVWF     0x8c,0x0                                                                                        
0024ca   5081     MOVF      0x81,0x0,0x0     relay2_rev = p2_sw_top  & rc_dig_in04;  /* REV only if switch4 is not closed. */ C:\FrcCode\user_routines.c
0024cc   0b20     ANDLW     0x20                                                                                            
0024ce   e001     BZ        0x24d2                                                                                          
0024d0   0e01     MOVLW     0x1                                                                                             
0024d2   6e2b     MOVWF     0x2b,0x0                                                                                        
0024d4   517b     MOVF      0x7b,0x0,0x1                                                                                    
0024d6   0b02     ANDLW     0x2                                                                                             
0024d8   e001     BZ        0x24dc                                                                                          
0024da   0e01     MOVLW     0x1                                                                                             
0024dc   142b     ANDWF     0x2b,0x0,0x0                                                                                    
0024de   0b01     ANDLW     0x1                                                                                             
0024e0   6ef3     MOVWF     0xf3,0x0                                                                                        
0024e2   46f3     RLNCF     0xf3,0x1,0x0                                                                                    
0024e4   0efd     MOVLW     0xfd                                                                                            
0024e6   148d     ANDWF     0x8d,0x0,0x0                                                                                    
0024e8   10f3     IORWF     0xf3,0x0,0x0                                                                                    
0024ea   6e8d     MOVWF     0x8d,0x0                                                                                        
0024ec   517a     MOVF      0x7a,0x0,0x1     relay3_fwd = p3_sw_trig;                                                       C:\FrcCode\user_routines.c
0024ee   0b10     ANDLW     0x10                                                                                            
0024f0   e002     BZ        0x24f6                                                                                          
0024f2   848c     BSF       0x8c,0x2,0x0                                                                                    
0024f4   d001     BRA       0x24f8                                                                                          
0024f6   948c     BCF       0x8c,0x2,0x0                                                                                    
0024f8   517a     MOVF      0x7a,0x0,0x1     relay3_rev = p3_sw_top;                                                        C:\FrcCode\user_routines.c
0024fa   0b20     ANDLW     0x20                                                                                            
0024fc   e002     BZ        0x2502                                                                                          
0024fe   848d     BSF       0x8d,0x2,0x0                                                                                    
002500   d001     BRA       0x2504                                                                                          
002502   948d     BCF       0x8d,0x2,0x0                                                                                    
002504   517b     MOVF      0x7b,0x0,0x1     relay4_fwd = p4_sw_trig;                                                       C:\FrcCode\user_routines.c
002506   0b10     ANDLW     0x10                                                                                            
002508   e002     BZ        0x250e                                                                                          
00250a   868c     BSF       0x8c,0x3,0x0                                                                                    
00250c   d001     BRA       0x2510                                                                                          
00250e   968c     BCF       0x8c,0x3,0x0                                                                                    
002510   517b     MOVF      0x7b,0x0,0x1     relay4_rev = p4_sw_top;                                                        C:\FrcCode\user_routines.c
002512   0b20     ANDLW     0x20                                                                                            
002514   e002     BZ        0x251a                                                                                          
002516   868d     BSF       0x8d,0x3,0x0                                                                                    
002518   d001     BRA       0x251c                                                                                          
00251a   968d     BCF       0x8d,0x3,0x0                                                                                    
00251c   517a     MOVF      0x7a,0x0,0x1     relay5_fwd = p1_sw_aux1;                                                       C:\FrcCode\user_routines.c
00251e   0b04     ANDLW     0x4                                                                                             
002520   e002     BZ        0x2526                                                                                          
002522   888c     BSF       0x8c,0x4,0x0                                                                                    
002524   d001     BRA       0x2528                                                                                          
002526   988c     BCF       0x8c,0x4,0x0                                                                                    
002528   517a     MOVF      0x7a,0x0,0x1     relay5_rev = p1_sw_aux2;                                                       C:\FrcCode\user_routines.c
00252a   0b08     ANDLW     0x8                                                                                             
00252c   e002     BZ        0x2532                                                                                          
00252e   888d     BSF       0x8d,0x4,0x0                                                                                    
002530   d001     BRA       0x2534                                                                                          
002532   988d     BCF       0x8d,0x4,0x0                                                                                    
002534   517a     MOVF      0x7a,0x0,0x1     relay6_fwd = p3_sw_aux1;                                                       C:\FrcCode\user_routines.c
002536   0b40     ANDLW     0x40                                                                                            
002538   e002     BZ        0x253e                                                                                          
00253a   8a8c     BSF       0x8c,0x5,0x0                                                                                    
00253c   d001     BRA       0x2540                                                                                          
00253e   9a8c     BCF       0x8c,0x5,0x0                                                                                    
002540   517a     MOVF      0x7a,0x0,0x1     relay6_rev = p3_sw_aux2;                                                       C:\FrcCode\user_routines.c
002542   0b80     ANDLW     0x80                                                                                            
002544   e002     BZ        0x254a                                                                                          
002546   8a8d     BSF       0x8d,0x5,0x0                                                                                    
002548   d001     BRA       0x254c                                                                                          
00254a   9a8d     BCF       0x8d,0x5,0x0                                                                                    
00254c   517b     MOVF      0x7b,0x0,0x1     relay7_fwd = p4_sw_aux1;                                                       C:\FrcCode\user_routines.c
00254e   0b40     ANDLW     0x40                                                                                            
002550   e002     BZ        0x2556                                                                                          
002552   8c8c     BSF       0x8c,0x6,0x0                                                                                    
002554   d001     BRA       0x2558                                                                                          
002556   9c8c     BCF       0x8c,0x6,0x0                                                                                    
002558   517b     MOVF      0x7b,0x0,0x1     relay7_rev = p4_sw_aux2;                                                       C:\FrcCode\user_routines.c
00255a   0b80     ANDLW     0x80                                                                                            
00255c   e002     BZ        0x2562                                                                                          
00255e   8c8d     BSF       0x8d,0x6,0x0                                                                                    
002560   d001     BRA       0x2564                                                                                          
002562   9c8d     BCF       0x8d,0x6,0x0                                                                                    
002564   5088     MOVF      0x88,0x0,0x0     relay8_fwd = !rc_dig_in18;  /* Power pump only if pressure switch is off. */   C:\FrcCode\user_routines.c
002566   0b80     ANDLW     0x80                                                                                            
002568   e002     BZ        0x256e                                                                                          
00256a   9e8c     BCF       0x8c,0x7,0x0                                                                                    
00256c   d001     BRA       0x2570                                                                                          
00256e   8e8c     BSF       0x8c,0x7,0x0                                                                                    
002570   9091     BCF       0x91,0x0,0x0     relay8_rev = 0;                                                                C:\FrcCode\user_routines.c
                                                                                                                            C:\FrcCode\user_routines.c
                                             /*---------- PWM outputs Limited by Limit Switches  ------------------------*/ C:\FrcCode\user_routines.c
                                                                                                                            C:\FrcCode\user_routines.c
002572   0e5e     MOVLW     0x5e             Limit_Switch_Max(!rc_dig_in05, &pwm03);                                        C:\FrcCode\user_routines.c
002574   6ee6     MOVWF     0xe6,0x0                                                                                        
002576   0e07     MOVLW     0x7                                                                                             
002578   6ee6     MOVWF     0xe6,0x0                                                                                        
00257a   5081     MOVF      0x81,0x0,0x0                                                                                    
00257c   0b40     ANDLW     0x40                                                                                            
00257e   0a40     XORLW     0x40                                                                                            
002580   e001     BZ        0x2584                                                                                          
002582   0e01     MOVLW     0x1                                                                                             
002584   6ee6     MOVWF     0xe6,0x0                                                                                        
002586   dde6     RCALL     0x2154                                                                                          
002588   52e5     MOVF      0xe5,0x1,0x0                                                                                    
00258a   52e5     MOVF      0xe5,0x1,0x0                                                                                    
00258c   52e5     MOVF      0xe5,0x1,0x0                                                                                    
00258e   0e5e     MOVLW     0x5e             Limit_Switch_Min(!rc_dig_in06, &pwm03);                                        C:\FrcCode\user_routines.c
002590   6ee6     MOVWF     0xe6,0x0                                                                                        
002592   0e07     MOVLW     0x7                                                                                             
002594   6ee6     MOVWF     0xe6,0x0                                                                                        
002596   5081     MOVF      0x81,0x0,0x0                                                                                    
002598   0b80     ANDLW     0x80                                                                                            
00259a   0a80     XORLW     0x80                                                                                            
00259c   e001     BZ        0x25a0                                                                                          
00259e   0e01     MOVLW     0x1                                                                                             
0025a0   6ee6     MOVWF     0xe6,0x0                                                                                        
0025a2   ddf4     RCALL     0x218c                                                                                          
0025a4   52e5     MOVF      0xe5,0x1,0x0                                                                                    
0025a6   52e5     MOVF      0xe5,0x1,0x0                                                                                    
0025a8   52e5     MOVF      0xe5,0x1,0x0                                                                                    
0025aa   0e5f     MOVLW     0x5f             Limit_Switch_Max(!rc_dig_in07, &pwm04);                                        C:\FrcCode\user_routines.c
0025ac   6ee6     MOVWF     0xe6,0x0                                                                                        
0025ae   0e07     MOVLW     0x7                                                                                             
0025b0   6ee6     MOVWF     0xe6,0x0                                                                                        
0025b2   5087     MOVF      0x87,0x0,0x0                                                                                    
0025b4   0b01     ANDLW     0x1                                                                                             
0025b6   0a01     XORLW     0x1                                                                                             
0025b8   6ee6     MOVWF     0xe6,0x0                                                                                        
0025ba   ddcc     RCALL     0x2154                                                                                          
0025bc   52e5     MOVF      0xe5,0x1,0x0                                                                                    
0025be   52e5     MOVF      0xe5,0x1,0x0                                                                                    
0025c0   52e5     MOVF      0xe5,0x1,0x0                                                                                    
0025c2   0e5f     MOVLW     0x5f             Limit_Switch_Min(!rc_dig_in08, &pwm04);                                        C:\FrcCode\user_routines.c
0025c4   6ee6     MOVWF     0xe6,0x0                                                                                        
0025c6   0e07     MOVLW     0x7                                                                                             
0025c8   6ee6     MOVWF     0xe6,0x0                                                                                        
0025ca   5087     MOVF      0x87,0x0,0x0                                                                                    
0025cc   0b02     ANDLW     0x2                                                                                             
0025ce   0a02     XORLW     0x2                                                                                             
0025d0   e001     BZ        0x25d4                                                                                          
0025d2   0e01     MOVLW     0x1                                                                                             
0025d4   6ee6     MOVWF     0xe6,0x0                                                                                        
0025d6   ddda     RCALL     0x218c                                                                                          
0025d8   52e5     MOVF      0xe5,0x1,0x0                                                                                    
0025da   52e5     MOVF      0xe5,0x1,0x0                                                                                    
0025dc   52e5     MOVF      0xe5,0x1,0x0                                                                                    
0025de   0e64     MOVLW     0x64             Limit_Switch_Max(!rc_dig_in09, &pwm09);                                        C:\FrcCode\user_routines.c
0025e0   6ee6     MOVWF     0xe6,0x0                                                                                        
0025e2   0e07     MOVLW     0x7                                                                                             
0025e4   6ee6     MOVWF     0xe6,0x0                                                                                        
0025e6   5087     MOVF      0x87,0x0,0x0                                                                                    
0025e8   0b04     ANDLW     0x4                                                                                             
0025ea   0a04     XORLW     0x4                                                                                             
0025ec   e001     BZ        0x25f0                                                                                          
0025ee   0e01     MOVLW     0x1                                                                                             
0025f0   6ee6     MOVWF     0xe6,0x0                                                                                        
0025f2   ddb0     RCALL     0x2154                                                                                          
0025f4   52e5     MOVF      0xe5,0x1,0x0                                                                                    
0025f6   52e5     MOVF      0xe5,0x1,0x0                                                                                    
0025f8   52e5     MOVF      0xe5,0x1,0x0                                                                                    
0025fa   0e64     MOVLW     0x64             Limit_Switch_Min(!rc_dig_in10, &pwm09);                                        C:\FrcCode\user_routines.c
0025fc   6ee6     MOVWF     0xe6,0x0                                                                                        
0025fe   0e07     MOVLW     0x7                                                                                             
002600   6ee6     MOVWF     0xe6,0x0                                                                                        
002602   5087     MOVF      0x87,0x0,0x0                                                                                    
002604   0b08     ANDLW     0x8                                                                                             
002606   0a08     XORLW     0x8                                                                                             
002608   e001     BZ        0x260c                                                                                          
00260a   0e01     MOVLW     0x1                                                                                             
00260c   6ee6     MOVWF     0xe6,0x0                                                                                        
00260e   ddbe     RCALL     0x218c                                                                                          
002610   52e5     MOVF      0xe5,0x1,0x0                                                                                    
002612   52e5     MOVF      0xe5,0x1,0x0                                                                                    
002614   52e5     MOVF      0xe5,0x1,0x0                                                                                    
002616   0e65     MOVLW     0x65             Limit_Switch_Max(!rc_dig_in11, &pwm10);                                        C:\FrcCode\user_routines.c
002618   6ee6     MOVWF     0xe6,0x0                                                                                        
00261a   0e07     MOVLW     0x7                                                                                             
00261c   6ee6     MOVWF     0xe6,0x0                                                                                        
00261e   5088     MOVF      0x88,0x0,0x0                                                                                    
002620   0b02     ANDLW     0x2                                                                                             
002622   0a02     XORLW     0x2                                                                                             
002624   e001     BZ        0x2628                                                                                          
002626   0e01     MOVLW     0x1                                                                                             
002628   6ee6     MOVWF     0xe6,0x0                                                                                        
00262a   dd94     RCALL     0x2154                                                                                          
00262c   52e5     MOVF      0xe5,0x1,0x0                                                                                    
00262e   52e5     MOVF      0xe5,0x1,0x0                                                                                    
002630   52e5     MOVF      0xe5,0x1,0x0                                                                                    
002632   0e65     MOVLW     0x65             Limit_Switch_Min(!rc_dig_in12, &pwm10);                                        C:\FrcCode\user_routines.c
002634   6ee6     MOVWF     0xe6,0x0                                                                                        
002636   0e07     MOVLW     0x7                                                                                             
002638   6ee6     MOVWF     0xe6,0x0                                                                                        
00263a   5088     MOVF      0x88,0x0,0x0                                                                                    
00263c   0b04     ANDLW     0x4                                                                                             
00263e   0a04     XORLW     0x4                                                                                             
002640   e001     BZ        0x2644                                                                                          
002642   0e01     MOVLW     0x1                                                                                             
002644   6ee6     MOVWF     0xe6,0x0                                                                                        
002646   dda2     RCALL     0x218c                                                                                          
002648   52e5     MOVF      0xe5,0x1,0x0                                                                                    
00264a   52e5     MOVF      0xe5,0x1,0x0                                                                                    
00264c   52e5     MOVF      0xe5,0x1,0x0                                                                                    
00264e   0e66     MOVLW     0x66             Limit_Switch_Max(!rc_dig_in13, &pwm11);                                        C:\FrcCode\user_routines.c
002650   6ee6     MOVWF     0xe6,0x0                                                                                        
002652   0e07     MOVLW     0x7                                                                                             
002654   6ee6     MOVWF     0xe6,0x0                                                                                        
002656   5088     MOVF      0x88,0x0,0x0                                                                                    
002658   0b08     ANDLW     0x8                                                                                             
00265a   0a08     XORLW     0x8                                                                                             
00265c   e001     BZ        0x2660                                                                                          
00265e   0e01     MOVLW     0x1                                                                                             
002660   6ee6     MOVWF     0xe6,0x0                                                                                        
002662   dd78     RCALL     0x2154                                                                                          
002664   52e5     MOVF      0xe5,0x1,0x0                                                                                    
002666   52e5     MOVF      0xe5,0x1,0x0                                                                                    
002668   52e5     MOVF      0xe5,0x1,0x0                                                                                    
00266a   0e66     MOVLW     0x66             Limit_Switch_Min(!rc_dig_in14, &pwm11);                                        C:\FrcCode\user_routines.c
00266c   6ee6     MOVWF     0xe6,0x0                                                                                        
00266e   0e07     MOVLW     0x7                                                                                             
002670   6ee6     MOVWF     0xe6,0x0                                                                                        
002672   5082     MOVF      0x82,0x0,0x0                                                                                    
002674   0b01     ANDLW     0x1                                                                                             
002676   0a01     XORLW     0x1                                                                                             
002678   6ee6     MOVWF     0xe6,0x0                                                                                        
00267a   dd88     RCALL     0x218c                                                                                          
00267c   52e5     MOVF      0xe5,0x1,0x0                                                                                    
00267e   52e5     MOVF      0xe5,0x1,0x0                                                                                    
002680   52e5     MOVF      0xe5,0x1,0x0                                                                                    
002682   0e67     MOVLW     0x67             Limit_Switch_Max(!rc_dig_in15, &pwm12);                                        C:\FrcCode\user_routines.c
002684   6ee6     MOVWF     0xe6,0x0                                                                                        
002686   0e07     MOVLW     0x7                                                                                             
002688   6ee6     MOVWF     0xe6,0x0                                                                                        
00268a   5088     MOVF      0x88,0x0,0x0                                                                                    
00268c   0b10     ANDLW     0x10                                                                                            
00268e   0a10     XORLW     0x10                                                                                            
002690   e001     BZ        0x2694                                                                                          
002692   0e01     MOVLW     0x1                                                                                             
002694   6ee6     MOVWF     0xe6,0x0                                                                                        
002696   dd5e     RCALL     0x2154                                                                                          
002698   52e5     MOVF      0xe5,0x1,0x0                                                                                    
00269a   52e5     MOVF      0xe5,0x1,0x0                                                                                    
00269c   52e5     MOVF      0xe5,0x1,0x0                                                                                    
00269e   0e67     MOVLW     0x67             Limit_Switch_Min(!rc_dig_in16, &pwm12);                                        C:\FrcCode\user_routines.c
0026a0   6ee6     MOVWF     0xe6,0x0                                                                                        
0026a2   0e07     MOVLW     0x7                                                                                             
0026a4   6ee6     MOVWF     0xe6,0x0                                                                                        
0026a6   5088     MOVF      0x88,0x0,0x0                                                                                    
0026a8   0b20     ANDLW     0x20                                                                                            
0026aa   0a20     XORLW     0x20                                                                                            
0026ac   e001     BZ        0x26b0                                                                                          
0026ae   0e01     MOVLW     0x1                                                                                             
0026b0   6ee6     MOVWF     0xe6,0x0                                                                                        
0026b2   dd6c     RCALL     0x218c                                                                                          
0026b4   52e5     MOVF      0xe5,0x1,0x0                                                                                    
0026b6   52e5     MOVF      0xe5,0x1,0x0                                                                                    
0026b8   52e5     MOVF      0xe5,0x1,0x0                                                                                    
                                                                                                                            C:\FrcCode\user_routines.c
                                            /*---------- ROBOT FEEDBACK LEDs------------------------------------------------ C:\FrcCode\user_routines.c
                                             *------------------------------------------------------------------------------ C:\FrcCode\user_routines.c
                                             *   This section drives the "ROBOT FEEDBACK" lights on the Operator Interface. C:\FrcCode\user_routines.c
                                             *   The lights are green for joystick forward and red for joystick reverse.    C:\FrcCode\user_routines.c
                                             *   Both red and green are on when the joystick is centered.  Use the          C:\FrcCode\user_routines.c
                                             *   trim tabs on the joystick to adjust the center.                            C:\FrcCode\user_routines.c
                                             *   These may be changed for any use that the user desires.                        C:\FrcCode\user_routines.c
                                             */	                                                                            C:\FrcCode\user_routines.c
                                                                                                                            C:\FrcCode\user_routines.c
0026ba   0107     MOVLB     0x7              if (user_display_mode == 0) /* User Mode is Off */                             C:\FrcCode\user_routines.c
0026bc   bb79     BTFSC     0x79,0x5,0x1                                                                                    
0026be   d0d7     BRA       0x286e                                                                                          
                                                                                                                            C:\FrcCode\user_routines.c
                                             { /* Check position of Port 1 Joystick */                                      C:\FrcCode\user_routines.c
0026c0   0e00     MOVLW     0x0                if (p1_y >= 0 && p1_y <= 56)                                                 C:\FrcCode\user_routines.c
0026c2   5d7e     SUBWF     0x7e,0x0,0x1                                                                                    
0026c4   e307     BNC       0x26d4                                                                                          
0026c6   517e     MOVF      0x7e,0x0,0x1                                                                                    
0026c8   0838     SUBLW     0x38                                                                                            
0026ca   e304     BNC       0x26d4                                                                                          
                                               {                     /* Joystick is in full reverse position */             C:\FrcCode\user_routines.c
0026cc   0107     MOVLB     0x7                  Pwm1_green  = 0;    /* Turn PWM1 green LED - OFF */                        C:\FrcCode\user_routines.c
0026ce   9158     BCF       0x58,0x0,0x1                                                                                    
0026d0   8358     BSF       0x58,0x1,0x1         Pwm1_red  = 1;      /* Turn PWM1 red LED   - ON  */                        C:\FrcCode\user_routines.c
                                               }                                                                            C:\FrcCode\user_routines.c
0026d2   d03a     BRA       0x2748             else if (p1_y >= 125 && p1_y <= 129)                                         C:\FrcCode\user_routines.c
0026d4   0e7d     MOVLW     0x7d                                                                                            
0026d6   5d7e     SUBWF     0x7e,0x0,0x1                                                                                    
0026d8   e313     BNC       0x2700                                                                                          
0026da   517e     MOVF      0x7e,0x0,0x1                                                                                    
0026dc   6e2b     MOVWF     0x2b,0x0                                                                                        
0026de   6a2c     CLRF      0x2c,0x0                                                                                        
0026e0   502c     MOVF      0x2c,0x0,0x0                                                                                    
0026e2   0a00     XORLW     0x0                                                                                             
0026e4   aee8     BTFSS     0xe8,0x7,0x0                                                                                    
0026e6   d002     BRA       0x26ec                                                                                          
0026e8   342c     RLCF      0x2c,0x0,0x0                                                                                    
0026ea   d005     BRA       0x26f6                                                                                          
0026ec   0e81     MOVLW     0x81                                                                                            
0026ee   80d8     BSF       0xd8,0x0,0x0                                                                                    
0026f0   542b     SUBFWB    0x2b,0x0,0x0                                                                                    
0026f2   0e00     MOVLW     0x0                                                                                             
0026f4   542c     SUBFWB    0x2c,0x0,0x0                                                                                    
0026f6   e304     BNC       0x2700                                                                                          
                                               {                     /* Joystick is in neutral position */                  C:\FrcCode\user_routines.c
0026f8   0107     MOVLB     0x7                  Pwm1_green  = 1;    /* Turn PWM1 green LED - ON */                         C:\FrcCode\user_routines.c
0026fa   8158     BSF       0x58,0x0,0x1                                                                                    
0026fc   8358     BSF       0x58,0x1,0x1         Pwm1_red  = 1;      /* Turn PWM1 red LED   - ON */                         C:\FrcCode\user_routines.c
                                               }                                                                            C:\FrcCode\user_routines.c
0026fe   d024     BRA       0x2748             else if (p1_y >= 216 && p1_y <= 255)                                         C:\FrcCode\user_routines.c
002700   517e     MOVF      0x7e,0x0,0x1                                                                                    
002702   6e2b     MOVWF     0x2b,0x0                                                                                        
002704   6a2c     CLRF      0x2c,0x0                                                                                        
002706   502c     MOVF      0x2c,0x0,0x0                                                                                    
002708   0a00     XORLW     0x0                                                                                             
00270a   aee8     BTFSS     0xe8,0x7,0x0                                                                                    
00270c   d002     BRA       0x2712                                                                                          
00270e   90d8     BCF       0xd8,0x0,0x0                                                                                    
002710   d004     BRA       0x271a                                                                                          
002712   0ed8     MOVLW     0xd8                                                                                            
002714   5c2b     SUBWF     0x2b,0x0,0x0                                                                                    
002716   0e00     MOVLW     0x0                                                                                             
002718   582c     SUBWFB    0x2c,0x0,0x0                                                                                    
00271a   e313     BNC       0x2742                                                                                          
00271c   517e     MOVF      0x7e,0x0,0x1                                                                                    
00271e   6e2d     MOVWF     0x2d,0x0                                                                                        
002720   6a2e     CLRF      0x2e,0x0                                                                                        
002722   502e     MOVF      0x2e,0x0,0x0                                                                                    
002724   0a00     XORLW     0x0                                                                                             
002726   aee8     BTFSS     0xe8,0x7,0x0                                                                                    
002728   d002     BRA       0x272e                                                                                          
00272a   342e     RLCF      0x2e,0x0,0x0                                                                                    
00272c   d005     BRA       0x2738                                                                                          
00272e   0eff     MOVLW     0xff                                                                                            
002730   80d8     BSF       0xd8,0x0,0x0                                                                                    
002732   542d     SUBFWB    0x2d,0x0,0x0                                                                                    
002734   0e00     MOVLW     0x0                                                                                             
002736   542e     SUBFWB    0x2e,0x0,0x0                                                                                    
002738   e304     BNC       0x2742                                                                                          
                                               {                     /* Joystick is in full forward position*/              C:\FrcCode\user_routines.c
00273a   0107     MOVLB     0x7                  Pwm1_green  = 1;    /* Turn PWM1 green LED - ON  */                        C:\FrcCode\user_routines.c
00273c   8158     BSF       0x58,0x0,0x1                                                                                    
00273e   9358     BCF       0x58,0x1,0x1         Pwm1_red  = 0;      /* Turn PWM1 red LED   - OFF */                        C:\FrcCode\user_routines.c
                                               }                                                                            C:\FrcCode\user_routines.c
002740   d003     BRA       0x2748             else                                                                         C:\FrcCode\user_routines.c
                                               {                     /* In either forward or reverse position */            C:\FrcCode\user_routines.c
002742   0107     MOVLB     0x7                  Pwm1_green  = 0;    /* Turn PWM1 green LED - OFF */                        C:\FrcCode\user_routines.c
002744   9158     BCF       0x58,0x0,0x1                                                                                    
002746   9358     BCF       0x58,0x1,0x1         Pwm1_red  = 0;      /* Turn PWM1 red LED   - OFF */                        C:\FrcCode\user_routines.c
                                               }  /*END Check position of Port 1 Joystick                                   C:\FrcCode\user_routines.c
                                                                                                                            C:\FrcCode\user_routines.c
                                               /* Check position of Port 2 Y Joystick                                       C:\FrcCode\user_routines.c
                                                      (or Port 1 X in Single Joystick Drive Mode) */                        C:\FrcCode\user_routines.c
002748   0e00     MOVLW     0x0                if (p2_y >= 0 && p2_y <= 56)                                                 C:\FrcCode\user_routines.c
00274a   0107     MOVLB     0x7                                                                                             
00274c   5d7f     SUBWF     0x7f,0x0,0x1                                                                                    
00274e   e307     BNC       0x275e                                                                                          
002750   517f     MOVF      0x7f,0x0,0x1                                                                                    
002752   0838     SUBLW     0x38                                                                                            
002754   e304     BNC       0x275e                                                                                          
                                               {                     /* Joystick is in full reverse position */             C:\FrcCode\user_routines.c
002756   0107     MOVLB     0x7                  Pwm2_green  = 0;    /* Turn pwm2 green LED - OFF */                        C:\FrcCode\user_routines.c
002758   9558     BCF       0x58,0x2,0x1                                                                                    
00275a   8758     BSF       0x58,0x3,0x1         Pwm2_red  = 1;      /* Turn pwm2 red LED   - ON  */                        C:\FrcCode\user_routines.c
                                               }                                                                            C:\FrcCode\user_routines.c
00275c   d03a     BRA       0x27d2             else if (p2_y >= 125 && p2_y <= 129)                                         C:\FrcCode\user_routines.c
00275e   0e7d     MOVLW     0x7d                                                                                            
002760   5d7f     SUBWF     0x7f,0x0,0x1                                                                                    
002762   e313     BNC       0x278a                                                                                          
002764   517f     MOVF      0x7f,0x0,0x1                                                                                    
002766   6e2b     MOVWF     0x2b,0x0                                                                                        
002768   6a2c     CLRF      0x2c,0x0                                                                                        
00276a   502c     MOVF      0x2c,0x0,0x0                                                                                    
00276c   0a00     XORLW     0x0                                                                                             
00276e   aee8     BTFSS     0xe8,0x7,0x0                                                                                    
002770   d002     BRA       0x2776                                                                                          
002772   342c     RLCF      0x2c,0x0,0x0                                                                                    
002774   d005     BRA       0x2780                                                                                          
002776   0e81     MOVLW     0x81                                                                                            
002778   80d8     BSF       0xd8,0x0,0x0                                                                                    
00277a   542b     SUBFWB    0x2b,0x0,0x0                                                                                    
00277c   0e00     MOVLW     0x0                                                                                             
00277e   542c     SUBFWB    0x2c,0x0,0x0                                                                                    
002780   e304     BNC       0x278a                                                                                          
                                               {                     /* Joystick is in neutral position */                  C:\FrcCode\user_routines.c
002782   0107     MOVLB     0x7                  Pwm2_green  = 1;    /* Turn PWM2 green LED - ON */                         C:\FrcCode\user_routines.c
002784   8558     BSF       0x58,0x2,0x1                                                                                    
002786   8758     BSF       0x58,0x3,0x1         Pwm2_red  = 1;      /* Turn PWM2 red LED   - ON */                         C:\FrcCode\user_routines.c
                                               }                                                                            C:\FrcCode\user_routines.c
002788   d024     BRA       0x27d2             else if (p2_y >= 216 && p2_y <= 255)                                         C:\FrcCode\user_routines.c
00278a   517f     MOVF      0x7f,0x0,0x1                                                                                    
00278c   6e2b     MOVWF     0x2b,0x0                                                                                        
00278e   6a2c     CLRF      0x2c,0x0                                                                                        
002790   502c     MOVF      0x2c,0x0,0x0                                                                                    
002792   0a00     XORLW     0x0                                                                                             
002794   aee8     BTFSS     0xe8,0x7,0x0                                                                                    
002796   d002     BRA       0x279c                                                                                          
002798   90d8     BCF       0xd8,0x0,0x0                                                                                    
00279a   d004     BRA       0x27a4                                                                                          
00279c   0ed8     MOVLW     0xd8                                                                                            
00279e   5c2b     SUBWF     0x2b,0x0,0x0                                                                                    
0027a0   0e00     MOVLW     0x0                                                                                             
0027a2   582c     SUBWFB    0x2c,0x0,0x0                                                                                    
0027a4   e313     BNC       0x27cc                                                                                          
0027a6   517f     MOVF      0x7f,0x0,0x1                                                                                    
0027a8   6e2d     MOVWF     0x2d,0x0                                                                                        
0027aa   6a2e     CLRF      0x2e,0x0                                                                                        
0027ac   502e     MOVF      0x2e,0x0,0x0                                                                                    
0027ae   0a00     XORLW     0x0                                                                                             
0027b0   aee8     BTFSS     0xe8,0x7,0x0                                                                                    
0027b2   d002     BRA       0x27b8                                                                                          
0027b4   342e     RLCF      0x2e,0x0,0x0                                                                                    
0027b6   d005     BRA       0x27c2                                                                                          
0027b8   0eff     MOVLW     0xff                                                                                            
0027ba   80d8     BSF       0xd8,0x0,0x0                                                                                    
0027bc   542d     SUBFWB    0x2d,0x0,0x0                                                                                    
0027be   0e00     MOVLW     0x0                                                                                             
0027c0   542e     SUBFWB    0x2e,0x0,0x0                                                                                    
0027c2   e304     BNC       0x27cc                                                                                          
                                               {                     /* Joystick is in full forward position */             C:\FrcCode\user_routines.c
0027c4   0107     MOVLB     0x7                  Pwm2_green  = 1;    /* Turn PWM2 green LED - ON  */                        C:\FrcCode\user_routines.c
0027c6   8558     BSF       0x58,0x2,0x1                                                                                    
0027c8   9758     BCF       0x58,0x3,0x1         Pwm2_red  = 0;      /* Turn PWM2 red LED   - OFF */                        C:\FrcCode\user_routines.c
                                               }                                                                            C:\FrcCode\user_routines.c
0027ca   d003     BRA       0x27d2             else                                                                         C:\FrcCode\user_routines.c
                                               {                     /* In either forward or reverse position */            C:\FrcCode\user_routines.c
0027cc   0107     MOVLB     0x7                  Pwm2_green  = 0;    /* Turn PWM2 green LED - OFF */                        C:\FrcCode\user_routines.c
0027ce   9558     BCF       0x58,0x2,0x1                                                                                    
0027d0   9758     BCF       0x58,0x3,0x1         Pwm2_red  = 0;      /* Turn PWM2 red LED   - OFF */                        C:\FrcCode\user_routines.c
                                               }  /* END Check position of Port 2 Joystick */                               C:\FrcCode\user_routines.c
                                                                                                                            C:\FrcCode\user_routines.c
                                               /* This drives the Relay 1 and Relay 2 "Robot Feedback" lights on the OI. */ C:\FrcCode\user_routines.c
0027d2   9b58     BCF       0x58,0x5,0x1       Relay1_green = relay1_fwd;    /* LED is ON when Relay 1 is FWD */            C:\FrcCode\user_routines.c
0027d4   508c     MOVF      0x8c,0x0,0x0                                                                                    
0027d6   0b01     ANDLW     0x1                                                                                             
0027d8   e001     BZ        0x27dc                                                                                          
0027da   8b58     BSF       0x58,0x5,0x1                                                                                    
0027dc   9958     BCF       0x58,0x4,0x1       Relay1_red = relay1_rev;      /* LED is ON when Relay 1 is REV */            C:\FrcCode\user_routines.c
0027de   508d     MOVF      0x8d,0x0,0x0                                                                                    
0027e0   0b01     ANDLW     0x1                                                                                             
0027e2   e001     BZ        0x27e6                                                                                          
0027e4   8958     BSF       0x58,0x4,0x1                                                                                    
0027e6   9f58     BCF       0x58,0x7,0x1       Relay2_green = relay2_fwd;    /* LED is ON when Relay 2 is FWD */            C:\FrcCode\user_routines.c
0027e8   508c     MOVF      0x8c,0x0,0x0                                                                                    
0027ea   0b02     ANDLW     0x2                                                                                             
0027ec   e001     BZ        0x27f0                                                                                          
0027ee   8f58     BSF       0x58,0x7,0x1                                                                                    
0027f0   9d58     BCF       0x58,0x6,0x1       Relay2_red = relay2_rev;      /* LED is ON when Relay 2 is REV */            C:\FrcCode\user_routines.c
0027f2   508d     MOVF      0x8d,0x0,0x0                                                                                    
0027f4   0b02     ANDLW     0x2                                                                                             
0027f6   e001     BZ        0x27fa                                                                                          
0027f8   8d58     BSF       0x58,0x6,0x1                                                                                    
                                                                                                                            C:\FrcCode\user_routines.c
0027fa   5081     MOVF      0x81,0x0,0x0       Switch1_LED = !(int)rc_dig_in01;                                             C:\FrcCode\user_routines.c
0027fc   0b04     ANDLW     0x4                                                                                             
0027fe   e001     BZ        0x2802                                                                                          
002800   0e01     MOVLW     0x1                                                                                             
002802   6e2b     MOVWF     0x2b,0x0                                                                                        
002804   6a2c     CLRF      0x2c,0x0                                                                                        
002806   502b     MOVF      0x2b,0x0,0x0                                                                                    
002808   102c     IORWF     0x2c,0x0,0x0                                                                                    
00280a   e002     BZ        0x2810                                                                                          
00280c   0e00     MOVLW     0x0                                                                                             
00280e   d001     BRA       0x2812                                                                                          
002810   0e01     MOVLW     0x1                                                                                             
002812   0b01     ANDLW     0x1                                                                                             
002814   6ef3     MOVWF     0xf3,0x0                                                                                        
002816   0efe     MOVLW     0xfe                                                                                            
002818   1559     ANDWF     0x59,0x0,0x1                                                                                    
00281a   10f3     IORWF     0xf3,0x0,0x0                                                                                    
00281c   6f59     MOVWF     0x59,0x1                                                                                        
00281e   5081     MOVF      0x81,0x0,0x0       Switch2_LED = !(int)rc_dig_in02;                                             C:\FrcCode\user_routines.c
002820   0b08     ANDLW     0x8                                                                                             
002822   e001     BZ        0x2826                                                                                          
002824   0e01     MOVLW     0x1                                                                                             
002826   6e2b     MOVWF     0x2b,0x0                                                                                        
002828   6a2c     CLRF      0x2c,0x0                                                                                        
00282a   502b     MOVF      0x2b,0x0,0x0                                                                                    
00282c   102c     IORWF     0x2c,0x0,0x0                                                                                    
00282e   e002     BZ        0x2834                                                                                          
002830   0e00     MOVLW     0x0                                                                                             
002832   d001     BRA       0x2836                                                                                          
002834   0e01     MOVLW     0x1                                                                                             
002836   0b01     ANDLW     0x1                                                                                             
002838   6ef3     MOVWF     0xf3,0x0                                                                                        
00283a   46f3     RLNCF     0xf3,0x1,0x0                                                                                    
00283c   0efd     MOVLW     0xfd                                                                                            
00283e   1559     ANDWF     0x59,0x0,0x1                                                                                    
002840   10f3     IORWF     0xf3,0x0,0x0                                                                                    
002842   6f59     MOVWF     0x59,0x1                                                                                        
002844   5081     MOVF      0x81,0x0,0x0       Switch3_LED = !(int)rc_dig_in03;                                             C:\FrcCode\user_routines.c
002846   0b10     ANDLW     0x10                                                                                            
002848   e001     BZ        0x284c                                                                                          
00284a   0e01     MOVLW     0x1                                                                                             
00284c   6e2b     MOVWF     0x2b,0x0                                                                                        
00284e   6a2c     CLRF      0x2c,0x0                                                                                        
002850   502b     MOVF      0x2b,0x0,0x0                                                                                    
002852   102c     IORWF     0x2c,0x0,0x0                                                                                    
002854   e002     BZ        0x285a                                                                                          
002856   0e00     MOVLW     0x0                                                                                             
002858   d001     BRA       0x285c                                                                                          
00285a   0e01     MOVLW     0x1                                                                                             
00285c   0b01     ANDLW     0x1                                                                                             
00285e   6ef3     MOVWF     0xf3,0x0                                                                                        
002860   46f3     RLNCF     0xf3,0x1,0x0                                                                                    
002862   46f3     RLNCF     0xf3,0x1,0x0                                                                                    
002864   0efb     MOVLW     0xfb                                                                                            
002866   1559     ANDWF     0x59,0x0,0x1                                                                                    
002868   10f3     IORWF     0xf3,0x0,0x0                                                                                    
00286a   6f59     MOVWF     0x59,0x1                                                                                        
                                                                                                                            C:\FrcCode\user_routines.c
                                             } /* (user_display_mode = 0) (User Mode is Off) */                             C:\FrcCode\user_routines.c
                                                                                                                            C:\FrcCode\user_routines.c
00286c   d051     BRA       0x2910           else  /* User Mode is On - displays data in OI 4-digit display*/               C:\FrcCode\user_routines.c
                                             {                                                                              C:\FrcCode\user_routines.c
00286e   c78f     MOVFF     0x78f,0x1e         User_Mode_byte = backup_voltage*10; /* so that decimal doesn't get truncated. */ C:\FrcCode\user_routines.c
002870   f01e                                                                                                               
002872   ec8b     CALL      0x1916,0x0                                                                                      
002874   f00c                                                                                                               
002876   c01c     MOVFF     0x1c,0x33                                                                                       
002878   f033                                                                                                               
00287a   c01d     MOVFF     0x1d,0x34                                                                                       
00287c   f034                                                                                                               
00287e   c01e     MOVFF     0x1e,0x35                                                                                       
002880   f035                                                                                                               
002882   c01f     MOVFF     0x1f,0x36                                                                                       
002884   f036                                                                                                               
002886   0e71     MOVLW     0x71                                                                                            
002888   6e21     MOVWF     0x21,0x0                                                                                        
00288a   0e3d     MOVLW     0x3d                                                                                            
00288c   6e22     MOVWF     0x22,0x0                                                                                        
00288e   0e7a     MOVLW     0x7a                                                                                            
002890   6e23     MOVWF     0x23,0x0                                                                                        
002892   0e82     MOVLW     0x82                                                                                            
002894   6e24     MOVWF     0x24,0x0                                                                                        
002896   c033     MOVFF     0x33,0x1c                                                                                       
002898   f01c                                                                                                               
00289a   c034     MOVFF     0x34,0x1d                                                                                       
00289c   f01d                                                                                                               
00289e   c035     MOVFF     0x35,0x1e                                                                                       
0028a0   f01e                                                                                                               
0028a2   c036     MOVFF     0x36,0x1f                                                                                       
0028a4   f01f                                                                                                               
0028a6   ec47     CALL      0x1e8e,0x0                                                                                      
0028a8   f00f                                                                                                               
0028aa   c01c     MOVFF     0x1c,0x2f                                                                                       
0028ac   f02f                                                                                                               
0028ae   c01d     MOVFF     0x1d,0x30                                                                                       
0028b0   f030                                                                                                               
0028b2   c01e     MOVFF     0x1e,0x31                                                                                       
0028b4   f031                                                                                                               
0028b6   c01f     MOVFF     0x1f,0x32                                                                                       
0028b8   f032                                                                                                               
0028ba   6a21     CLRF      0x21,0x0                                                                                        
0028bc   6a22     CLRF      0x22,0x0                                                                                        
0028be   6a23     CLRF      0x23,0x0                                                                                        
0028c0   0e87     MOVLW     0x87                                                                                            
0028c2   6e24     MOVWF     0x24,0x0                                                                                        
0028c4   c02f     MOVFF     0x2f,0x1c                                                                                       
0028c6   f01c                                                                                                               
0028c8   c030     MOVFF     0x30,0x1d                                                                                       
0028ca   f01d                                                                                                               
0028cc   c031     MOVFF     0x31,0x1e                                                                                       
0028ce   f01e                                                                                                               
0028d0   c032     MOVFF     0x32,0x1f                                                                                       
0028d2   f01f                                                                                                               
0028d4   ecc0     CALL      0x1980,0x0                                                                                      
0028d6   f00c                                                                                                               
0028d8   c01c     MOVFF     0x1c,0x2b                                                                                       
0028da   f02b                                                                                                               
0028dc   c01d     MOVFF     0x1d,0x2c                                                                                       
0028de   f02c                                                                                                               
0028e0   c01e     MOVFF     0x1e,0x2d                                                                                       
0028e2   f02d                                                                                                               
0028e4   c01f     MOVFF     0x1f,0x2e                                                                                       
0028e6   f02e                                                                                                               
0028e8   6a21     CLRF      0x21,0x0                                                                                        
0028ea   6a22     CLRF      0x22,0x0                                                                                        
0028ec   0e20     MOVLW     0x20                                                                                            
0028ee   6e23     MOVWF     0x23,0x0                                                                                        
0028f0   0e82     MOVLW     0x82                                                                                            
0028f2   6e24     MOVWF     0x24,0x0                                                                                        
0028f4   c02b     MOVFF     0x2b,0x1c                                                                                       
0028f6   f01c                                                                                                               
0028f8   c02c     MOVFF     0x2c,0x1d                                                                                       
0028fa   f01d                                                                                                               
0028fc   c02d     MOVFF     0x2d,0x1e                                                                                       
0028fe   f01e                                                                                                               
002900   c02e     MOVFF     0x2e,0x1f                                                                                       
002902   f01f                                                                                                               
002904   ec47     CALL      0x1e8e,0x0                                                                                      
002906   f00f                                                                                                               
002908   ecf8     CALL      0x1ff0,0x0                                                                                      
00290a   f00f                                                                                                               
00290c   c01e     MOVFF     0x1e,0x758                                                                                      
00290e   f758                                                                                                               
                                             }                                                                              C:\FrcCode\user_routines.c
                                                                                                                            C:\FrcCode\user_routines.c
002910   c77f     MOVFF     0x77f,0x75d    pwm02 = p2_y;                                                                    C:\FrcCode\user_routines.c
002912   f75d                                                                                                               
002914   c781     MOVFF     0x781,0x75f    pwm04 = p4_y;                                                                    C:\FrcCode\user_routines.c
002916   f75f                                                                                                               
                                                                                                                            C:\FrcCode\user_routines.c
002918   0012     RETURN    0x0            } /* END Default_Routine(); */                                                   C:\FrcCode\user_routines.c
                                                                                                                            C:\FrcCode\user_routines.c
                                                                                                                            C:\FrcCode\user_routines.c
                                           /******************************************************************************/ C:\FrcCode\user_routines.c
                                           /******************************************************************************/ C:\FrcCode\user_routines.c
                                           /******************************************************************************/ C:\FrcCode\user_routines.c
                                           /******************************************************************************* C:\FrcCode\printf_lib.c
                                           * FILE NAME: printf_lib.c                                                        C:\FrcCode\printf_lib.c
                                           *                                                                                C:\FrcCode\printf_lib.c
                                           * DESCRIPTION:                                                                   C:\FrcCode\printf_lib.c
                                           *  This file contains generic routines that work like the standard C I/O library. C:\FrcCode\printf_lib.c
                                           *  These unsupported routines have been modified to work with the Microchip      C:\FrcCode\printf_lib.c
                                           *  C compiler.  The printf routine is limited as follows:                        C:\FrcCode\printf_lib.c
                                           *                                                                                C:\FrcCode\printf_lib.c
                                           *  1.  Only the %s, %lx, %d, %x, %u, %X directives are parsed.  An additional %b  C:\FrcCode\printf_lib.c
                                           *      directive is parsed for those who like to view data in binary (base 2).   C:\FrcCode\printf_lib.c
                                           *                                                                                C:\FrcCode\printf_lib.c
                                           *      Examples:                                                                 C:\FrcCode\printf_lib.c
                                           *                                                                                C:\FrcCode\printf_lib.c
                                           *            rom const char *StrPtr = "Hello world!";                            C:\FrcCode\printf_lib.c
                                           *            int x = 15;                                                         C:\FrcCode\printf_lib.c
                                           *            int y = 0x50;                                                       C:\FrcCode\printf_lib.c
                                           *            long z = 0xdeadface;                                                C:\FrcCode\printf_lib.c
                                           *                                                                                C:\FrcCode\printf_lib.c
                                           *            printf("%s\n",StrPtr);                         will display 'Hello world!' C:\FrcCode\printf_lib.c
                                           *                                                                                C:\FrcCode\printf_lib.c
                                           *            printf("X = %d, Y = %x, Z = %lx\n",x,y,z);     will display 'X = 15, Y = 0x50, Z = deadface' C:\FrcCode\printf_lib.c
                                           *                                                                                C:\FrcCode\printf_lib.c
                                           *            printf("X = %b (base 2)\n",x);                 will display 'X = 1111 (base 2)' C:\FrcCode\printf_lib.c
                                           *                                                                                C:\FrcCode\printf_lib.c
                                           *            printf("X = %16b\n",x);                        will display 'X = 0000000000001111' C:\FrcCode\printf_lib.c
                                           *                                                                                C:\FrcCode\printf_lib.c
                                           *            printf("X = %04x\n",x);                        will display 'X = 000f' C:\FrcCode\printf_lib.c
                                           *                                                                                C:\FrcCode\printf_lib.c
                                           *  2.  All bytes (8 bits) or bit references (rc_dig_in01) must be type-cast to a   C:\FrcCode\printf_lib.c
                                           *      16 bit word.  The %c directive is unsupported.                            C:\FrcCode\printf_lib.c
                                           *                                                                                C:\FrcCode\printf_lib.c
                                           *      Examples:                                                                 C:\FrcCode\printf_lib.c
                                           *                                                                                C:\FrcCode\printf_lib.c
                                           *            unsigned char byte1 = 0xfa;                                         C:\FrcCode\printf_lib.c
                                           *            char byte2 = 25;                                                    C:\FrcCode\printf_lib.c
                                           *                                                                                C:\FrcCode\printf_lib.c
                                           *            printf("1st byte = %x, 2nd byte = %d\n",(int)byte1,(int)byte2);     C:\FrcCode\printf_lib.c
                                           *                                                           will display '1st byte = fa, 2nd byte = 25 C:\FrcCode\printf_lib.c
                                           *            if (rc_dig_in01)                                                    C:\FrcCode\printf_lib.c
                                           *              printf("On %d\n",(int)rc_dig_in01);          will display 'On 1'  C:\FrcCode\printf_lib.c
                                           *            else                                                                C:\FrcCode\printf_lib.c
                                           *              printf("Off %d\n",(int)rc_dig_in01);         will display 'Off 0' C:\FrcCode\printf_lib.c
                                           *                                                                                C:\FrcCode\printf_lib.c
                                           *  3.  The %s directive only supports a string of 40 bytes and the format string C:\FrcCode\printf_lib.c
                                           *      may not exceed 80 bytes.  The sprintf routine is not included.  Keep in   C:\FrcCode\printf_lib.c
                                           *      mind that the stack size has a 256 byte limit.                            C:\FrcCode\printf_lib.c
                                           *                                                                                C:\FrcCode\printf_lib.c
                                           * USAGE:                                                                         C:\FrcCode\printf_lib.c
                                           *  These library routines  may be modified to suit the needs of the user.        C:\FrcCode\printf_lib.c
                                           *******************************************************************************/ C:\FrcCode\printf_lib.c
                                                                                                                            C:\FrcCode\printf_lib.c
                                           #include "ifi_default.h"                                                         C:\FrcCode\printf_lib.c
                                           #include "printf_lib.h"                                                          C:\FrcCode\printf_lib.c
                                           #include "ifi_utilities.h"                                                       C:\FrcCode\printf_lib.c
                                           #include "string.h"                                                              C:\FrcCode\printf_lib.c
                                                                                                                            C:\FrcCode\printf_lib.c
                                           /* the following should be enough for a 32 bit word */                           C:\FrcCode\printf_lib.c
                                           #define PRINT_BUF_LEN 20                                                         C:\FrcCode\printf_lib.c
                                                                                                                            C:\FrcCode\printf_lib.c
                                           extern char ifi_printfBufr[]; /* declared in ifi_utilities.c */                  C:\FrcCode\printf_lib.c
                                           rom char *nullStr = "(null)";                                                    C:\FrcCode\printf_lib.c
                                                                                                                            C:\FrcCode\printf_lib.c
                                           static char print_buf[PRINT_BUF_LEN];                                            C:\FrcCode\printf_lib.c
                                           static char scr[2];                                                              C:\FrcCode\printf_lib.c
                                           static int  k;                                                                   C:\FrcCode\printf_lib.c
                                                                                                                            C:\FrcCode\printf_lib.c
                                           /******************************************************************************* C:\FrcCode\printf_lib.c
                                           * SUBROUTINE NAME: Write_Byte_To_Uart                                            C:\FrcCode\printf_lib.c
                                           * PURPOSE:       Writes a byte to the UART.                                      C:\FrcCode\printf_lib.c
                                           *     Argument       Type           IO   Description                             C:\FrcCode\printf_lib.c
                                           *     --------       -----------    --   -----------                             C:\FrcCode\printf_lib.c
                                           *         data       int            I    data to transmit to the UART            C:\FrcCode\printf_lib.c
                                           * RETURNS:       void                                                            C:\FrcCode\printf_lib.c
                                           *******************************************************************************/ C:\FrcCode\printf_lib.c
                                                                                                                            C:\FrcCode\printf_lib.c
0008d4   cfd9     MOVFF     0xfd9,0xfe6    static void Write_Byte_To_Uart(int data)                                         C:\FrcCode\printf_lib.c
0008d6   ffe6                                                                                                               
0008d8   cfe1     MOVFF     0xfe1,0xfd9                                                                                     
0008da   ffd9                                                                                                               
                                           {                                                                                C:\FrcCode\printf_lib.c
0008dc   0efd     MOVLW     0xfd             TXREG = data;  /* a carriage return */                                         C:\FrcCode\printf_lib.c
0008de   50db     MOVF      0xdb,0x0,0x0                                                                                    
0008e0   6ead     MOVWF     0xad,0x0                                                                                        
0008e2   ecd8     CALL      0x2db0,0x0       Wait4TXEmpty();                                                                C:\FrcCode\printf_lib.c
0008e4   f016                                                                                                               
0008e6   52e5     MOVF      0xe5,0x1,0x0   }                                                                                C:\FrcCode\printf_lib.c
0008e8   cfe7     MOVFF     0xfe7,0xfd9                                                                                     
0008ea   ffd9                                                                                                               
0008ec   0012     RETURN    0x0                                                                                             
                                                                                                                            C:\FrcCode\printf_lib.c
                                           #define PAD_RIGHT 1                                                              C:\FrcCode\printf_lib.c
                                           #define PAD_ZERO  2                                                              C:\FrcCode\printf_lib.c
                                                                                                                            C:\FrcCode\printf_lib.c
                                           /******************************************************************************* C:\FrcCode\printf_lib.c
                                           * FUNCTION NAME: prints                                                          C:\FrcCode\printf_lib.c
                                           * PURPOSE:       Pads the output stream.                                         C:\FrcCode\printf_lib.c
                                           * RETURNS:       void                                                            C:\FrcCode\printf_lib.c
                                           *******************************************************************************/ C:\FrcCode\printf_lib.c
                                                                                                                            C:\FrcCode\printf_lib.c
0008ee   cfd9     MOVFF     0xfd9,0xfe6    static int prints(char *string, int width, int pad)                              C:\FrcCode\printf_lib.c
0008f0   ffe6                                                                                                               
0008f2   cfe1     MOVFF     0xfe1,0xfd9                                                                                     
0008f4   ffd9                                                                                                               
0008f6   0e08     MOVLW     0x8                                                                                             
0008f8   26e1     ADDWF     0xe1,0x1,0x0                                                                                    
                                           {                                                                                C:\FrcCode\printf_lib.c
0008fa   6ade     CLRF      0xde,0x0       	register int pc = 0, padchar = ' ';                                             C:\FrcCode\printf_lib.c
0008fc   6add     CLRF      0xdd,0x0                                                                                        
0008fe   0e20     MOVLW     0x20                                                                                            
000900   6ef3     MOVWF     0xf3,0x0                                                                                        
000902   0e02     MOVLW     0x2                                                                                             
000904   cff3     MOVFF     0xff3,0xfdb                                                                                     
000906   ffdb                                                                                                               
000908   0e03     MOVLW     0x3                                                                                             
00090a   6adb     CLRF      0xdb,0x0                                                                                        
                                                                                                                            C:\FrcCode\printf_lib.c
00090c   0efb     MOVLW     0xfb           	if (width > 0) {                                                                C:\FrcCode\printf_lib.c
00090e   cfdb     MOVFF     0xfdb,0x2b                                                                                      
000910   f02b                                                                                                               
000912   0efc     MOVLW     0xfc                                                                                            
000914   cfdb     MOVFF     0xfdb,0x2c                                                                                      
000916   f02c                                                                                                               
000918   502c     MOVF      0x2c,0x0,0x0                                                                                    
00091a   0a00     XORLW     0x0                                                                                             
00091c   aee8     BTFSS     0xe8,0x7,0x0                                                                                    
00091e   d002     BRA       0x924                                                                                           
000920   342c     RLCF      0x2c,0x0,0x0                                                                                    
000922   d005     BRA       0x92e                                                                                           
000924   0e00     MOVLW     0x0                                                                                             
000926   80d8     BSF       0xd8,0x0,0x0                                                                                    
000928   542b     SUBFWB    0x2b,0x0,0x0                                                                                    
00092a   0e00     MOVLW     0x0                                                                                             
00092c   542c     SUBFWB    0x2c,0x0,0x0                                                                                    
00092e   e25a     BC        0x9e4                                                                                           
000930   0e04     MOVLW     0x4            		register int len = 0;                                                          C:\FrcCode\printf_lib.c
000932   6adb     CLRF      0xdb,0x0                                                                                        
000934   0e05     MOVLW     0x5                                                                                             
000936   6adb     CLRF      0xdb,0x0                                                                                        
                                           		register char *ptr;                                                            C:\FrcCode\printf_lib.c
000938   0efd     MOVLW     0xfd           		for (ptr = string; *ptr; ++ptr) ++len;                                         C:\FrcCode\printf_lib.c
00093a   cfdb     MOVFF     0xfdb,0x1d                                                                                      
00093c   f01d                                                                                                               
00093e   0efe     MOVLW     0xfe                                                                                            
000940   cfdb     MOVFF     0xfdb,0x1e                                                                                      
000942   f01e                                                                                                               
000944   0e06     MOVLW     0x6                                                                                             
000946   c01d     MOVFF     0x1d,0xfdb                                                                                      
000948   ffdb                                                                                                               
00094a   0e07     MOVLW     0x7                                                                                             
00094c   c01e     MOVFF     0x1e,0xfdb                                                                                      
00094e   ffdb                                                                                                               
000950   0e06     MOVLW     0x6                                                                                             
000952   cfdb     MOVFF     0xfdb,0xfe9                                                                                     
000954   ffe9                                                                                                               
000956   0e07     MOVLW     0x7                                                                                             
000958   cfdb     MOVFF     0xfdb,0xfea                                                                                     
00095a   ffea                                                                                                               
00095c   50ef     MOVF      0xef,0x0,0x0                                                                                    
00095e   e00b     BZ        0x976                                                                                           
000960   0e04     MOVLW     0x4                                                                                             
000962   2adb     INCF      0xdb,0x1,0x0                                                                                    
000964   0e05     MOVLW     0x5                                                                                             
000966   e301     BNC       0x96a                                                                                           
000968   2adb     INCF      0xdb,0x1,0x0                                                                                    
00096a   0e06     MOVLW     0x6                                                                                             
00096c   2adb     INCF      0xdb,0x1,0x0                                                                                    
00096e   0e07     MOVLW     0x7                                                                                             
000970   e301     BNC       0x974                                                                                           
000972   2adb     INCF      0xdb,0x1,0x0                                                                                    
000974   d7ed     BRA       0x950                                                                                           
000976   0e04     MOVLW     0x4            		if (len >= width) width = 0;                                                   C:\FrcCode\printf_lib.c
000978   cfdb     MOVFF     0xfdb,0x2b                                                                                      
00097a   f02b                                                                                                               
00097c   0e05     MOVLW     0x5                                                                                             
00097e   cfdb     MOVFF     0xfdb,0x2c                                                                                      
000980   f02c                                                                                                               
000982   0efb     MOVLW     0xfb                                                                                            
000984   cfdb     MOVFF     0xfdb,0x2d                                                                                      
000986   f02d                                                                                                               
000988   0efc     MOVLW     0xfc                                                                                            
00098a   cfdb     MOVFF     0xfdb,0x2e                                                                                      
00098c   f02e                                                                                                               
00098e   502c     MOVF      0x2c,0x0,0x0                                                                                    
000990   182e     XORWF     0x2e,0x0,0x0                                                                                    
000992   aee8     BTFSS     0xe8,0x7,0x0                                                                                    
000994   d002     BRA       0x99a                                                                                           
000996   342e     RLCF      0x2e,0x0,0x0                                                                                    
000998   d004     BRA       0x9a2                                                                                           
00099a   502d     MOVF      0x2d,0x0,0x0                                                                                    
00099c   5c2b     SUBWF     0x2b,0x0,0x0                                                                                    
00099e   502e     MOVF      0x2e,0x0,0x0                                                                                    
0009a0   582c     SUBWFB    0x2c,0x0,0x0                                                                                    
0009a2   e305     BNC       0x9ae                                                                                           
0009a4   0efb     MOVLW     0xfb                                                                                            
0009a6   6adb     CLRF      0xdb,0x0                                                                                        
0009a8   0efc     MOVLW     0xfc                                                                                            
0009aa   6adb     CLRF      0xdb,0x0                                                                                        
0009ac   d010     BRA       0x9ce          		else width -= len;                                                             C:\FrcCode\printf_lib.c
0009ae   0e04     MOVLW     0x4                                                                                             
0009b0   cfdb     MOVFF     0xfdb,0x2b                                                                                      
0009b2   f02b                                                                                                               
0009b4   0e05     MOVLW     0x5                                                                                             
0009b6   cfdb     MOVFF     0xfdb,0x2c                                                                                      
0009b8   f02c                                                                                                               
0009ba   50d9     MOVF      0xd9,0x0,0x0                                                                                    
0009bc   0ffb     ADDLW     0xfb                                                                                            
0009be   6ee9     MOVWF     0xe9,0x0                                                                                        
0009c0   0eff     MOVLW     0xff                                                                                            
0009c2   20da     ADDWFC    0xda,0x0,0x0                                                                                    
0009c4   6eea     MOVWF     0xea,0x0                                                                                        
0009c6   502b     MOVF      0x2b,0x0,0x0                                                                                    
0009c8   5eee     SUBWF     0xee,0x1,0x0                                                                                    
0009ca   502c     MOVF      0x2c,0x0,0x0                                                                                    
0009cc   5aed     SUBWFB    0xed,0x1,0x0                                                                                    
0009ce   0ef9     MOVLW     0xf9           		if (pad & PAD_ZERO) padchar = '0';                                             C:\FrcCode\printf_lib.c
0009d0   50db     MOVF      0xdb,0x0,0x0                                                                                    
0009d2   0b02     ANDLW     0x2                                                                                             
0009d4   e007     BZ        0x9e4                                                                                           
0009d6   0e30     MOVLW     0x30                                                                                            
0009d8   6ef3     MOVWF     0xf3,0x0                                                                                        
0009da   0e02     MOVLW     0x2                                                                                             
0009dc   cff3     MOVFF     0xff3,0xfdb                                                                                     
0009de   ffdb                                                                                                               
0009e0   0e03     MOVLW     0x3                                                                                             
0009e2   6adb     CLRF      0xdb,0x0                                                                                        
                                           	}                                                                               C:\FrcCode\printf_lib.c
0009e4   0ef9     MOVLW     0xf9           	if (!(pad & PAD_RIGHT)) {                                                       C:\FrcCode\printf_lib.c
0009e6   50db     MOVF      0xdb,0x0,0x0                                                                                    
0009e8   0b01     ANDLW     0x1                                                                                             
0009ea   e125     BNZ       0xa36                                                                                           
0009ec   0efb     MOVLW     0xfb           		for ( ; width > 0; --width) {                                                  C:\FrcCode\printf_lib.c
0009ee   cfdb     MOVFF     0xfdb,0x2b                                                                                      
0009f0   f02b                                                                                                               
0009f2   0efc     MOVLW     0xfc                                                                                            
0009f4   cfdb     MOVFF     0xfdb,0x2c                                                                                      
0009f6   f02c                                                                                                               
0009f8   502c     MOVF      0x2c,0x0,0x0                                                                                    
0009fa   0a00     XORLW     0x0                                                                                             
0009fc   aee8     BTFSS     0xe8,0x7,0x0                                                                                    
0009fe   d002     BRA       0xa04                                                                                           
000a00   342c     RLCF      0x2c,0x0,0x0                                                                                    
000a02   d005     BRA       0xa0e                                                                                           
000a04   0e00     MOVLW     0x0                                                                                             
000a06   80d8     BSF       0xd8,0x0,0x0                                                                                    
000a08   542b     SUBFWB    0x2b,0x0,0x0                                                                                    
000a0a   0e00     MOVLW     0x0                                                                                             
000a0c   542c     SUBFWB    0x2c,0x0,0x0                                                                                    
000a0e   e213     BC        0xa36                                                                                           
000a2a   0efb     MOVLW     0xfb                                                                                            
000a2c   06db     DECF      0xdb,0x1,0x0                                                                                    
000a2e   0efc     MOVLW     0xfc                                                                                            
000a30   e201     BC        0xa34                                                                                           
000a32   06db     DECF      0xdb,0x1,0x0                                                                                    
000a34   d7db     BRA       0x9ec                                                                                           
000a10   0e02     MOVLW     0x2            			Write_Byte_To_Uart (padchar);                                                 C:\FrcCode\printf_lib.c
000a12   cfdb     MOVFF     0xfdb,0xfe6                                                                                     
000a14   ffe6                                                                                                               
000a16   0e03     MOVLW     0x3                                                                                             
000a18   cfdb     MOVFF     0xfdb,0xfe6                                                                                     
000a1a   ffe6                                                                                                               
000a1c   df5b     RCALL     0x8d4                                                                                           
000a1e   52e5     MOVF      0xe5,0x1,0x0                                                                                    
000a20   52e5     MOVF      0xe5,0x1,0x0                                                                                    
000a22   2adf     INCF      0xdf,0x1,0x0   			++pc;                                                                         C:\FrcCode\printf_lib.c
000a24   0e01     MOVLW     0x1                                                                                             
000a26   e301     BNC       0xa2a                                                                                           
000a28   2adb     INCF      0xdb,0x1,0x0                                                                                    
                                           		}                                                                              C:\FrcCode\printf_lib.c
                                           	}                                                                               C:\FrcCode\printf_lib.c
000a36   0efd     MOVLW     0xfd           	for ( ; *string ; ++string) {                                                   C:\FrcCode\printf_lib.c
000a38   cfdb     MOVFF     0xfdb,0xfe9                                                                                     
000a3a   ffe9                                                                                                               
000a3c   0efe     MOVLW     0xfe                                                                                            
000a3e   cfdb     MOVFF     0xfdb,0xfea                                                                                     
000a40   ffea                                                                                                               
000a42   50ef     MOVF      0xef,0x0,0x0                                                                                    
000a44   e01c     BZ        0xa7e                                                                                           
000a72   0efd     MOVLW     0xfd                                                                                            
000a74   2adb     INCF      0xdb,0x1,0x0                                                                                    
000a76   0efe     MOVLW     0xfe                                                                                            
000a78   e301     BNC       0xa7c                                                                                           
000a7a   2adb     INCF      0xdb,0x1,0x0                                                                                    
000a7c   d7dc     BRA       0xa36                                                                                           
000a46   0efd     MOVLW     0xfd           		Write_Byte_To_Uart (*string);                                                  C:\FrcCode\printf_lib.c
000a48   cfdb     MOVFF     0xfdb,0xfe9                                                                                     
000a4a   ffe9                                                                                                               
000a4c   0efe     MOVLW     0xfe                                                                                            
000a4e   cfdb     MOVFF     0xfdb,0xfea                                                                                     
000a50   ffea                                                                                                               
000a52   cfef     MOVFF     0xfef,0x2b                                                                                      
000a54   f02b                                                                                                               
000a56   6a2c     CLRF      0x2c,0x0                                                                                        
000a58   be2b     BTFSC     0x2b,0x7,0x0                                                                                    
000a5a   682c     SETF      0x2c,0x0                                                                                        
000a5c   c02b     MOVFF     0x2b,0xfe6                                                                                      
000a5e   ffe6                                                                                                               
000a60   c02c     MOVFF     0x2c,0xfe6                                                                                      
000a62   ffe6                                                                                                               
000a64   df37     RCALL     0x8d4                                                                                           
000a66   52e5     MOVF      0xe5,0x1,0x0                                                                                    
000a68   52e5     MOVF      0xe5,0x1,0x0                                                                                    
000a6a   2adf     INCF      0xdf,0x1,0x0   		++pc;                                                                          C:\FrcCode\printf_lib.c
000a6c   0e01     MOVLW     0x1                                                                                             
000a6e   e301     BNC       0xa72                                                                                           
000a70   2adb     INCF      0xdb,0x1,0x0                                                                                    
                                           	}                                                                               C:\FrcCode\printf_lib.c
000a7e   0efb     MOVLW     0xfb           	for ( ; width > 0; --width) {                                                   C:\FrcCode\printf_lib.c
000a80   cfdb     MOVFF     0xfdb,0x2b                                                                                      
000a82   f02b                                                                                                               
000a84   0efc     MOVLW     0xfc                                                                                            
000a86   cfdb     MOVFF     0xfdb,0x2c                                                                                      
000a88   f02c                                                                                                               
000a8a   502c     MOVF      0x2c,0x0,0x0                                                                                    
000a8c   0a00     XORLW     0x0                                                                                             
000a8e   aee8     BTFSS     0xe8,0x7,0x0                                                                                    
000a90   d002     BRA       0xa96                                                                                           
000a92   342c     RLCF      0x2c,0x0,0x0                                                                                    
000a94   d005     BRA       0xaa0                                                                                           
000a96   0e00     MOVLW     0x0                                                                                             
000a98   80d8     BSF       0xd8,0x0,0x0                                                                                    
000a9a   542b     SUBFWB    0x2b,0x0,0x0                                                                                    
000a9c   0e00     MOVLW     0x0                                                                                             
000a9e   542c     SUBFWB    0x2c,0x0,0x0                                                                                    
000aa0   e213     BC        0xac8                                                                                           
000abc   0efb     MOVLW     0xfb                                                                                            
000abe   06db     DECF      0xdb,0x1,0x0                                                                                    
000ac0   0efc     MOVLW     0xfc                                                                                            
000ac2   e201     BC        0xac6                                                                                           
000ac4   06db     DECF      0xdb,0x1,0x0                                                                                    
000ac6   d7db     BRA       0xa7e                                                                                           
000aa2   0e02     MOVLW     0x2            		Write_Byte_To_Uart (padchar);                                                  C:\FrcCode\printf_lib.c
000aa4   cfdb     MOVFF     0xfdb,0xfe6                                                                                     
000aa6   ffe6                                                                                                               
000aa8   0e03     MOVLW     0x3                                                                                             
000aaa   cfdb     MOVFF     0xfdb,0xfe6                                                                                     
000aac   ffe6                                                                                                               
000aae   df12     RCALL     0x8d4                                                                                           
000ab0   52e5     MOVF      0xe5,0x1,0x0                                                                                    
000ab2   52e5     MOVF      0xe5,0x1,0x0                                                                                    
000ab4   2adf     INCF      0xdf,0x1,0x0   		++pc;                                                                          C:\FrcCode\printf_lib.c
000ab6   0e01     MOVLW     0x1                                                                                             
000ab8   e301     BNC       0xabc                                                                                           
000aba   2adb     INCF      0xdb,0x1,0x0                                                                                    
                                           	}                                                                               C:\FrcCode\printf_lib.c
                                                                                                                            C:\FrcCode\printf_lib.c
000ac8   cfde     MOVFF     0xfde,0x2b     	return pc;                                                                      C:\FrcCode\printf_lib.c
000aca   f02b                                                                                                               
000acc   cfdd     MOVFF     0xfdd,0x2c                                                                                      
000ace   f02c                                                                                                               
000ad0   c02b     MOVFF     0x2b,0xff3                                                                                      
000ad2   fff3                                                                                                               
000ad4   c02c     MOVFF     0x2c,0xff4                                                                                      
000ad6   fff4                                                                                                               
000ad8   d000     BRA       0xada                                                                                           
000ada   cfd9     MOVFF     0xfd9,0xfe1    }                                                                                C:\FrcCode\printf_lib.c
000adc   ffe1                                                                                                               
000ade   52e5     MOVF      0xe5,0x1,0x0                                                                                    
000ae0   cfe7     MOVFF     0xfe7,0xfd9                                                                                     
000ae2   ffd9                                                                                                               
000ae4   0012     RETURN    0x0                                                                                             
                                                                                                                            C:\FrcCode\printf_lib.c
                                           /******************************************************************************* C:\FrcCode\printf_lib.c
                                           * FUNCTION NAME: printi                                                          C:\FrcCode\printf_lib.c
                                           * PURPOSE:       Converts the output stream to the proper width and base.        C:\FrcCode\printf_lib.c
                                           * RETURNS:       void                                                            C:\FrcCode\printf_lib.c
                                           *******************************************************************************/ C:\FrcCode\printf_lib.c
                                                                                                                            C:\FrcCode\printf_lib.c
000ae6   cfd9     MOVFF     0xfd9,0xfe6    static int printi(int i, int b, int sg, int width, int pad, int letbase)         C:\FrcCode\printf_lib.c
000ae8   ffe6                                                                                                               
000aea   cfe1     MOVFF     0xfe1,0xfd9                                                                                     
000aec   ffd9                                                                                                               
000aee   0e0a     MOVLW     0xa                                                                                             
000af0   26e1     ADDWF     0xe1,0x1,0x0                                                                                    
                                           {                                                                                C:\FrcCode\printf_lib.c
                                           	register char *s;                                                               C:\FrcCode\printf_lib.c
000af2   0e04     MOVLW     0x4            	register int t, neg = 0, pc = 0;                                                C:\FrcCode\printf_lib.c
000af4   6adb     CLRF      0xdb,0x0                                                                                        
000af6   0e05     MOVLW     0x5                                                                                             
000af8   6adb     CLRF      0xdb,0x0                                                                                        
000afa   0e06     MOVLW     0x6                                                                                             
000afc   6adb     CLRF      0xdb,0x0                                                                                        
000afe   0e07     MOVLW     0x7                                                                                             
000b00   6adb     CLRF      0xdb,0x0                                                                                        
000b02   0efd     MOVLW     0xfd           	register unsigned int u = i;                                                    C:\FrcCode\printf_lib.c
000b04   cfdb     MOVFF     0xfdb,0x1d                                                                                      
000b06   f01d                                                                                                               
000b08   0efe     MOVLW     0xfe                                                                                            
000b0a   cfdb     MOVFF     0xfdb,0x1e                                                                                      
000b0c   f01e                                                                                                               
000b0e   0e08     MOVLW     0x8                                                                                             
000b10   c01d     MOVFF     0x1d,0xfdb                                                                                      
000b12   ffdb                                                                                                               
000b14   0e09     MOVLW     0x9                                                                                             
000b16   c01e     MOVFF     0x1e,0xfdb                                                                                      
000b18   ffdb                                                                                                               
                                                                                                                            C:\FrcCode\printf_lib.c
000b1a   0107     MOVLB     0x7               print_buf[0] = 0xBE;                                                          C:\FrcCode\printf_lib.c
000b1c   0ebe     MOVLW     0xbe                                                                                            
000b1e   6f99     MOVWF     0x99,0x1                                                                                        
000b20   0eef     MOVLW     0xef              print_buf[PRINT_BUF_LEN] = 0xEF;                                              C:\FrcCode\printf_lib.c
000b22   6fad     MOVWF     0xad,0x1                                                                                        
000b24   50d9     MOVF      0xd9,0x0,0x0   	if (i == 0) {                                                                   C:\FrcCode\printf_lib.c
000b26   0ffd     ADDLW     0xfd                                                                                            
000b28   6ee9     MOVWF     0xe9,0x0                                                                                        
000b2a   0eff     MOVLW     0xff                                                                                            
000b2c   20da     ADDWFC    0xda,0x0,0x0                                                                                    
000b2e   6eea     MOVWF     0xea,0x0                                                                                        
000b30   50ee     MOVF      0xee,0x0,0x0                                                                                    
000b32   10ed     IORWF     0xed,0x0,0x0                                                                                    
000b34   e119     BNZ       0xb68                                                                                           
000b36   0e30     MOVLW     0x30           		print_buf[0] = '0';                                                            C:\FrcCode\printf_lib.c
000b38   6f99     MOVWF     0x99,0x1                                                                                        
000b3a   6b9a     CLRF      0x9a,0x1       		print_buf[1] = '\0';                                                           C:\FrcCode\printf_lib.c
000b3c   0ef5     MOVLW     0xf5           		return prints (print_buf, width, pad);                                         C:\FrcCode\printf_lib.c
000b3e   cfdb     MOVFF     0xfdb,0xfe6                                                                                     
000b40   ffe6                                                                                                               
000b42   0ef6     MOVLW     0xf6                                                                                            
000b44   cfdb     MOVFF     0xfdb,0xfe6                                                                                     
000b46   ffe6                                                                                                               
000b48   0ef7     MOVLW     0xf7                                                                                            
000b4a   cfdb     MOVFF     0xfdb,0xfe6                                                                                     
000b4c   ffe6                                                                                                               
000b4e   0ef8     MOVLW     0xf8                                                                                            
000b50   cfdb     MOVFF     0xfdb,0xfe6                                                                                     
000b52   ffe6                                                                                                               
000b54   0e99     MOVLW     0x99                                                                                            
000b56   6ee6     MOVWF     0xe6,0x0                                                                                        
000b58   0e07     MOVLW     0x7                                                                                             
000b5a   6ee6     MOVWF     0xe6,0x0                                                                                        
000b5c   dec8     RCALL     0x8ee                                                                                           
000b5e   6ef5     MOVWF     0xf5,0x0                                                                                        
000b60   0e06     MOVLW     0x6                                                                                             
000b62   5ee1     SUBWF     0xe1,0x1,0x0                                                                                    
000b64   50f5     MOVF      0xf5,0x0,0x0                                                                                    
000b66   d126     BRA       0xdb4                                                                                           
                                           	}                                                                               C:\FrcCode\printf_lib.c
                                                                                                                            C:\FrcCode\printf_lib.c
000b68   50d9     MOVF      0xd9,0x0,0x0   	if (sg && b == 10 && i < 0) {                                                   C:\FrcCode\printf_lib.c
000b6a   0ff9     ADDLW     0xf9                                                                                            
000b6c   6ee9     MOVWF     0xe9,0x0                                                                                        
000b6e   0eff     MOVLW     0xff                                                                                            
000b70   20da     ADDWFC    0xda,0x0,0x0                                                                                    
000b72   6eea     MOVWF     0xea,0x0                                                                                        
000b74   50ee     MOVF      0xee,0x0,0x0                                                                                    
000b76   10ed     IORWF     0xed,0x0,0x0                                                                                    
000b78   e02c     BZ        0xbd2                                                                                           
000b7a   50d9     MOVF      0xd9,0x0,0x0                                                                                    
000b7c   0ffb     ADDLW     0xfb                                                                                            
000b7e   6ee9     MOVWF     0xe9,0x0                                                                                        
000b80   0eff     MOVLW     0xff                                                                                            
000b82   20da     ADDWFC    0xda,0x0,0x0                                                                                    
000b84   6eea     MOVWF     0xea,0x0                                                                                        
000b86   0e0a     MOVLW     0xa                                                                                             
000b88   18ee     XORWF     0xee,0x0,0x0                                                                                    
000b8a   e101     BNZ       0xb8e                                                                                           
000b8c   50ed     MOVF      0xed,0x0,0x0                                                                                    
000b8e   e121     BNZ       0xbd2                                                                                           
000b90   0efd     MOVLW     0xfd                                                                                            
000b92   cfdb     MOVFF     0xfdb,0x2b                                                                                      
000b94   f02b                                                                                                               
000b96   0efe     MOVLW     0xfe                                                                                            
000b98   cfdb     MOVFF     0xfdb,0x2c                                                                                      
000b9a   f02c                                                                                                               
000b9c   0100     MOVLB     0x0                                                                                             
000b9e   0e80     MOVLW     0x80                                                                                            
000ba0   152c     ANDWF     0x2c,0x0,0x1                                                                                    
000ba2   e017     BZ        0xbd2                                                                                           
000ba4   0e01     MOVLW     0x1            		neg = 1;                                                                       C:\FrcCode\printf_lib.c
000ba6   6ef3     MOVWF     0xf3,0x0                                                                                        
000ba8   0e04     MOVLW     0x4                                                                                             
000baa   cff3     MOVFF     0xff3,0xfdb                                                                                     
000bac   ffdb                                                                                                               
000bae   0e05     MOVLW     0x5                                                                                             
000bb0   6adb     CLRF      0xdb,0x0                                                                                        
000bb2   681d     SETF      0x1d,0x0       		u = -i;                                                                        C:\FrcCode\printf_lib.c
000bb4   681e     SETF      0x1e,0x0                                                                                        
000bb6   0efd     MOVLW     0xfd                                                                                            
000bb8   cfdb     MOVFF     0xfdb,0x22                                                                                      
000bba   f022                                                                                                               
000bbc   0efe     MOVLW     0xfe                                                                                            
000bbe   cfdb     MOVFF     0xfdb,0x23                                                                                      
000bc0   f023                                                                                                               
000bc2   eccb     CALL      0x1f96,0x0                                                                                      
000bc4   f00f                                                                                                               
000bc6   0e08     MOVLW     0x8                                                                                             
000bc8   c01b     MOVFF     0x1b,0xfdb                                                                                      
000bca   ffdb                                                                                                               
000bcc   0e09     MOVLW     0x9                                                                                             
000bce   c01c     MOVFF     0x1c,0xfdb                                                                                      
000bd0   ffdb                                                                                                               
                                           	}                                                                               C:\FrcCode\printf_lib.c
                                                                                                                            C:\FrcCode\printf_lib.c
000bd2   0ead     MOVLW     0xad           	s = print_buf + PRINT_BUF_LEN-1;                                                C:\FrcCode\printf_lib.c
000bd4   6e2b     MOVWF     0x2b,0x0                                                                                        
000bd6   0e07     MOVLW     0x7                                                                                             
000bd8   6e2c     MOVWF     0x2c,0x0                                                                                        
000bda   062b     DECF      0x2b,0x1,0x0                                                                                    
000bdc   0e00     MOVLW     0x0                                                                                             
000bde   5a2c     SUBWFB    0x2c,0x1,0x0                                                                                    
000be0   c02b     MOVFF     0x2b,0xfde                                                                                      
000be2   ffde                                                                                                               
000be4   c02c     MOVFF     0x2c,0xfdd                                                                                      
000be6   ffdd                                                                                                               
000be8   cfde     MOVFF     0xfde,0xfe9    	*s = '\0';                                                                      C:\FrcCode\printf_lib.c
000bea   ffe9                                                                                                               
000bec   cfdd     MOVFF     0xfdd,0xfea                                                                                     
000bee   ffea                                                                                                               
000bf0   6aef     CLRF      0xef,0x0                                                                                        
                                                                                                                            C:\FrcCode\printf_lib.c
000bf2   50d9     MOVF      0xd9,0x0,0x0   	while (u) {                                                                     C:\FrcCode\printf_lib.c
000bf4   0f08     ADDLW     0x8                                                                                             
000bf6   6ee9     MOVWF     0xe9,0x0                                                                                        
000bf8   cfda     MOVFF     0xfda,0xfea                                                                                     
000bfa   ffea                                                                                                               
000bfc   50ee     MOVF      0xee,0x0,0x0                                                                                    
000bfe   10ed     IORWF     0xed,0x0,0x0                                                                                    
000c00   e072     BZ        0xce6                                                                                           
000ce4   d786     BRA       0xbf2                                                                                           
000c02   0e08     MOVLW     0x8            		t = u % b;                                                                     C:\FrcCode\printf_lib.c
000c04   cfdb     MOVFF     0xfdb,0x1d                                                                                      
000c06   f01d                                                                                                               
000c08   0e09     MOVLW     0x9                                                                                             
000c0a   cfdb     MOVFF     0xfdb,0x1e                                                                                      
000c0c   f01e                                                                                                               
000c0e   0efb     MOVLW     0xfb                                                                                            
000c10   cfdb     MOVFF     0xfdb,0x22                                                                                      
000c12   f022                                                                                                               
000c14   0efc     MOVLW     0xfc                                                                                            
000c16   cfdb     MOVFF     0xfdb,0x23                                                                                      
000c18   f023                                                                                                               
000c1a   ec60     CALL      0x34c0,0x0                                                                                      
000c1c   f01a                                                                                                               
000c1e   0e02     MOVLW     0x2                                                                                             
000c20   c019     MOVFF     0x19,0xfdb                                                                                      
000c22   ffdb                                                                                                               
000c24   0e03     MOVLW     0x3                                                                                             
000c26   c01a     MOVFF     0x1a,0xfdb                                                                                      
000c28   ffdb                                                                                                               
000c2a   0e02     MOVLW     0x2            		if( t >= 10 )                                                                  C:\FrcCode\printf_lib.c
000c2c   cfdb     MOVFF     0xfdb,0x2b                                                                                      
000c2e   f02b                                                                                                               
000c30   0e03     MOVLW     0x3                                                                                             
000c32   cfdb     MOVFF     0xfdb,0x2c                                                                                      
000c34   f02c                                                                                                               
000c36   502c     MOVF      0x2c,0x0,0x0                                                                                    
000c38   0a00     XORLW     0x0                                                                                             
000c3a   aee8     BTFSS     0xe8,0x7,0x0                                                                                    
000c3c   d002     BRA       0xc42                                                                                           
000c3e   90d8     BCF       0xd8,0x0,0x0                                                                                    
000c40   d004     BRA       0xc4a                                                                                           
000c42   0e0a     MOVLW     0xa                                                                                             
000c44   5c2b     SUBWF     0x2b,0x0,0x0                                                                                    
000c46   0e00     MOVLW     0x0                                                                                             
000c48   582c     SUBWFB    0x2c,0x0,0x0                                                                                    
000c4a   e317     BNC       0xc7a                                                                                           
000c4c   0ef3     MOVLW     0xf3           			t += letbase - '0' - 10;                                                      C:\FrcCode\printf_lib.c
000c4e   cfdb     MOVFF     0xfdb,0x2b                                                                                      
000c50   f02b                                                                                                               
000c52   0ef4     MOVLW     0xf4                                                                                            
000c54   cfdb     MOVFF     0xfdb,0x2c                                                                                      
000c56   f02c                                                                                                               
000c58   0e30     MOVLW     0x30                                                                                            
000c5a   5e2b     SUBWF     0x2b,0x1,0x0                                                                                    
000c5c   0e00     MOVLW     0x0                                                                                             
000c5e   5a2c     SUBWFB    0x2c,0x1,0x0                                                                                    
000c60   0e0a     MOVLW     0xa                                                                                             
000c62   5e2b     SUBWF     0x2b,0x1,0x0                                                                                    
000c64   0e00     MOVLW     0x0                                                                                             
000c66   5a2c     SUBWFB    0x2c,0x1,0x0                                                                                    
000c68   50d9     MOVF      0xd9,0x0,0x0                                                                                    
000c6a   0f02     ADDLW     0x2                                                                                             
000c6c   6ee9     MOVWF     0xe9,0x0                                                                                        
000c6e   cfda     MOVFF     0xfda,0xfea                                                                                     
000c70   ffea                                                                                                               
000c72   502b     MOVF      0x2b,0x0,0x0                                                                                    
000c74   26ee     ADDWF     0xee,0x1,0x0                                                                                    
000c76   502c     MOVF      0x2c,0x0,0x0                                                                                    
000c78   22ed     ADDWFC    0xed,0x1,0x0                                                                                    
000c7a   0e30     MOVLW     0x30           		*--s = t + '0';                                                                C:\FrcCode\printf_lib.c
000c7c   6ee7     MOVWF     0xe7,0x0                                                                                        
000c7e   0e02     MOVLW     0x2                                                                                             
000c80   cfdb     MOVFF     0xfdb,0x2b                                                                                      
000c82   f02b                                                                                                               
000c84   0e03     MOVLW     0x3                                                                                             
000c86   cfdb     MOVFF     0xfdb,0x2c                                                                                      
000c88   f02c                                                                                                               
000c8a   50e7     MOVF      0xe7,0x0,0x0                                                                                    
000c8c   262b     ADDWF     0x2b,0x1,0x0                                                                                    
000c8e   0e00     MOVLW     0x0                                                                                             
000c90   222c     ADDWFC    0x2c,0x1,0x0                                                                                    
000c92   cfd9     MOVFF     0xfd9,0xfe9                                                                                     
000c94   ffe9                                                                                                               
000c96   cfda     MOVFF     0xfda,0xfea                                                                                     
000c98   ffea                                                                                                               
000c9a   06ee     DECF      0xee,0x1,0x0                                                                                    
000c9c   5aed     SUBWFB    0xed,0x1,0x0                                                                                    
000c9e   cfee     MOVFF     0xfee,0xff3                                                                                     
000ca0   fff3                                                                                                               
000ca2   cfed     MOVFF     0xfed,0xff4                                                                                     
000ca4   fff4                                                                                                               
000ca6   cff3     MOVFF     0xff3,0xfe9                                                                                     
000ca8   ffe9                                                                                                               
000caa   cff4     MOVFF     0xff4,0xfea                                                                                     
000cac   ffea                                                                                                               
000cae   c02b     MOVFF     0x2b,0xfef                                                                                      
000cb0   ffef                                                                                                               
000cb2   0efb     MOVLW     0xfb           		u /= b;                                                                        C:\FrcCode\printf_lib.c
000cb4   cfdb     MOVFF     0xfdb,0x2b                                                                                      
000cb6   f02b                                                                                                               
000cb8   0efc     MOVLW     0xfc                                                                                            
000cba   cfdb     MOVFF     0xfdb,0x2c                                                                                      
000cbc   f02c                                                                                                               
000cbe   50d9     MOVF      0xd9,0x0,0x0                                                                                    
000cc0   0f08     ADDLW     0x8                                                                                             
000cc2   6ee9     MOVWF     0xe9,0x0                                                                                        
000cc4   cfda     MOVFF     0xfda,0xfea                                                                                     
000cc6   ffea                                                                                                               
000cc8   c02b     MOVFF     0x2b,0x22                                                                                       
000cca   f022                                                                                                               
000ccc   c02c     MOVFF     0x2c,0x23                                                                                       
000cce   f023                                                                                                               
000cd0   cfee     MOVFF     0xfee,0x1d                                                                                      
000cd2   f01d                                                                                                               
000cd4   cfed     MOVFF     0xfed,0x1e                                                                                      
000cd6   f01e                                                                                                               
000cd8   ec60     CALL      0x34c0,0x0                                                                                      
000cda   f01a                                                                                                               
000cdc   c01d     MOVFF     0x1d,0xfee                                                                                      
000cde   ffee                                                                                                               
000ce0   c01e     MOVFF     0x1e,0xfed                                                                                      
000ce2   ffed                                                                                                               
                                           	}                                                                               C:\FrcCode\printf_lib.c
                                                                                                                            C:\FrcCode\printf_lib.c
000ce6   50d9     MOVF      0xd9,0x0,0x0   	if (neg) {                                                                      C:\FrcCode\printf_lib.c
000ce8   0f04     ADDLW     0x4                                                                                             
000cea   6ee9     MOVWF     0xe9,0x0                                                                                        
000cec   cfda     MOVFF     0xfda,0xfea                                                                                     
000cee   ffea                                                                                                               
000cf0   50ee     MOVF      0xee,0x0,0x0                                                                                    
000cf2   10ed     IORWF     0xed,0x0,0x0                                                                                    
000cf4   e02f     BZ        0xd54                                                                                           
000cf6   50d9     MOVF      0xd9,0x0,0x0   		if( width && (pad & PAD_ZERO) ) {                                              C:\FrcCode\printf_lib.c
000cf8   0ff7     ADDLW     0xf7                                                                                            
000cfa   6ee9     MOVWF     0xe9,0x0                                                                                        
000cfc   0eff     MOVLW     0xff                                                                                            
000cfe   20da     ADDWFC    0xda,0x0,0x0                                                                                    
000d00   6eea     MOVWF     0xea,0x0                                                                                        
000d02   50ee     MOVF      0xee,0x0,0x0                                                                                    
000d04   10ed     IORWF     0xed,0x0,0x0                                                                                    
000d06   e015     BZ        0xd32                                                                                           
000d08   0ef5     MOVLW     0xf5                                                                                            
000d0a   50db     MOVF      0xdb,0x0,0x0                                                                                    
000d0c   0b02     ANDLW     0x2                                                                                             
000d0e   e011     BZ        0xd32                                                                                           
000d10   0e2d     MOVLW     0x2d           			Write_Byte_To_Uart ('-');                                                     C:\FrcCode\printf_lib.c
000d12   6ee6     MOVWF     0xe6,0x0                                                                                        
000d14   6ae6     CLRF      0xe6,0x0                                                                                        
000d16   ddde     RCALL     0x8d4                                                                                           
000d18   52e5     MOVF      0xe5,0x1,0x0                                                                                    
000d1a   52e5     MOVF      0xe5,0x1,0x0                                                                                    
000d1c   0e06     MOVLW     0x6            			++pc;                                                                         C:\FrcCode\printf_lib.c
000d1e   2adb     INCF      0xdb,0x1,0x0                                                                                    
000d20   0e07     MOVLW     0x7                                                                                             
000d22   e301     BNC       0xd26                                                                                           
000d24   2adb     INCF      0xdb,0x1,0x0                                                                                    
000d26   0ef7     MOVLW     0xf7           			--width;                                                                      C:\FrcCode\printf_lib.c
000d28   06db     DECF      0xdb,0x1,0x0                                                                                    
000d2a   0ef8     MOVLW     0xf8                                                                                            
000d2c   e201     BC        0xd30                                                                                           
000d2e   06db     DECF      0xdb,0x1,0x0                                                                                    
                                           		}                                                                              C:\FrcCode\printf_lib.c
000d30   d011     BRA       0xd54          		else {                                                                         C:\FrcCode\printf_lib.c
000d32   cfd9     MOVFF     0xfd9,0xfe9    			*--s = '-';                                                                   C:\FrcCode\printf_lib.c
000d34   ffe9                                                                                                               
000d36   cfda     MOVFF     0xfda,0xfea                                                                                     
000d38   ffea                                                                                                               
000d3a   06ee     DECF      0xee,0x1,0x0                                                                                    
000d3c   0e00     MOVLW     0x0                                                                                             
000d3e   5aed     SUBWFB    0xed,0x1,0x0                                                                                    
000d40   cfee     MOVFF     0xfee,0xff3                                                                                     
000d42   fff3                                                                                                               
000d44   cfed     MOVFF     0xfed,0xff4                                                                                     
000d46   fff4                                                                                                               
000d48   cff3     MOVFF     0xff3,0xfe9                                                                                     
000d4a   ffe9                                                                                                               
000d4c   cff4     MOVFF     0xff4,0xfea                                                                                     
000d4e   ffea                                                                                                               
000d50   0e2d     MOVLW     0x2d                                                                                            
000d52   6eef     MOVWF     0xef,0x0                                                                                        
                                           		}                                                                              C:\FrcCode\printf_lib.c
                                           	}                                                                               C:\FrcCode\printf_lib.c
                                                                                                                            C:\FrcCode\printf_lib.c
000d54   0e06     MOVLW     0x6            	return pc + prints (s, width, pad);                                             C:\FrcCode\printf_lib.c
000d56   cfdb     MOVFF     0xfdb,0x2d                                                                                      
000d58   f02d                                                                                                               
000d5a   0e07     MOVLW     0x7                                                                                             
000d5c   cfdb     MOVFF     0xfdb,0x2e                                                                                      
000d5e   f02e                                                                                                               
000d60   c02d     MOVFF     0x2d,0xfe6                                                                                      
000d62   ffe6                                                                                                               
000d64   c02e     MOVFF     0x2e,0xfe6                                                                                      
000d66   ffe6                                                                                                               
000d68   0ef5     MOVLW     0xf5                                                                                            
000d6a   cfdb     MOVFF     0xfdb,0xfe6                                                                                     
000d6c   ffe6                                                                                                               
000d6e   0ef6     MOVLW     0xf6                                                                                            
000d70   cfdb     MOVFF     0xfdb,0xfe6                                                                                     
000d72   ffe6                                                                                                               
000d74   0ef7     MOVLW     0xf7                                                                                            
000d76   cfdb     MOVFF     0xfdb,0xfe6                                                                                     
000d78   ffe6                                                                                                               
000d7a   0ef8     MOVLW     0xf8                                                                                            
000d7c   cfdb     MOVFF     0xfdb,0xfe6                                                                                     
000d7e   ffe6                                                                                                               
000d80   cfde     MOVFF     0xfde,0xfe6                                                                                     
000d82   ffe6                                                                                                               
000d84   cfdd     MOVFF     0xfdd,0xfe6                                                                                     
000d86   ffe6                                                                                                               
000d88   ddb2     RCALL     0x8ee                                                                                           
000d8a   6ef5     MOVWF     0xf5,0x0                                                                                        
000d8c   0e06     MOVLW     0x6                                                                                             
000d8e   5ee1     SUBWF     0xe1,0x1,0x0                                                                                    
000d90   50f5     MOVF      0xf5,0x0,0x0                                                                                    
000d92   52e5     MOVF      0xe5,0x1,0x0                                                                                    
000d94   cfe7     MOVFF     0xfe7,0x2e                                                                                      
000d96   f02e                                                                                                               
000d98   52e5     MOVF      0xe5,0x1,0x0                                                                                    
000d9a   cfe7     MOVFF     0xfe7,0x2d                                                                                      
000d9c   f02d                                                                                                               
000d9e   502d     MOVF      0x2d,0x0,0x0                                                                                    
000da0   24f3     ADDWF     0xf3,0x0,0x0                                                                                    
000da2   6e2b     MOVWF     0x2b,0x0                                                                                        
000da4   502e     MOVF      0x2e,0x0,0x0                                                                                    
000da6   20f4     ADDWFC    0xf4,0x0,0x0                                                                                    
000da8   6e2c     MOVWF     0x2c,0x0                                                                                        
000daa   c02b     MOVFF     0x2b,0xff3                                                                                      
000dac   fff3                                                                                                               
000dae   c02c     MOVFF     0x2c,0xff4                                                                                      
000db0   fff4                                                                                                               
000db2   d000     BRA       0xdb4                                                                                           
000db4   cfd9     MOVFF     0xfd9,0xfe1    }                                                                                C:\FrcCode\printf_lib.c
000db6   ffe1                                                                                                               
000db8   52e5     MOVF      0xe5,0x1,0x0                                                                                    
000dba   cfe7     MOVFF     0xfe7,0xfd9                                                                                     
000dbc   ffd9                                                                                                               
000dbe   0012     RETURN    0x0                                                                                             
                                                                                                                            C:\FrcCode\printf_lib.c
                                           /******************************************************************************* C:\FrcCode\printf_lib.c
                                           * FUNCTION NAME: print                                                           C:\FrcCode\printf_lib.c
                                           * PURPOSE:       Parses the output stream.                                       C:\FrcCode\printf_lib.c
                                           * RETURNS:       void                                                            C:\FrcCode\printf_lib.c
                                           *******************************************************************************/ C:\FrcCode\printf_lib.c
                                                                                                                            C:\FrcCode\printf_lib.c
000dc0   cfd9     MOVFF     0xfd9,0xfe6    static int print(char *format, int *varg)                                        C:\FrcCode\printf_lib.c
000dc2   ffe6                                                                                                               
000dc4   cfe1     MOVFF     0xfe1,0xfd9                                                                                     
000dc6   ffd9                                                                                                               
000dc8   0e2e     MOVLW     0x2e                                                                                            
000dca   26e1     ADDWF     0xe1,0x1,0x0                                                                                    
                                           {                                                                                C:\FrcCode\printf_lib.c
                                             char tmpBufr[40];                                                              C:\FrcCode\printf_lib.c
                                           	register int width, pad;                                                        C:\FrcCode\printf_lib.c
000dcc   0e2c     MOVLW     0x2c           	register int pc = 0;                                                            C:\FrcCode\printf_lib.c
000dce   6adb     CLRF      0xdb,0x0                                                                                        
000dd0   0e2d     MOVLW     0x2d                                                                                            
000dd2   6adb     CLRF      0xdb,0x0                                                                                        
                                                                                                                            C:\FrcCode\printf_lib.c
000dd4   0efd     MOVLW     0xfd           	for (; *format != 0; ++format) {                                                C:\FrcCode\printf_lib.c
000dd6   cfdb     MOVFF     0xfdb,0xfe9                                                                                     
000dd8   ffe9                                                                                                               
000dda   0efe     MOVLW     0xfe                                                                                            
000ddc   cfdb     MOVFF     0xfdb,0xfea                                                                                     
000dde   ffea                                                                                                               
000de0   50ef     MOVF      0xef,0x0,0x0                                                                                    
000de2   e101     BNZ       0xde6                                                                                           
000de4   d319     BRA       0x1418                                                                                          
00140c   0efd     MOVLW     0xfd                                                                                            
00140e   2adb     INCF      0xdb,0x1,0x0                                                                                    
001410   0efe     MOVLW     0xfe                                                                                            
001412   e301     BNC       0x1416                                                                                          
001414   2adb     INCF      0xdb,0x1,0x0                                                                                    
001416   d4de     BRA       0xdd4                                                                                           
000de6   0efd     MOVLW     0xfd           		if (*format == '%') {                                                          C:\FrcCode\printf_lib.c
000de8   cfdb     MOVFF     0xfdb,0xfe9                                                                                     
000dea   ffe9                                                                                                               
000dec   0efe     MOVLW     0xfe                                                                                            
000dee   cfdb     MOVFF     0xfdb,0xfea                                                                                     
000df0   ffea                                                                                                               
000df2   50ef     MOVF      0xef,0x0,0x0                                                                                    
000df4   0825     SUBLW     0x25                                                                                            
000df6   e001     BZ        0xdfa                                                                                           
000df8   d2e0     BRA       0x13ba                                                                                          
000dfa   0efd     MOVLW     0xfd           			++format;                                                                     C:\FrcCode\printf_lib.c
000dfc   2adb     INCF      0xdb,0x1,0x0                                                                                    
000dfe   0efe     MOVLW     0xfe                                                                                            
000e00   e301     BNC       0xe04                                                                                           
000e02   2adb     INCF      0xdb,0x1,0x0                                                                                    
000e04   0e2a     MOVLW     0x2a           			width = pad = 0;                                                              C:\FrcCode\printf_lib.c
000e06   6adb     CLRF      0xdb,0x0                                                                                        
000e08   0e2b     MOVLW     0x2b                                                                                            
000e0a   6adb     CLRF      0xdb,0x0                                                                                        
000e0c   50d9     MOVF      0xd9,0x0,0x0                                                                                    
000e0e   0f28     ADDLW     0x28                                                                                            
000e10   6ee9     MOVWF     0xe9,0x0                                                                                        
000e12   cfda     MOVFF     0xfda,0xfea                                                                                     
000e14   ffea                                                                                                               
000e16   6aee     CLRF      0xee,0x0                                                                                        
000e18   6aed     CLRF      0xed,0x0                                                                                        
000e1a   0efd     MOVLW     0xfd           			if (*format == '\0') break;                                                   C:\FrcCode\printf_lib.c
000e1c   cfdb     MOVFF     0xfdb,0xfe9                                                                                     
000e1e   ffe9                                                                                                               
000e20   0efe     MOVLW     0xfe                                                                                            
000e22   cfdb     MOVFF     0xfdb,0xfea                                                                                     
000e24   ffea                                                                                                               
000e26   50ef     MOVF      0xef,0x0,0x0                                                                                    
000e28   e101     BNZ       0xe2c                                                                                           
000e2a   d2f6     BRA       0x1418                                                                                          
000e2c   0efd     MOVLW     0xfd           			if (*format == '%') goto out;                                                 C:\FrcCode\printf_lib.c
000e2e   cfdb     MOVFF     0xfdb,0xfe9                                                                                     
000e30   ffe9                                                                                                               
000e32   0efe     MOVLW     0xfe                                                                                            
000e34   cfdb     MOVFF     0xfdb,0xfea                                                                                     
000e36   ffea                                                                                                               
000e38   50ef     MOVF      0xef,0x0,0x0                                                                                    
000e3a   0825     SUBLW     0x25                                                                                            
000e3c   e101     BNZ       0xe40                                                                                           
000e3e   d2bd     BRA       0x13ba                                                                                          
000e40   0efd     MOVLW     0xfd           			if (*format == '-') {                                                         C:\FrcCode\printf_lib.c
000e42   cfdb     MOVFF     0xfdb,0xfe9                                                                                     
000e44   ffe9                                                                                                               
000e46   0efe     MOVLW     0xfe                                                                                            
000e48   cfdb     MOVFF     0xfdb,0xfea                                                                                     
000e4a   ffea                                                                                                               
000e4c   50ef     MOVF      0xef,0x0,0x0                                                                                    
000e4e   082d     SUBLW     0x2d                                                                                            
000e50   e10c     BNZ       0xe6a                                                                                           
000e52   0efd     MOVLW     0xfd           				++format;                                                                    C:\FrcCode\printf_lib.c
000e54   2adb     INCF      0xdb,0x1,0x0                                                                                    
000e56   0efe     MOVLW     0xfe                                                                                            
000e58   e301     BNC       0xe5c                                                                                           
000e5a   2adb     INCF      0xdb,0x1,0x0                                                                                    
000e5c   0e01     MOVLW     0x1            				pad = PAD_RIGHT;                                                             C:\FrcCode\printf_lib.c
000e5e   6ef3     MOVWF     0xf3,0x0                                                                                        
000e60   0e2a     MOVLW     0x2a                                                                                            
000e62   cff3     MOVFF     0xff3,0xfdb                                                                                     
000e64   ffdb                                                                                                               
000e66   0e2b     MOVLW     0x2b                                                                                            
000e68   6adb     CLRF      0xdb,0x0                                                                                        
                                           			}                                                                             C:\FrcCode\printf_lib.c
000e6a   0efd     MOVLW     0xfd           			while (*format == '0') {                                                      C:\FrcCode\printf_lib.c
000e6c   cfdb     MOVFF     0xfdb,0xfe9                                                                                     
000e6e   ffe9                                                                                                               
000e70   0efe     MOVLW     0xfe                                                                                            
000e72   cfdb     MOVFF     0xfdb,0xfea                                                                                     
000e74   ffea                                                                                                               
000e76   50ef     MOVF      0xef,0x0,0x0                                                                                    
000e78   0830     SUBLW     0x30                                                                                            
000e7a   e10d     BNZ       0xe96                                                                                           
000e94   d7ea     BRA       0xe6a                                                                                           
000e7c   0efd     MOVLW     0xfd           				++format;                                                                    C:\FrcCode\printf_lib.c
000e7e   2adb     INCF      0xdb,0x1,0x0                                                                                    
000e80   0efe     MOVLW     0xfe                                                                                            
000e82   e301     BNC       0xe86                                                                                           
000e84   2adb     INCF      0xdb,0x1,0x0                                                                                    
000e86   50d9     MOVF      0xd9,0x0,0x0   				pad |= PAD_ZERO;                                                             C:\FrcCode\printf_lib.c
000e88   0f2a     ADDLW     0x2a                                                                                            
000e8a   6ee9     MOVWF     0xe9,0x0                                                                                        
000e8c   cfda     MOVFF     0xfda,0xfea                                                                                     
000e8e   ffea                                                                                                               
000e90   82ee     BSF       0xee,0x1,0x0                                                                                    
000e92   52ed     MOVF      0xed,0x1,0x0                                                                                    
                                           			}                                                                             C:\FrcCode\printf_lib.c
000e96   0efd     MOVLW     0xfd           			for ( ; *format >= '0' && *format <= '9'; ++format) {                         C:\FrcCode\printf_lib.c
000e98   cfdb     MOVFF     0xfdb,0xfe9                                                                                     
000e9a   ffe9                                                                                                               
000e9c   0efe     MOVLW     0xfe                                                                                            
000e9e   cfdb     MOVFF     0xfdb,0xfea                                                                                     
000ea0   ffea                                                                                                               
000ea2   cfef     MOVFF     0xfef,0x2b                                                                                      
000ea4   f02b                                                                                                               
000ea6   0e30     MOVLW     0x30                                                                                            
000ea8   5c2b     SUBWF     0x2b,0x0,0x0                                                                                    
000eaa   e330     BNC       0xf0c                                                                                           
000eac   0efd     MOVLW     0xfd                                                                                            
000eae   cfdb     MOVFF     0xfdb,0xfe9                                                                                     
000eb0   ffe9                                                                                                               
000eb2   0efe     MOVLW     0xfe                                                                                            
000eb4   cfdb     MOVFF     0xfdb,0xfea                                                                                     
000eb6   ffea                                                                                                               
000eb8   50ef     MOVF      0xef,0x0,0x0                                                                                    
000eba   0839     SUBLW     0x39                                                                                            
000ebc   e327     BNC       0xf0c                                                                                           
000f00   0efd     MOVLW     0xfd                                                                                            
000f02   2adb     INCF      0xdb,0x1,0x0                                                                                    
000f04   0efe     MOVLW     0xfe                                                                                            
000f06   e301     BNC       0xf0a                                                                                           
000f08   2adb     INCF      0xdb,0x1,0x0                                                                                    
000f0a   d7c5     BRA       0xe96                                                                                           
000ebe   50d9     MOVF      0xd9,0x0,0x0   				width *= 10;                                                                 C:\FrcCode\printf_lib.c
000ec0   0f28     ADDLW     0x28                                                                                            
000ec2   6ee9     MOVWF     0xe9,0x0                                                                                        
000ec4   cfda     MOVFF     0xfda,0xfea                                                                                     
000ec6   ffea                                                                                                               
000ec8   0e0a     MOVLW     0xa                                                                                             
000eca   02ec     MULWF     0xec,0x0                                                                                        
000ecc   cff3     MOVFF     0xff3,0xfed                                                                                     
000ece   ffed                                                                                                               
000ed0   02ef     MULWF     0xef,0x0                                                                                        
000ed2   cff3     MOVFF     0xff3,0xfee                                                                                     
000ed4   ffee                                                                                                               
000ed6   50f4     MOVF      0xf4,0x0,0x0                                                                                    
000ed8   26ed     ADDWF     0xed,0x1,0x0                                                                                    
000eda   0efd     MOVLW     0xfd           				width += *format - '0';                                                      C:\FrcCode\printf_lib.c
000edc   cfdb     MOVFF     0xfdb,0xfe9                                                                                     
000ede   ffe9                                                                                                               
000ee0   0efe     MOVLW     0xfe                                                                                            
000ee2   cfdb     MOVFF     0xfdb,0xfea                                                                                     
000ee4   ffea                                                                                                               
000ee6   50ef     MOVF      0xef,0x0,0x0                                                                                    
000ee8   0fd0     ADDLW     0xd0                                                                                            
000eea   6e2b     MOVWF     0x2b,0x0                                                                                        
000eec   6a2c     CLRF      0x2c,0x0                                                                                        
000eee   50d9     MOVF      0xd9,0x0,0x0                                                                                    
000ef0   0f28     ADDLW     0x28                                                                                            
000ef2   6ee9     MOVWF     0xe9,0x0                                                                                        
000ef4   cfda     MOVFF     0xfda,0xfea                                                                                     
000ef6   ffea                                                                                                               
000ef8   502b     MOVF      0x2b,0x0,0x0                                                                                    
000efa   26ee     ADDWF     0xee,0x1,0x0                                                                                    
000efc   502c     MOVF      0x2c,0x0,0x0                                                                                    
000efe   22ed     ADDWFC    0xed,0x1,0x0                                                                                    
                                           			}                                                                             C:\FrcCode\printf_lib.c
000f0c   0efd     MOVLW     0xfd           			if( *format == 's' )                                                          C:\FrcCode\printf_lib.c
000f0e   cfdb     MOVFF     0xfdb,0xfe9                                                                                     
000f10   ffe9                                                                                                               
000f12   0efe     MOVLW     0xfe                                                                                            
000f14   cfdb     MOVFF     0xfdb,0xfea                                                                                     
000f16   ffea                                                                                                               
000f18   50ef     MOVF      0xef,0x0,0x0                                                                                    
000f1a   0873     SUBLW     0x73                                                                                            
000f1c   e161     BNZ       0xfe0                                                                                           
                                                 {                                                                          C:\FrcCode\printf_lib.c
000f1e   50d9     MOVF      0xd9,0x0,0x0           strcpypgm2ram(tmpBufr,(rom char *) *varg--);                             C:\FrcCode\printf_lib.c
000f20   0ffb     ADDLW     0xfb                                                                                            
000f22   6ee9     MOVWF     0xe9,0x0                                                                                        
000f24   0eff     MOVLW     0xff                                                                                            
000f26   20da     ADDWFC    0xda,0x0,0x0                                                                                    
000f28   6eea     MOVWF     0xea,0x0                                                                                        
000f2a   cfee     MOVFF     0xfee,0xff3                                                                                     
000f2c   fff3                                                                                                               
000f2e   cfed     MOVFF     0xfed,0xff4                                                                                     
000f30   fff4                                                                                                               
000f32   0e02     MOVLW     0x2                                                                                             
000f34   5eee     SUBWF     0xee,0x1,0x0                                                                                    
000f36   0e00     MOVLW     0x0                                                                                             
000f38   5aef     SUBWFB    0xef,0x1,0x0                                                                                    
000f3a   cff3     MOVFF     0xff3,0xfe9                                                                                     
000f3c   ffe9                                                                                                               
000f3e   cff4     MOVFF     0xff4,0xfea                                                                                     
000f40   ffea                                                                                                               
000f42   cfee     MOVFF     0xfee,0x2b                                                                                      
000f44   f02b                                                                                                               
000f46   cfef     MOVFF     0xfef,0x2c                                                                                      
000f48   f02c                                                                                                               
000f4a   6a2d     CLRF      0x2d,0x0                                                                                        
000f4c   c02b     MOVFF     0x2b,0xfe6                                                                                      
000f4e   ffe6                                                                                                               
000f50   c02c     MOVFF     0x2c,0xfe6                                                                                      
000f52   ffe6                                                                                                               
000f54   c02d     MOVFF     0x2d,0xfe6                                                                                      
000f56   ffe6                                                                                                               
000f58   cfd9     MOVFF     0xfd9,0xfe6                                                                                     
000f5a   ffe6                                                                                                               
000f5c   cfda     MOVFF     0xfda,0xfe6                                                                                     
000f5e   ffe6                                                                                                               
000f60   ec20     CALL      0x3440,0x0                                                                                      
000f62   f01a                                                                                                               
000f64   6ef5     MOVWF     0xf5,0x0                                                                                        
000f66   0e05     MOVLW     0x5                                                                                             
000f68   5ee1     SUBWF     0xe1,0x1,0x0                                                                                    
000f6a   50f5     MOVF      0xf5,0x0,0x0                                                                                    
000f6c   50df     MOVF      0xdf,0x0,0x0           if (tmpBufr[0] == 0)                                                     C:\FrcCode\printf_lib.c
000f6e   e115     BNZ       0xf9a                                                                                           
000f70   c7d0     MOVFF     0x7d0,0x2b               strcpypgm2ram(tmpBufr,nullStr);                                        C:\FrcCode\printf_lib.c
000f72   f02b                                                                                                               
000f74   c7d1     MOVFF     0x7d1,0x2c                                                                                      
000f76   f02c                                                                                                               
000f78   6a2d     CLRF      0x2d,0x0                                                                                        
000f7a   c02b     MOVFF     0x2b,0xfe6                                                                                      
000f7c   ffe6                                                                                                               
000f7e   c02c     MOVFF     0x2c,0xfe6                                                                                      
000f80   ffe6                                                                                                               
000f82   c02d     MOVFF     0x2d,0xfe6                                                                                      
000f84   ffe6                                                                                                               
000f86   cfd9     MOVFF     0xfd9,0xfe6                                                                                     
000f88   ffe6                                                                                                               
000f8a   cfda     MOVFF     0xfda,0xfe6                                                                                     
000f8c   ffe6                                                                                                               
000f8e   ec20     CALL      0x3440,0x0                                                                                      
000f90   f01a                                                                                                               
000f92   6ef5     MOVWF     0xf5,0x0                                                                                        
000f94   0e05     MOVLW     0x5                                                                                             
000f96   5ee1     SUBWF     0xe1,0x1,0x0                                                                                    
000f98   50f5     MOVF      0xf5,0x0,0x0                                                                                    
000f9a   0e2a     MOVLW     0x2a           				pc += prints (tmpBufr, width, pad);                                          C:\FrcCode\printf_lib.c
000f9c   cfdb     MOVFF     0xfdb,0xfe6                                                                                     
000f9e   ffe6                                                                                                               
000fa0   0e2b     MOVLW     0x2b                                                                                            
000fa2   cfdb     MOVFF     0xfdb,0xfe6                                                                                     
000fa4   ffe6                                                                                                               
000fa6   0e28     MOVLW     0x28                                                                                            
000fa8   cfdb     MOVFF     0xfdb,0xfe6                                                                                     
000faa   ffe6                                                                                                               
000fac   0e29     MOVLW     0x29                                                                                            
000fae   cfdb     MOVFF     0xfdb,0xfe6                                                                                     
000fb0   ffe6                                                                                                               
000fb2   cfd9     MOVFF     0xfd9,0xfe6                                                                                     
000fb4   ffe6                                                                                                               
000fb6   cfda     MOVFF     0xfda,0xfe6                                                                                     
000fb8   ffe6                                                                                                               
000fba   dc99     RCALL     0x8ee                                                                                           
000fbc   6ef5     MOVWF     0xf5,0x0                                                                                        
000fbe   0e06     MOVLW     0x6                                                                                             
000fc0   5ee1     SUBWF     0xe1,0x1,0x0                                                                                    
000fc2   50f5     MOVF      0xf5,0x0,0x0                                                                                    
000fc4   cff3     MOVFF     0xff3,0x2b                                                                                      
000fc6   f02b                                                                                                               
000fc8   cff4     MOVFF     0xff4,0x2c                                                                                      
000fca   f02c                                                                                                               
000fcc   50d9     MOVF      0xd9,0x0,0x0                                                                                    
000fce   0f2c     ADDLW     0x2c                                                                                            
000fd0   6ee9     MOVWF     0xe9,0x0                                                                                        
000fd2   cfda     MOVFF     0xfda,0xfea                                                                                     
000fd4   ffea                                                                                                               
000fd6   502b     MOVF      0x2b,0x0,0x0                                                                                    
000fd8   26ee     ADDWF     0xee,0x1,0x0                                                                                    
000fda   502c     MOVF      0x2c,0x0,0x0                                                                                    
000fdc   22ed     ADDWFC    0xed,0x1,0x0                                                                                    
000fde   d216     BRA       0x140c         				continue;                                                                    C:\FrcCode\printf_lib.c
                                           			}                                                                             C:\FrcCode\printf_lib.c
000fe0   0efd     MOVLW     0xfd           			if( *format == 'd' ) {                                                        C:\FrcCode\printf_lib.c
000fe2   cfdb     MOVFF     0xfdb,0xfe9                                                                                     
000fe4   ffe9                                                                                                               
000fe6   0efe     MOVLW     0xfe                                                                                            
000fe8   cfdb     MOVFF     0xfdb,0xfea                                                                                     
000fea   ffea                                                                                                               
000fec   50ef     MOVF      0xef,0x0,0x0                                                                                    
000fee   0864     SUBLW     0x64                                                                                            
000ff0   e13e     BNZ       0x106e                                                                                          
000ff2   0e61     MOVLW     0x61           				pc += printi (*varg--, 10, 1, width, pad, 'a');                              C:\FrcCode\printf_lib.c
000ff4   6ee6     MOVWF     0xe6,0x0                                                                                        
000ff6   6ae6     CLRF      0xe6,0x0                                                                                        
000ff8   0e2a     MOVLW     0x2a                                                                                            
000ffa   cfdb     MOVFF     0xfdb,0xfe6                                                                                     
000ffc   ffe6                                                                                                               
000ffe   0e2b     MOVLW     0x2b                                                                                            
001000   cfdb     MOVFF     0xfdb,0xfe6                                                                                     
001002   ffe6                                                                                                               
001004   0e28     MOVLW     0x28                                                                                            
001006   cfdb     MOVFF     0xfdb,0xfe6                                                                                     
001008   ffe6                                                                                                               
00100a   0e29     MOVLW     0x29                                                                                            
00100c   cfdb     MOVFF     0xfdb,0xfe6                                                                                     
00100e   ffe6                                                                                                               
001010   0e01     MOVLW     0x1                                                                                             
001012   6ee6     MOVWF     0xe6,0x0                                                                                        
001014   6ae6     CLRF      0xe6,0x0                                                                                        
001016   0e0a     MOVLW     0xa                                                                                             
001018   6ee6     MOVWF     0xe6,0x0                                                                                        
00101a   6ae6     CLRF      0xe6,0x0                                                                                        
00101c   50d9     MOVF      0xd9,0x0,0x0                                                                                    
00101e   0ffb     ADDLW     0xfb                                                                                            
001020   6ee9     MOVWF     0xe9,0x0                                                                                        
001022   0eff     MOVLW     0xff                                                                                            
001024   20da     ADDWFC    0xda,0x0,0x0                                                                                    
001026   6eea     MOVWF     0xea,0x0                                                                                        
001028   cfee     MOVFF     0xfee,0xff3                                                                                     
00102a   fff3                                                                                                               
00102c   cfed     MOVFF     0xfed,0xff4                                                                                     
00102e   fff4                                                                                                               
001030   0e02     MOVLW     0x2                                                                                             
001032   5eee     SUBWF     0xee,0x1,0x0                                                                                    
001034   0e00     MOVLW     0x0                                                                                             
001036   5aef     SUBWFB    0xef,0x1,0x0                                                                                    
001038   cff3     MOVFF     0xff3,0xfe9                                                                                     
00103a   ffe9                                                                                                               
00103c   cff4     MOVFF     0xff4,0xfea                                                                                     
00103e   ffea                                                                                                               
001040   cfee     MOVFF     0xfee,0xfe6                                                                                     
001042   ffe6                                                                                                               
001044   cfef     MOVFF     0xfef,0xfe6                                                                                     
001046   ffe6                                                                                                               
001048   dd4e     RCALL     0xae6                                                                                           
00104a   6ef5     MOVWF     0xf5,0x0                                                                                        
00104c   0e0c     MOVLW     0xc                                                                                             
00104e   5ee1     SUBWF     0xe1,0x1,0x0                                                                                    
001050   50f5     MOVF      0xf5,0x0,0x0                                                                                    
001052   cff3     MOVFF     0xff3,0x2b                                                                                      
001054   f02b                                                                                                               
001056   cff4     MOVFF     0xff4,0x2c                                                                                      
001058   f02c                                                                                                               
00105a   50d9     MOVF      0xd9,0x0,0x0                                                                                    
00105c   0f2c     ADDLW     0x2c                                                                                            
00105e   6ee9     MOVWF     0xe9,0x0                                                                                        
001060   cfda     MOVFF     0xfda,0xfea                                                                                     
001062   ffea                                                                                                               
001064   502b     MOVF      0x2b,0x0,0x0                                                                                    
001066   26ee     ADDWF     0xee,0x1,0x0                                                                                    
001068   502c     MOVF      0x2c,0x0,0x0                                                                                    
00106a   22ed     ADDWFC    0xed,0x1,0x0                                                                                    
00106c   d1cf     BRA       0x140c         				continue;                                                                    C:\FrcCode\printf_lib.c
                                           			}                                                                             C:\FrcCode\printf_lib.c
00106e   0efd     MOVLW     0xfd           			if( *format == 'x' ) {                                                        C:\FrcCode\printf_lib.c
001070   cfdb     MOVFF     0xfdb,0xfe9                                                                                     
001072   ffe9                                                                                                               
001074   0efe     MOVLW     0xfe                                                                                            
001076   cfdb     MOVFF     0xfdb,0xfea                                                                                     
001078   ffea                                                                                                               
00107a   50ef     MOVF      0xef,0x0,0x0                                                                                    
00107c   0878     SUBLW     0x78                                                                                            
00107e   e13e     BNZ       0x10fc                                                                                          
001080   0e61     MOVLW     0x61           				pc += printi (*varg--, 16, 0, width, pad, 'a');                              C:\FrcCode\printf_lib.c
001082   6ee6     MOVWF     0xe6,0x0                                                                                        
001084   6ae6     CLRF      0xe6,0x0                                                                                        
001086   0e2a     MOVLW     0x2a                                                                                            
001088   cfdb     MOVFF     0xfdb,0xfe6                                                                                     
00108a   ffe6                                                                                                               
00108c   0e2b     MOVLW     0x2b                                                                                            
00108e   cfdb     MOVFF     0xfdb,0xfe6                                                                                     
001090   ffe6                                                                                                               
001092   0e28     MOVLW     0x28                                                                                            
001094   cfdb     MOVFF     0xfdb,0xfe6                                                                                     
001096   ffe6                                                                                                               
001098   0e29     MOVLW     0x29                                                                                            
00109a   cfdb     MOVFF     0xfdb,0xfe6                                                                                     
00109c   ffe6                                                                                                               
00109e   0e00     MOVLW     0x0                                                                                             
0010a0   6ee6     MOVWF     0xe6,0x0                                                                                        
0010a2   6ae6     CLRF      0xe6,0x0                                                                                        
0010a4   0e10     MOVLW     0x10                                                                                            
0010a6   6ee6     MOVWF     0xe6,0x0                                                                                        
0010a8   6ae6     CLRF      0xe6,0x0                                                                                        
0010aa   50d9     MOVF      0xd9,0x0,0x0                                                                                    
0010ac   0ffb     ADDLW     0xfb                                                                                            
0010ae   6ee9     MOVWF     0xe9,0x0                                                                                        
0010b0   0eff     MOVLW     0xff                                                                                            
0010b2   20da     ADDWFC    0xda,0x0,0x0                                                                                    
0010b4   6eea     MOVWF     0xea,0x0                                                                                        
0010b6   cfee     MOVFF     0xfee,0xff3                                                                                     
0010b8   fff3                                                                                                               
0010ba   cfed     MOVFF     0xfed,0xff4                                                                                     
0010bc   fff4                                                                                                               
0010be   0e02     MOVLW     0x2                                                                                             
0010c0   5eee     SUBWF     0xee,0x1,0x0                                                                                    
0010c2   0e00     MOVLW     0x0                                                                                             
0010c4   5aef     SUBWFB    0xef,0x1,0x0                                                                                    
0010c6   cff3     MOVFF     0xff3,0xfe9                                                                                     
0010c8   ffe9                                                                                                               
0010ca   cff4     MOVFF     0xff4,0xfea                                                                                     
0010cc   ffea                                                                                                               
0010ce   cfee     MOVFF     0xfee,0xfe6                                                                                     
0010d0   ffe6                                                                                                               
0010d2   cfef     MOVFF     0xfef,0xfe6                                                                                     
0010d4   ffe6                                                                                                               
0010d6   dd07     RCALL     0xae6                                                                                           
0010d8   6ef5     MOVWF     0xf5,0x0                                                                                        
0010da   0e0c     MOVLW     0xc                                                                                             
0010dc   5ee1     SUBWF     0xe1,0x1,0x0                                                                                    
0010de   50f5     MOVF      0xf5,0x0,0x0                                                                                    
0010e0   cff3     MOVFF     0xff3,0x2b                                                                                      
0010e2   f02b                                                                                                               
0010e4   cff4     MOVFF     0xff4,0x2c                                                                                      
0010e6   f02c                                                                                                               
0010e8   50d9     MOVF      0xd9,0x0,0x0                                                                                    
0010ea   0f2c     ADDLW     0x2c                                                                                            
0010ec   6ee9     MOVWF     0xe9,0x0                                                                                        
0010ee   cfda     MOVFF     0xfda,0xfea                                                                                     
0010f0   ffea                                                                                                               
0010f2   502b     MOVF      0x2b,0x0,0x0                                                                                    
0010f4   26ee     ADDWF     0xee,0x1,0x0                                                                                    
0010f6   502c     MOVF      0x2c,0x0,0x0                                                                                    
0010f8   22ed     ADDWFC    0xed,0x1,0x0                                                                                    
0010fa   d188     BRA       0x140c         				continue;                                                                    C:\FrcCode\printf_lib.c
                                           			}                                                                             C:\FrcCode\printf_lib.c
0010fc   0efd     MOVLW     0xfd           			if( *format == 'X' ) {                                                        C:\FrcCode\printf_lib.c
0010fe   cfdb     MOVFF     0xfdb,0xfe9                                                                                     
001100   ffe9                                                                                                               
001102   0efe     MOVLW     0xfe                                                                                            
001104   cfdb     MOVFF     0xfdb,0xfea                                                                                     
001106   ffea                                                                                                               
001108   50ef     MOVF      0xef,0x0,0x0                                                                                    
00110a   0858     SUBLW     0x58                                                                                            
00110c   e13e     BNZ       0x118a                                                                                          
00110e   0e41     MOVLW     0x41           				pc += printi (*varg--, 16, 0, width, pad, 'A');                              C:\FrcCode\printf_lib.c
001110   6ee6     MOVWF     0xe6,0x0                                                                                        
001112   6ae6     CLRF      0xe6,0x0                                                                                        
001114   0e2a     MOVLW     0x2a                                                                                            
001116   cfdb     MOVFF     0xfdb,0xfe6                                                                                     
001118   ffe6                                                                                                               
00111a   0e2b     MOVLW     0x2b                                                                                            
00111c   cfdb     MOVFF     0xfdb,0xfe6                                                                                     
00111e   ffe6                                                                                                               
001120   0e28     MOVLW     0x28                                                                                            
001122   cfdb     MOVFF     0xfdb,0xfe6                                                                                     
001124   ffe6                                                                                                               
001126   0e29     MOVLW     0x29                                                                                            
001128   cfdb     MOVFF     0xfdb,0xfe6                                                                                     
00112a   ffe6                                                                                                               
00112c   0e00     MOVLW     0x0                                                                                             
00112e   6ee6     MOVWF     0xe6,0x0                                                                                        
001130   6ae6     CLRF      0xe6,0x0                                                                                        
001132   0e10     MOVLW     0x10                                                                                            
001134   6ee6     MOVWF     0xe6,0x0                                                                                        
001136   6ae6     CLRF      0xe6,0x0                                                                                        
001138   50d9     MOVF      0xd9,0x0,0x0                                                                                    
00113a   0ffb     ADDLW     0xfb                                                                                            
00113c   6ee9     MOVWF     0xe9,0x0                                                                                        
00113e   0eff     MOVLW     0xff                                                                                            
001140   20da     ADDWFC    0xda,0x0,0x0                                                                                    
001142   6eea     MOVWF     0xea,0x0                                                                                        
001144   cfee     MOVFF     0xfee,0xff3                                                                                     
001146   fff3                                                                                                               
001148   cfed     MOVFF     0xfed,0xff4                                                                                     
00114a   fff4                                                                                                               
00114c   0e02     MOVLW     0x2                                                                                             
00114e   5eee     SUBWF     0xee,0x1,0x0                                                                                    
001150   0e00     MOVLW     0x0                                                                                             
001152   5aef     SUBWFB    0xef,0x1,0x0                                                                                    
001154   cff3     MOVFF     0xff3,0xfe9                                                                                     
001156   ffe9                                                                                                               
001158   cff4     MOVFF     0xff4,0xfea                                                                                     
00115a   ffea                                                                                                               
00115c   cfee     MOVFF     0xfee,0xfe6                                                                                     
00115e   ffe6                                                                                                               
001160   cfef     MOVFF     0xfef,0xfe6                                                                                     
001162   ffe6                                                                                                               
001164   dcc0     RCALL     0xae6                                                                                           
001166   6ef5     MOVWF     0xf5,0x0                                                                                        
001168   0e0c     MOVLW     0xc                                                                                             
00116a   5ee1     SUBWF     0xe1,0x1,0x0                                                                                    
00116c   50f5     MOVF      0xf5,0x0,0x0                                                                                    
00116e   cff3     MOVFF     0xff3,0x2b                                                                                      
001170   f02b                                                                                                               
001172   cff4     MOVFF     0xff4,0x2c                                                                                      
001174   f02c                                                                                                               
001176   50d9     MOVF      0xd9,0x0,0x0                                                                                    
001178   0f2c     ADDLW     0x2c                                                                                            
00117a   6ee9     MOVWF     0xe9,0x0                                                                                        
00117c   cfda     MOVFF     0xfda,0xfea                                                                                     
00117e   ffea                                                                                                               
001180   502b     MOVF      0x2b,0x0,0x0                                                                                    
001182   26ee     ADDWF     0xee,0x1,0x0                                                                                    
001184   502c     MOVF      0x2c,0x0,0x0                                                                                    
001186   22ed     ADDWFC    0xed,0x1,0x0                                                                                    
001188   d141     BRA       0x140c         				continue;                                                                    C:\FrcCode\printf_lib.c
                                           			}                                                                             C:\FrcCode\printf_lib.c
00118a   0efd     MOVLW     0xfd           			if( *format == 'u' ) {                                                        C:\FrcCode\printf_lib.c
00118c   cfdb     MOVFF     0xfdb,0xfe9                                                                                     
00118e   ffe9                                                                                                               
001190   0efe     MOVLW     0xfe                                                                                            
001192   cfdb     MOVFF     0xfdb,0xfea                                                                                     
001194   ffea                                                                                                               
001196   50ef     MOVF      0xef,0x0,0x0                                                                                    
001198   0875     SUBLW     0x75                                                                                            
00119a   e13e     BNZ       0x1218                                                                                          
00119c   0e61     MOVLW     0x61           				pc += printi (*varg--, 10, 0, width, pad, 'a');                              C:\FrcCode\printf_lib.c
00119e   6ee6     MOVWF     0xe6,0x0                                                                                        
0011a0   6ae6     CLRF      0xe6,0x0                                                                                        
0011a2   0e2a     MOVLW     0x2a                                                                                            
0011a4   cfdb     MOVFF     0xfdb,0xfe6                                                                                     
0011a6   ffe6                                                                                                               
0011a8   0e2b     MOVLW     0x2b                                                                                            
0011aa   cfdb     MOVFF     0xfdb,0xfe6                                                                                     
0011ac   ffe6                                                                                                               
0011ae   0e28     MOVLW     0x28                                                                                            
0011b0   cfdb     MOVFF     0xfdb,0xfe6                                                                                     
0011b2   ffe6                                                                                                               
0011b4   0e29     MOVLW     0x29                                                                                            
0011b6   cfdb     MOVFF     0xfdb,0xfe6                                                                                     
0011b8   ffe6                                                                                                               
0011ba   0e00     MOVLW     0x0                                                                                             
0011bc   6ee6     MOVWF     0xe6,0x0                                                                                        
0011be   6ae6     CLRF      0xe6,0x0                                                                                        
0011c0   0e0a     MOVLW     0xa                                                                                             
0011c2   6ee6     MOVWF     0xe6,0x0                                                                                        
0011c4   6ae6     CLRF      0xe6,0x0                                                                                        
0011c6   50d9     MOVF      0xd9,0x0,0x0                                                                                    
0011c8   0ffb     ADDLW     0xfb                                                                                            
0011ca   6ee9     MOVWF     0xe9,0x0                                                                                        
0011cc   0eff     MOVLW     0xff                                                                                            
0011ce   20da     ADDWFC    0xda,0x0,0x0                                                                                    
0011d0   6eea     MOVWF     0xea,0x0                                                                                        
0011d2   cfee     MOVFF     0xfee,0xff3                                                                                     
0011d4   fff3                                                                                                               
0011d6   cfed     MOVFF     0xfed,0xff4                                                                                     
0011d8   fff4                                                                                                               
0011da   0e02     MOVLW     0x2                                                                                             
0011dc   5eee     SUBWF     0xee,0x1,0x0                                                                                    
0011de   0e00     MOVLW     0x0                                                                                             
0011e0   5aef     SUBWFB    0xef,0x1,0x0                                                                                    
0011e2   cff3     MOVFF     0xff3,0xfe9                                                                                     
0011e4   ffe9                                                                                                               
0011e6   cff4     MOVFF     0xff4,0xfea                                                                                     
0011e8   ffea                                                                                                               
0011ea   cfee     MOVFF     0xfee,0xfe6                                                                                     
0011ec   ffe6                                                                                                               
0011ee   cfef     MOVFF     0xfef,0xfe6                                                                                     
0011f0   ffe6                                                                                                               
0011f2   dc79     RCALL     0xae6                                                                                           
0011f4   6ef5     MOVWF     0xf5,0x0                                                                                        
0011f6   0e0c     MOVLW     0xc                                                                                             
0011f8   5ee1     SUBWF     0xe1,0x1,0x0                                                                                    
0011fa   50f5     MOVF      0xf5,0x0,0x0                                                                                    
0011fc   cff3     MOVFF     0xff3,0x2b                                                                                      
0011fe   f02b                                                                                                               
001200   cff4     MOVFF     0xff4,0x2c                                                                                      
001202   f02c                                                                                                               
001204   50d9     MOVF      0xd9,0x0,0x0                                                                                    
001206   0f2c     ADDLW     0x2c                                                                                            
001208   6ee9     MOVWF     0xe9,0x0                                                                                        
00120a   cfda     MOVFF     0xfda,0xfea                                                                                     
00120c   ffea                                                                                                               
00120e   502b     MOVF      0x2b,0x0,0x0                                                                                    
001210   26ee     ADDWF     0xee,0x1,0x0                                                                                    
001212   502c     MOVF      0x2c,0x0,0x0                                                                                    
001214   22ed     ADDWFC    0xed,0x1,0x0                                                                                    
001216   d0fa     BRA       0x140c         				continue;                                                                    C:\FrcCode\printf_lib.c
                                           			}                                                                             C:\FrcCode\printf_lib.c
001218   0efd     MOVLW     0xfd           			if( *format == 'l' ) {    /* assumes lx */                                    C:\FrcCode\printf_lib.c
00121a   cfdb     MOVFF     0xfdb,0xfe9                                                                                     
00121c   ffe9                                                                                                               
00121e   0efe     MOVLW     0xfe                                                                                            
001220   cfdb     MOVFF     0xfdb,0xfea                                                                                     
001222   ffea                                                                                                               
001224   50ef     MOVF      0xef,0x0,0x0                                                                                    
001226   086c     SUBLW     0x6c                                                                                            
001228   e001     BZ        0x122c                                                                                          
00122a   d081     BRA       0x132e                                                                                          
00122c   0e61     MOVLW     0x61           				pc += printi (*varg--, 16, 0, width, pad, 'a');                              C:\FrcCode\printf_lib.c
00122e   6ee6     MOVWF     0xe6,0x0                                                                                        
001230   6ae6     CLRF      0xe6,0x0                                                                                        
001232   0e2a     MOVLW     0x2a                                                                                            
001234   cfdb     MOVFF     0xfdb,0xfe6                                                                                     
001236   ffe6                                                                                                               
001238   0e2b     MOVLW     0x2b                                                                                            
00123a   cfdb     MOVFF     0xfdb,0xfe6                                                                                     
00123c   ffe6                                                                                                               
00123e   0e28     MOVLW     0x28                                                                                            
001240   cfdb     MOVFF     0xfdb,0xfe6                                                                                     
001242   ffe6                                                                                                               
001244   0e29     MOVLW     0x29                                                                                            
001246   cfdb     MOVFF     0xfdb,0xfe6                                                                                     
001248   ffe6                                                                                                               
00124a   0e00     MOVLW     0x0                                                                                             
00124c   6ee6     MOVWF     0xe6,0x0                                                                                        
00124e   6ae6     CLRF      0xe6,0x0                                                                                        
001250   0e10     MOVLW     0x10                                                                                            
001252   6ee6     MOVWF     0xe6,0x0                                                                                        
001254   6ae6     CLRF      0xe6,0x0                                                                                        
001256   50d9     MOVF      0xd9,0x0,0x0                                                                                    
001258   0ffb     ADDLW     0xfb                                                                                            
00125a   6ee9     MOVWF     0xe9,0x0                                                                                        
00125c   0eff     MOVLW     0xff                                                                                            
00125e   20da     ADDWFC    0xda,0x0,0x0                                                                                    
001260   6eea     MOVWF     0xea,0x0                                                                                        
001262   cfee     MOVFF     0xfee,0xff3                                                                                     
001264   fff3                                                                                                               
001266   cfed     MOVFF     0xfed,0xff4                                                                                     
001268   fff4                                                                                                               
00126a   0e02     MOVLW     0x2                                                                                             
00126c   5eee     SUBWF     0xee,0x1,0x0                                                                                    
00126e   0e00     MOVLW     0x0                                                                                             
001270   5aef     SUBWFB    0xef,0x1,0x0                                                                                    
001272   cff3     MOVFF     0xff3,0xfe9                                                                                     
001274   ffe9                                                                                                               
001276   cff4     MOVFF     0xff4,0xfea                                                                                     
001278   ffea                                                                                                               
00127a   cfee     MOVFF     0xfee,0xfe6                                                                                     
00127c   ffe6                                                                                                               
00127e   cfef     MOVFF     0xfef,0xfe6                                                                                     
001280   ffe6                                                                                                               
001282   dc31     RCALL     0xae6                                                                                           
001284   6ef5     MOVWF     0xf5,0x0                                                                                        
001286   0e0c     MOVLW     0xc                                                                                             
001288   5ee1     SUBWF     0xe1,0x1,0x0                                                                                    
00128a   50f5     MOVF      0xf5,0x0,0x0                                                                                    
00128c   cff3     MOVFF     0xff3,0x2b                                                                                      
00128e   f02b                                                                                                               
001290   cff4     MOVFF     0xff4,0x2c                                                                                      
001292   f02c                                                                                                               
001294   50d9     MOVF      0xd9,0x0,0x0                                                                                    
001296   0f2c     ADDLW     0x2c                                                                                            
001298   6ee9     MOVWF     0xe9,0x0                                                                                        
00129a   cfda     MOVFF     0xfda,0xfea                                                                                     
00129c   ffea                                                                                                               
00129e   502b     MOVF      0x2b,0x0,0x0                                                                                    
0012a0   26ee     ADDWF     0xee,0x1,0x0                                                                                    
0012a2   502c     MOVF      0x2c,0x0,0x0                                                                                    
0012a4   22ed     ADDWFC    0xed,0x1,0x0                                                                                    
0012a6   0e61     MOVLW     0x61           				pc += printi (*varg--, 16, 0, width, pad, 'a');                              C:\FrcCode\printf_lib.c
0012a8   6ee6     MOVWF     0xe6,0x0                                                                                        
0012aa   6ae6     CLRF      0xe6,0x0                                                                                        
0012ac   0e2a     MOVLW     0x2a                                                                                            
0012ae   cfdb     MOVFF     0xfdb,0xfe6                                                                                     
0012b0   ffe6                                                                                                               
0012b2   0e2b     MOVLW     0x2b                                                                                            
0012b4   cfdb     MOVFF     0xfdb,0xfe6                                                                                     
0012b6   ffe6                                                                                                               
0012b8   0e28     MOVLW     0x28                                                                                            
0012ba   cfdb     MOVFF     0xfdb,0xfe6                                                                                     
0012bc   ffe6                                                                                                               
0012be   0e29     MOVLW     0x29                                                                                            
0012c0   cfdb     MOVFF     0xfdb,0xfe6                                                                                     
0012c2   ffe6                                                                                                               
0012c4   0e00     MOVLW     0x0                                                                                             
0012c6   6ee6     MOVWF     0xe6,0x0                                                                                        
0012c8   6ae6     CLRF      0xe6,0x0                                                                                        
0012ca   0e10     MOVLW     0x10                                                                                            
0012cc   6ee6     MOVWF     0xe6,0x0                                                                                        
0012ce   6ae6     CLRF      0xe6,0x0                                                                                        
0012d0   50d9     MOVF      0xd9,0x0,0x0                                                                                    
0012d2   0ffb     ADDLW     0xfb                                                                                            
0012d4   6ee9     MOVWF     0xe9,0x0                                                                                        
0012d6   0eff     MOVLW     0xff                                                                                            
0012d8   20da     ADDWFC    0xda,0x0,0x0                                                                                    
0012da   6eea     MOVWF     0xea,0x0                                                                                        
0012dc   cfee     MOVFF     0xfee,0xff3                                                                                     
0012de   fff3                                                                                                               
0012e0   cfed     MOVFF     0xfed,0xff4                                                                                     
0012e2   fff4                                                                                                               
0012e4   0e02     MOVLW     0x2                                                                                             
0012e6   5eee     SUBWF     0xee,0x1,0x0                                                                                    
0012e8   0e00     MOVLW     0x0                                                                                             
0012ea   5aef     SUBWFB    0xef,0x1,0x0                                                                                    
0012ec   cff3     MOVFF     0xff3,0xfe9                                                                                     
0012ee   ffe9                                                                                                               
0012f0   cff4     MOVFF     0xff4,0xfea                                                                                     
0012f2   ffea                                                                                                               
0012f4   cfee     MOVFF     0xfee,0xfe6                                                                                     
0012f6   ffe6                                                                                                               
0012f8   cfef     MOVFF     0xfef,0xfe6                                                                                     
0012fa   ffe6                                                                                                               
0012fc   ec73     CALL      0xae6,0x0                                                                                       
0012fe   f005                                                                                                               
001300   6ef5     MOVWF     0xf5,0x0                                                                                        
001302   0e0c     MOVLW     0xc                                                                                             
001304   5ee1     SUBWF     0xe1,0x1,0x0                                                                                    
001306   50f5     MOVF      0xf5,0x0,0x0                                                                                    
001308   cff3     MOVFF     0xff3,0x2b                                                                                      
00130a   f02b                                                                                                               
00130c   cff4     MOVFF     0xff4,0x2c                                                                                      
00130e   f02c                                                                                                               
001310   50d9     MOVF      0xd9,0x0,0x0                                                                                    
001312   0f2c     ADDLW     0x2c                                                                                            
001314   6ee9     MOVWF     0xe9,0x0                                                                                        
001316   cfda     MOVFF     0xfda,0xfea                                                                                     
001318   ffea                                                                                                               
00131a   502b     MOVF      0x2b,0x0,0x0                                                                                    
00131c   26ee     ADDWF     0xee,0x1,0x0                                                                                    
00131e   502c     MOVF      0x2c,0x0,0x0                                                                                    
001320   22ed     ADDWFC    0xed,0x1,0x0                                                                                    
001322   0efd     MOVLW     0xfd           				format++;               /* skip over x*/                                     C:\FrcCode\printf_lib.c
001324   2adb     INCF      0xdb,0x1,0x0                                                                                    
001326   0efe     MOVLW     0xfe                                                                                            
001328   e301     BNC       0x132c                                                                                          
00132a   2adb     INCF      0xdb,0x1,0x0                                                                                    
00132c   d06f     BRA       0x140c         				continue;                                                                    C:\FrcCode\printf_lib.c
                                           			}                                                                             C:\FrcCode\printf_lib.c
00132e   0efd     MOVLW     0xfd           			if( *format == 'b' ) {                                                        C:\FrcCode\printf_lib.c
001330   cfdb     MOVFF     0xfdb,0xfe9                                                                                     
001332   ffe9                                                                                                               
001334   0efe     MOVLW     0xfe                                                                                            
001336   cfdb     MOVFF     0xfdb,0xfea                                                                                     
001338   ffea                                                                                                               
00133a   50ef     MOVF      0xef,0x0,0x0                                                                                    
00133c   0862     SUBLW     0x62                                                                                            
00133e   e13c     BNZ       0x13b8                                                                                          
001340   0e61     MOVLW     0x61           				pc += printi (*varg--, 2, 0, width, 2, 'a');                                 C:\FrcCode\printf_lib.c
001342   6ee6     MOVWF     0xe6,0x0                                                                                        
001344   6ae6     CLRF      0xe6,0x0                                                                                        
001346   0e02     MOVLW     0x2                                                                                             
001348   6ee6     MOVWF     0xe6,0x0                                                                                        
00134a   6ae6     CLRF      0xe6,0x0                                                                                        
00134c   0e28     MOVLW     0x28                                                                                            
00134e   cfdb     MOVFF     0xfdb,0xfe6                                                                                     
001350   ffe6                                                                                                               
001352   0e29     MOVLW     0x29                                                                                            
001354   cfdb     MOVFF     0xfdb,0xfe6                                                                                     
001356   ffe6                                                                                                               
001358   0e00     MOVLW     0x0                                                                                             
00135a   6ee6     MOVWF     0xe6,0x0                                                                                        
00135c   6ae6     CLRF      0xe6,0x0                                                                                        
00135e   0e02     MOVLW     0x2                                                                                             
001360   6ee6     MOVWF     0xe6,0x0                                                                                        
001362   6ae6     CLRF      0xe6,0x0                                                                                        
001364   50d9     MOVF      0xd9,0x0,0x0                                                                                    
001366   0ffb     ADDLW     0xfb                                                                                            
001368   6ee9     MOVWF     0xe9,0x0                                                                                        
00136a   0eff     MOVLW     0xff                                                                                            
00136c   20da     ADDWFC    0xda,0x0,0x0                                                                                    
00136e   6eea     MOVWF     0xea,0x0                                                                                        
001370   cfee     MOVFF     0xfee,0xff3                                                                                     
001372   fff3                                                                                                               
001374   cfed     MOVFF     0xfed,0xff4                                                                                     
001376   fff4                                                                                                               
001378   0e02     MOVLW     0x2                                                                                             
00137a   5eee     SUBWF     0xee,0x1,0x0                                                                                    
00137c   0e00     MOVLW     0x0                                                                                             
00137e   5aef     SUBWFB    0xef,0x1,0x0                                                                                    
001380   cff3     MOVFF     0xff3,0xfe9                                                                                     
001382   ffe9                                                                                                               
001384   cff4     MOVFF     0xff4,0xfea                                                                                     
001386   ffea                                                                                                               
001388   cfee     MOVFF     0xfee,0xfe6                                                                                     
00138a   ffe6                                                                                                               
00138c   cfef     MOVFF     0xfef,0xfe6                                                                                     
00138e   ffe6                                                                                                               
001390   ec73     CALL      0xae6,0x0                                                                                       
001392   f005                                                                                                               
001394   6ef5     MOVWF     0xf5,0x0                                                                                        
001396   0e0c     MOVLW     0xc                                                                                             
001398   5ee1     SUBWF     0xe1,0x1,0x0                                                                                    
00139a   50f5     MOVF      0xf5,0x0,0x0                                                                                    
00139c   cff3     MOVFF     0xff3,0x2b                                                                                      
00139e   f02b                                                                                                               
0013a0   cff4     MOVFF     0xff4,0x2c                                                                                      
0013a2   f02c                                                                                                               
0013a4   50d9     MOVF      0xd9,0x0,0x0                                                                                    
0013a6   0f2c     ADDLW     0x2c                                                                                            
0013a8   6ee9     MOVWF     0xe9,0x0                                                                                        
0013aa   cfda     MOVFF     0xfda,0xfea                                                                                     
0013ac   ffea                                                                                                               
0013ae   502b     MOVF      0x2b,0x0,0x0                                                                                    
0013b0   26ee     ADDWF     0xee,0x1,0x0                                                                                    
0013b2   502c     MOVF      0x2c,0x0,0x0                                                                                    
0013b4   22ed     ADDWFC    0xed,0x1,0x0                                                                                    
0013b6   d02a     BRA       0x140c         				continue;                                                                    C:\FrcCode\printf_lib.c
                                           			}                                                                             C:\FrcCode\printf_lib.c
                                           		}                                                                              C:\FrcCode\printf_lib.c
0013b8   d029     BRA       0x140c         		else {                                                                         C:\FrcCode\printf_lib.c
                                           		out:                                                                           C:\FrcCode\printf_lib.c
0013ba   0efd     MOVLW     0xfd                 if (*format == '\n') *format = '\r';  /* replace line feed with cr */      C:\FrcCode\printf_lib.c
0013bc   cfdb     MOVFF     0xfdb,0xfe9                                                                                     
0013be   ffe9                                                                                                               
0013c0   0efe     MOVLW     0xfe                                                                                            
0013c2   cfdb     MOVFF     0xfdb,0xfea                                                                                     
0013c4   ffea                                                                                                               
0013c6   50ef     MOVF      0xef,0x0,0x0                                                                                    
0013c8   080a     SUBLW     0xa                                                                                             
0013ca   e108     BNZ       0x13dc                                                                                          
0013cc   0efd     MOVLW     0xfd                                                                                            
0013ce   cfdb     MOVFF     0xfdb,0xfe9                                                                                     
0013d0   ffe9                                                                                                               
0013d2   0efe     MOVLW     0xfe                                                                                            
0013d4   cfdb     MOVFF     0xfdb,0xfea                                                                                     
0013d6   ffea                                                                                                               
0013d8   0e0d     MOVLW     0xd                                                                                             
0013da   6eef     MOVWF     0xef,0x0                                                                                        
0013dc   0efd     MOVLW     0xfd           			Write_Byte_To_Uart (*format);                                                 C:\FrcCode\printf_lib.c
0013de   cfdb     MOVFF     0xfdb,0xfe9                                                                                     
0013e0   ffe9                                                                                                               
0013e2   0efe     MOVLW     0xfe                                                                                            
0013e4   cfdb     MOVFF     0xfdb,0xfea                                                                                     
0013e6   ffea                                                                                                               
0013e8   cfef     MOVFF     0xfef,0x2b                                                                                      
0013ea   f02b                                                                                                               
0013ec   6a2c     CLRF      0x2c,0x0                                                                                        
0013ee   be2b     BTFSC     0x2b,0x7,0x0                                                                                    
0013f0   682c     SETF      0x2c,0x0                                                                                        
0013f2   c02b     MOVFF     0x2b,0xfe6                                                                                      
0013f4   ffe6                                                                                                               
0013f6   c02c     MOVFF     0x2c,0xfe6                                                                                      
0013f8   ffe6                                                                                                               
0013fa   ec6a     CALL      0x8d4,0x0                                                                                       
0013fc   f004                                                                                                               
0013fe   52e5     MOVF      0xe5,0x1,0x0                                                                                    
001400   52e5     MOVF      0xe5,0x1,0x0                                                                                    
001402   0e2c     MOVLW     0x2c           			++pc;                                                                         C:\FrcCode\printf_lib.c
001404   2adb     INCF      0xdb,0x1,0x0                                                                                    
001406   0e2d     MOVLW     0x2d                                                                                            
001408   e301     BNC       0x140c                                                                                          
00140a   2adb     INCF      0xdb,0x1,0x0                                                                                    
                                           		}                                                                              C:\FrcCode\printf_lib.c
                                           	}                                                                               C:\FrcCode\printf_lib.c
001418   0e2c     MOVLW     0x2c           	return pc;                                                                      C:\FrcCode\printf_lib.c
00141a   cfdb     MOVFF     0xfdb,0x2b                                                                                      
00141c   f02b                                                                                                               
00141e   0e2d     MOVLW     0x2d                                                                                            
001420   cfdb     MOVFF     0xfdb,0x2c                                                                                      
001422   f02c                                                                                                               
001424   c02b     MOVFF     0x2b,0xff3                                                                                      
001426   fff3                                                                                                               
001428   c02c     MOVFF     0x2c,0xff4                                                                                      
00142a   fff4                                                                                                               
00142c   d000     BRA       0x142e                                                                                          
00142e   cfd9     MOVFF     0xfd9,0xfe1    }                                                                                C:\FrcCode\printf_lib.c
001430   ffe1                                                                                                               
001432   52e5     MOVF      0xe5,0x1,0x0                                                                                    
001434   cfe7     MOVFF     0xfe7,0xfd9                                                                                     
001436   ffd9                                                                                                               
001438   0012     RETURN    0x0                                                                                             
                                                                                                                            C:\FrcCode\printf_lib.c
                                           /******************************************************************************* C:\FrcCode\printf_lib.c
                                           * FUNCTION NAME: printf                                                          C:\FrcCode\printf_lib.c
                                           * PURPOSE:       Formats an output stream.                                       C:\FrcCode\printf_lib.c
                                           * RETURNS:       void                                                            C:\FrcCode\printf_lib.c
                                           *******************************************************************************/ C:\FrcCode\printf_lib.c
                                                                                                                            C:\FrcCode\printf_lib.c
00143a   cfd9     MOVFF     0xfd9,0xfe6    int printf(rom const char *format, ...)                                          C:\FrcCode\printf_lib.c
00143c   ffe6                                                                                                               
00143e   cfe1     MOVFF     0xfe1,0xfd9                                                                                     
001440   ffd9                                                                                                               
001442   0e02     MOVLW     0x2                                                                                             
001444   26e1     ADDWF     0xe1,0x1,0x0                                                                                    
                                           {                                                                                C:\FrcCode\printf_lib.c
001446   50d9     MOVF      0xd9,0x0,0x0       register int *varg = (int *)(&format);                                       C:\FrcCode\printf_lib.c
001448   0ffd     ADDLW     0xfd                                                                                            
00144a   6e2b     MOVWF     0x2b,0x0                                                                                        
00144c   0eff     MOVLW     0xff                                                                                            
00144e   20da     ADDWFC    0xda,0x0,0x0                                                                                    
001450   6e2c     MOVWF     0x2c,0x0                                                                                        
001452   c02b     MOVFF     0x2b,0xfde                                                                                      
001454   ffde                                                                                                               
001456   c02c     MOVFF     0x2c,0xfdd                                                                                      
001458   ffdd                                                                                                               
                                               /*                                                                           C:\FrcCode\printf_lib.c
                                                  Since constant strings are kept in program (flash) memory, the strcpypgm2ram C:\FrcCode\printf_lib.c
                                                  routine copies the string from flash to ram.                              C:\FrcCode\printf_lib.c
                                               */                                                                           C:\FrcCode\printf_lib.c
00145a   0efd     MOVLW     0xfd               strcpypgm2ram(ifi_printfBufr,(rom char *) format);                           C:\FrcCode\printf_lib.c
00145c   cfdb     MOVFF     0xfdb,0x2b                                                                                      
00145e   f02b                                                                                                               
001460   0efe     MOVLW     0xfe                                                                                            
001462   cfdb     MOVFF     0xfdb,0x2c                                                                                      
001464   f02c                                                                                                               
001466   6a2d     CLRF      0x2d,0x0                                                                                        
001468   c02b     MOVFF     0x2b,0xfe6                                                                                      
00146a   ffe6                                                                                                               
00146c   c02c     MOVFF     0x2c,0xfe6                                                                                      
00146e   ffe6                                                                                                               
001470   c02d     MOVFF     0x2d,0xfe6                                                                                      
001472   ffe6                                                                                                               
001474   0e00     MOVLW     0x0                                                                                             
001476   6ee6     MOVWF     0xe6,0x0                                                                                        
001478   0e07     MOVLW     0x7                                                                                             
00147a   6ee6     MOVWF     0xe6,0x0                                                                                        
00147c   ec20     CALL      0x3440,0x0                                                                                      
00147e   f01a                                                                                                               
001480   6ef5     MOVWF     0xf5,0x0                                                                                        
001482   0e05     MOVLW     0x5                                                                                             
001484   5ee1     SUBWF     0xe1,0x1,0x0                                                                                    
001486   50f5     MOVF      0xf5,0x0,0x0                                                                                    
                                                                                                                            C:\FrcCode\printf_lib.c
001488   cfd9     MOVFF     0xfd9,0xfe9        varg--; /* adjust stack for Microchip C Compiler */                          C:\FrcCode\printf_lib.c
00148a   ffe9                                                                                                               
00148c   cfda     MOVFF     0xfda,0xfea                                                                                     
00148e   ffea                                                                                                               
001490   0e02     MOVLW     0x2                                                                                             
001492   5eee     SUBWF     0xee,0x1,0x0                                                                                    
001494   0e00     MOVLW     0x0                                                                                             
001496   5aef     SUBWFB    0xef,0x1,0x0                                                                                    
001498   cfde     MOVFF     0xfde,0xfe6        return print(ifi_printfBufr, varg);                                          C:\FrcCode\printf_lib.c
00149a   ffe6                                                                                                               
00149c   cfdd     MOVFF     0xfdd,0xfe6                                                                                     
00149e   ffe6                                                                                                               
0014a0   0e00     MOVLW     0x0                                                                                             
0014a2   6ee6     MOVWF     0xe6,0x0                                                                                        
0014a4   0e07     MOVLW     0x7                                                                                             
0014a6   6ee6     MOVWF     0xe6,0x0                                                                                        
0014a8   dc8b     RCALL     0xdc0                                                                                           
0014aa   52e5     MOVF      0xe5,0x1,0x0                                                                                    
0014ac   52e5     MOVF      0xe5,0x1,0x0                                                                                    
0014ae   52e5     MOVF      0xe5,0x1,0x0                                                                                    
0014b0   52e5     MOVF      0xe5,0x1,0x0                                                                                    
0014b2   d000     BRA       0x14b4                                                                                          
0014b4   cfd9     MOVFF     0xfd9,0xfe1    }                                                                                C:\FrcCode\printf_lib.c
0014b6   ffe1                                                                                                               
0014b8   52e5     MOVF      0xe5,0x1,0x0                                                                                    
0014ba   cfe7     MOVFF     0xfe7,0xfd9                                                                                     
0014bc   ffd9                                                                                                               
0014be   0012     RETURN    0x0                                                                                             
                                                                                                                            C:\FrcCode\printf_lib.c
                                           /******************************************************************************  C:\FrcCode\printf_lib.c
                                           *                                                                                C:\FrcCode\printf_lib.c
                                           * The following routines are examples how to use the printf library routines     C:\FrcCode\printf_lib.c
                                           * to create your own output modules:                                             C:\FrcCode\printf_lib.c
                                           *                                                                                C:\FrcCode\printf_lib.c
                                           *******************************************************************************/ C:\FrcCode\printf_lib.c
                                                                                                                            C:\FrcCode\printf_lib.c
                                           /******************************************************************************* C:\FrcCode\printf_lib.c
                                           * FUNCTION NAME: printid                                                         C:\FrcCode\printf_lib.c
                                           * PURPOSE:       Prints a 16bit word (base 10) w/o a carriage return.            C:\FrcCode\printf_lib.c
                                           * RETURNS:       void                                                            C:\FrcCode\printf_lib.c
                                           *******************************************************************************/ C:\FrcCode\printf_lib.c
                                                                                                                            C:\FrcCode\printf_lib.c
0014c0   cfd9     MOVFF     0xfd9,0xfe6    void printid(int data,int crtOn)                                                 C:\FrcCode\printf_lib.c
0014c2   ffe6                                                                                                               
0014c4   cfe1     MOVFF     0xfe1,0xfd9                                                                                     
0014c6   ffd9                                                                                                               
                                           {                                                                                C:\FrcCode\printf_lib.c
0014c8   0e61     MOVLW     0x61             printi (data, 10, 1, 4, 2, 'a');                                               C:\FrcCode\printf_lib.c
0014ca   6ee6     MOVWF     0xe6,0x0                                                                                        
0014cc   6ae6     CLRF      0xe6,0x0                                                                                        
0014ce   0e02     MOVLW     0x2                                                                                             
0014d0   6ee6     MOVWF     0xe6,0x0                                                                                        
0014d2   6ae6     CLRF      0xe6,0x0                                                                                        
0014d4   0e04     MOVLW     0x4                                                                                             
0014d6   6ee6     MOVWF     0xe6,0x0                                                                                        
0014d8   6ae6     CLRF      0xe6,0x0                                                                                        
0014da   0e01     MOVLW     0x1                                                                                             
0014dc   6ee6     MOVWF     0xe6,0x0                                                                                        
0014de   6ae6     CLRF      0xe6,0x0                                                                                        
0014e0   0e0a     MOVLW     0xa                                                                                             
0014e2   6ee6     MOVWF     0xe6,0x0                                                                                        
0014e4   6ae6     CLRF      0xe6,0x0                                                                                        
0014e6   0efd     MOVLW     0xfd                                                                                            
0014e8   cfdb     MOVFF     0xfdb,0xfe6                                                                                     
0014ea   ffe6                                                                                                               
0014ec   0efe     MOVLW     0xfe                                                                                            
0014ee   cfdb     MOVFF     0xfdb,0xfe6                                                                                     
0014f0   ffe6                                                                                                               
0014f2   ec73     CALL      0xae6,0x0                                                                                       
0014f4   f005                                                                                                               
0014f6   6ef5     MOVWF     0xf5,0x0                                                                                        
0014f8   0e0c     MOVLW     0xc                                                                                             
0014fa   5ee1     SUBWF     0xe1,0x1,0x0                                                                                    
0014fc   50f5     MOVF      0xf5,0x0,0x0                                                                                    
0014fe   50d9     MOVF      0xd9,0x0,0x0     if (crtOn)                                                                     C:\FrcCode\printf_lib.c
001500   0ffb     ADDLW     0xfb                                                                                            
001502   6ee9     MOVWF     0xe9,0x0                                                                                        
001504   0eff     MOVLW     0xff                                                                                            
001506   20da     ADDWFC    0xda,0x0,0x0                                                                                    
001508   6eea     MOVWF     0xea,0x0                                                                                        
00150a   50ee     MOVF      0xee,0x0,0x0                                                                                    
00150c   10ed     IORWF     0xed,0x0,0x0                                                                                    
00150e   e007     BZ        0x151e                                                                                          
001510   0e0d     MOVLW     0xd                Write_Byte_To_Uart('\r');                                                    C:\FrcCode\printf_lib.c
001512   6ee6     MOVWF     0xe6,0x0                                                                                        
001514   6ae6     CLRF      0xe6,0x0                                                                                        
001516   ec6a     CALL      0x8d4,0x0                                                                                       
001518   f004                                                                                                               
00151a   52e5     MOVF      0xe5,0x1,0x0                                                                                    
00151c   52e5     MOVF      0xe5,0x1,0x0                                                                                    
00151e   52e5     MOVF      0xe5,0x1,0x0   }                                                                                C:\FrcCode\printf_lib.c
001520   cfe7     MOVFF     0xfe7,0xfd9                                                                                     
001522   ffd9                                                                                                               
001524   0012     RETURN    0x0                                                                                             
                                                                                                                            C:\FrcCode\printf_lib.c
                                           /******************************************************************************* C:\FrcCode\printf_lib.c
                                           * FUNCTION NAME: printd                                                          C:\FrcCode\printf_lib.c
                                           * PURPOSE:       Prints an 8bit word (base 10) w/o a carriage return.            C:\FrcCode\printf_lib.c
                                           * RETURNS:       void                                                            C:\FrcCode\printf_lib.c
                                           *******************************************************************************/ C:\FrcCode\printf_lib.c
                                                                                                                            C:\FrcCode\printf_lib.c
001526   cfd9     MOVFF     0xfd9,0xfe6    void printd(unsigned char data,int crtOn)                                        C:\FrcCode\printf_lib.c
001528   ffe6                                                                                                               
00152a   cfe1     MOVFF     0xfe1,0xfd9                                                                                     
00152c   ffd9                                                                                                               
                                           {                                                                                C:\FrcCode\printf_lib.c
00152e   0e61     MOVLW     0x61             printi ((int) data, 10, 1, 3, 2, 'a');                                         C:\FrcCode\printf_lib.c
001530   6ee6     MOVWF     0xe6,0x0                                                                                        
001532   6ae6     CLRF      0xe6,0x0                                                                                        
001534   0e02     MOVLW     0x2                                                                                             
001536   6ee6     MOVWF     0xe6,0x0                                                                                        
001538   6ae6     CLRF      0xe6,0x0                                                                                        
00153a   0e03     MOVLW     0x3                                                                                             
00153c   6ee6     MOVWF     0xe6,0x0                                                                                        
00153e   6ae6     CLRF      0xe6,0x0                                                                                        
001540   0e01     MOVLW     0x1                                                                                             
001542   6ee6     MOVWF     0xe6,0x0                                                                                        
001544   6ae6     CLRF      0xe6,0x0                                                                                        
001546   0e0a     MOVLW     0xa                                                                                             
001548   6ee6     MOVWF     0xe6,0x0                                                                                        
00154a   6ae6     CLRF      0xe6,0x0                                                                                        
00154c   0efe     MOVLW     0xfe                                                                                            
00154e   cfdb     MOVFF     0xfdb,0xfe6                                                                                     
001550   ffe6                                                                                                               
001552   6ae6     CLRF      0xe6,0x0                                                                                        
001554   ec73     CALL      0xae6,0x0                                                                                       
001556   f005                                                                                                               
001558   6ef5     MOVWF     0xf5,0x0                                                                                        
00155a   0e0c     MOVLW     0xc                                                                                             
00155c   5ee1     SUBWF     0xe1,0x1,0x0                                                                                    
00155e   50f5     MOVF      0xf5,0x0,0x0                                                                                    
001560   50d9     MOVF      0xd9,0x0,0x0     if (crtOn)                                                                     C:\FrcCode\printf_lib.c
001562   0ffc     ADDLW     0xfc                                                                                            
001564   6ee9     MOVWF     0xe9,0x0                                                                                        
001566   0eff     MOVLW     0xff                                                                                            
001568   20da     ADDWFC    0xda,0x0,0x0                                                                                    
00156a   6eea     MOVWF     0xea,0x0                                                                                        
00156c   50ee     MOVF      0xee,0x0,0x0                                                                                    
00156e   10ed     IORWF     0xed,0x0,0x0                                                                                    
001570   e007     BZ        0x1580                                                                                          
001572   0e0d     MOVLW     0xd                Write_Byte_To_Uart('\r');                                                    C:\FrcCode\printf_lib.c
001574   6ee6     MOVWF     0xe6,0x0                                                                                        
001576   6ae6     CLRF      0xe6,0x0                                                                                        
001578   ec6a     CALL      0x8d4,0x0                                                                                       
00157a   f004                                                                                                               
00157c   52e5     MOVF      0xe5,0x1,0x0                                                                                    
00157e   52e5     MOVF      0xe5,0x1,0x0                                                                                    
001580   52e5     MOVF      0xe5,0x1,0x0   }                                                                                C:\FrcCode\printf_lib.c
001582   cfe7     MOVFF     0xfe7,0xfd9                                                                                     
001584   ffd9                                                                                                               
001586   0012     RETURN    0x0                                                                                             
                                                                                                                            C:\FrcCode\printf_lib.c
                                           /******************************************************************************* C:\FrcCode\printf_lib.c
                                           * FUNCTION NAME: printib                                                         C:\FrcCode\printf_lib.c
                                           * PURPOSE:       Prints a 16bit binary word (base 2) w/o a carriage return.      C:\FrcCode\printf_lib.c
                                           * RETURNS:       void                                                            C:\FrcCode\printf_lib.c
                                           *******************************************************************************/ C:\FrcCode\printf_lib.c
                                                                                                                            C:\FrcCode\printf_lib.c
001588   cfd9     MOVFF     0xfd9,0xfe6    void printib(unsigned int data,int crtOn)                                        C:\FrcCode\printf_lib.c
00158a   ffe6                                                                                                               
00158c   cfe1     MOVFF     0xfe1,0xfd9                                                                                     
00158e   ffd9                                                                                                               
                                           {                                                                                C:\FrcCode\printf_lib.c
001590   0e61     MOVLW     0x61             printi (data, 2, 0, 16, 2, 'a');                                               C:\FrcCode\printf_lib.c
001592   6ee6     MOVWF     0xe6,0x0                                                                                        
001594   6ae6     CLRF      0xe6,0x0                                                                                        
001596   0e02     MOVLW     0x2                                                                                             
001598   6ee6     MOVWF     0xe6,0x0                                                                                        
00159a   6ae6     CLRF      0xe6,0x0                                                                                        
00159c   0e10     MOVLW     0x10                                                                                            
00159e   6ee6     MOVWF     0xe6,0x0                                                                                        
0015a0   6ae6     CLRF      0xe6,0x0                                                                                        
0015a2   0e00     MOVLW     0x0                                                                                             
0015a4   6ee6     MOVWF     0xe6,0x0                                                                                        
0015a6   6ae6     CLRF      0xe6,0x0                                                                                        
0015a8   0e02     MOVLW     0x2                                                                                             
0015aa   6ee6     MOVWF     0xe6,0x0                                                                                        
0015ac   6ae6     CLRF      0xe6,0x0                                                                                        
0015ae   0efd     MOVLW     0xfd                                                                                            
0015b0   cfdb     MOVFF     0xfdb,0xfe6                                                                                     
0015b2   ffe6                                                                                                               
0015b4   0efe     MOVLW     0xfe                                                                                            
0015b6   cfdb     MOVFF     0xfdb,0xfe6                                                                                     
0015b8   ffe6                                                                                                               
0015ba   ec73     CALL      0xae6,0x0                                                                                       
0015bc   f005                                                                                                               
0015be   6ef5     MOVWF     0xf5,0x0                                                                                        
0015c0   0e0c     MOVLW     0xc                                                                                             
0015c2   5ee1     SUBWF     0xe1,0x1,0x0                                                                                    
0015c4   50f5     MOVF      0xf5,0x0,0x0                                                                                    
0015c6   50d9     MOVF      0xd9,0x0,0x0     if (crtOn)                                                                     C:\FrcCode\printf_lib.c
0015c8   0ffb     ADDLW     0xfb                                                                                            
0015ca   6ee9     MOVWF     0xe9,0x0                                                                                        
0015cc   0eff     MOVLW     0xff                                                                                            
0015ce   20da     ADDWFC    0xda,0x0,0x0                                                                                    
0015d0   6eea     MOVWF     0xea,0x0                                                                                        
0015d2   50ee     MOVF      0xee,0x0,0x0                                                                                    
0015d4   10ed     IORWF     0xed,0x0,0x0                                                                                    
0015d6   e007     BZ        0x15e6                                                                                          
0015d8   0e0d     MOVLW     0xd                Write_Byte_To_Uart('\r');                                                    C:\FrcCode\printf_lib.c
0015da   6ee6     MOVWF     0xe6,0x0                                                                                        
0015dc   6ae6     CLRF      0xe6,0x0                                                                                        
0015de   ec6a     CALL      0x8d4,0x0                                                                                       
0015e0   f004                                                                                                               
0015e2   52e5     MOVF      0xe5,0x1,0x0                                                                                    
0015e4   52e5     MOVF      0xe5,0x1,0x0                                                                                    
0015e6   52e5     MOVF      0xe5,0x1,0x0   }                                                                                C:\FrcCode\printf_lib.c
0015e8   cfe7     MOVFF     0xfe7,0xfd9                                                                                     
0015ea   ffd9                                                                                                               
0015ec   0012     RETURN    0x0                                                                                             
                                                                                                                            C:\FrcCode\printf_lib.c
                                           /******************************************************************************* C:\FrcCode\printf_lib.c
                                           * FUNCTION NAME: printb                                                          C:\FrcCode\printf_lib.c
                                           * PURPOSE:       Prints an 8bit binary word (base 2) w/o a carriage return.      C:\FrcCode\printf_lib.c
                                           * RETURNS:       void                                                            C:\FrcCode\printf_lib.c
                                           *******************************************************************************/ C:\FrcCode\printf_lib.c
                                                                                                                            C:\FrcCode\printf_lib.c
0015ee   cfd9     MOVFF     0xfd9,0xfe6    void printb(unsigned char data,int crtOn)                                        C:\FrcCode\printf_lib.c
0015f0   ffe6                                                                                                               
0015f2   cfe1     MOVFF     0xfe1,0xfd9                                                                                     
0015f4   ffd9                                                                                                               
                                           {                                                                                C:\FrcCode\printf_lib.c
0015f6   0e61     MOVLW     0x61             printi ((int) data, 2, 0, 8, 2, 'a');                                          C:\FrcCode\printf_lib.c
0015f8   6ee6     MOVWF     0xe6,0x0                                                                                        
0015fa   6ae6     CLRF      0xe6,0x0                                                                                        
0015fc   0e02     MOVLW     0x2                                                                                             
0015fe   6ee6     MOVWF     0xe6,0x0                                                                                        
001600   6ae6     CLRF      0xe6,0x0                                                                                        
001602   0e08     MOVLW     0x8                                                                                             
001604   6ee6     MOVWF     0xe6,0x0                                                                                        
001606   6ae6     CLRF      0xe6,0x0                                                                                        
001608   0e00     MOVLW     0x0                                                                                             
00160a   6ee6     MOVWF     0xe6,0x0                                                                                        
00160c   6ae6     CLRF      0xe6,0x0                                                                                        
00160e   0e02     MOVLW     0x2                                                                                             
001610   6ee6     MOVWF     0xe6,0x0                                                                                        
001612   6ae6     CLRF      0xe6,0x0                                                                                        
001614   0efe     MOVLW     0xfe                                                                                            
001616   cfdb     MOVFF     0xfdb,0xfe6                                                                                     
001618   ffe6                                                                                                               
00161a   6ae6     CLRF      0xe6,0x0                                                                                        
00161c   ec73     CALL      0xae6,0x0                                                                                       
00161e   f005                                                                                                               
001620   6ef5     MOVWF     0xf5,0x0                                                                                        
001622   0e0c     MOVLW     0xc                                                                                             
001624   5ee1     SUBWF     0xe1,0x1,0x0                                                                                    
001626   50f5     MOVF      0xf5,0x0,0x0                                                                                    
001628   50d9     MOVF      0xd9,0x0,0x0     if (crtOn)                                                                     C:\FrcCode\printf_lib.c
00162a   0ffc     ADDLW     0xfc                                                                                            
00162c   6ee9     MOVWF     0xe9,0x0                                                                                        
00162e   0eff     MOVLW     0xff                                                                                            
001630   20da     ADDWFC    0xda,0x0,0x0                                                                                    
001632   6eea     MOVWF     0xea,0x0                                                                                        
001634   50ee     MOVF      0xee,0x0,0x0                                                                                    
001636   10ed     IORWF     0xed,0x0,0x0                                                                                    
001638   e007     BZ        0x1648                                                                                          
00163a   0e0d     MOVLW     0xd                Write_Byte_To_Uart('\r');                                                    C:\FrcCode\printf_lib.c
00163c   6ee6     MOVWF     0xe6,0x0                                                                                        
00163e   6ae6     CLRF      0xe6,0x0                                                                                        
001640   ec6a     CALL      0x8d4,0x0                                                                                       
001642   f004                                                                                                               
001644   52e5     MOVF      0xe5,0x1,0x0                                                                                    
001646   52e5     MOVF      0xe5,0x1,0x0                                                                                    
001648   52e5     MOVF      0xe5,0x1,0x0   }                                                                                C:\FrcCode\printf_lib.c
00164a   cfe7     MOVFF     0xfe7,0xfd9                                                                                     
00164c   ffd9                                                                                                               
00164e   0012     RETURN    0x0                                                                                             
                                                                                                                            C:\FrcCode\printf_lib.c
                                           /******************************************************************************* C:\FrcCode\printf_lib.c
                                           * FUNCTION NAME: printix                                                         C:\FrcCode\printf_lib.c
                                           * PURPOSE:       Prints a 16bit hex word (base 16) w/o a carriage return.        C:\FrcCode\printf_lib.c
                                           * RETURNS:       void                                                            C:\FrcCode\printf_lib.c
                                           *******************************************************************************/ C:\FrcCode\printf_lib.c
                                                                                                                            C:\FrcCode\printf_lib.c
001650   cfd9     MOVFF     0xfd9,0xfe6    void printix(int data,int crtOn)                                                 C:\FrcCode\printf_lib.c
001652   ffe6                                                                                                               
001654   cfe1     MOVFF     0xfe1,0xfd9                                                                                     
001656   ffd9                                                                                                               
                                           {                                                                                C:\FrcCode\printf_lib.c
001658   0e61     MOVLW     0x61             printi (data, 16, 0, 2, 0, 'a');                                               C:\FrcCode\printf_lib.c
00165a   6ee6     MOVWF     0xe6,0x0                                                                                        
00165c   6ae6     CLRF      0xe6,0x0                                                                                        
00165e   0e00     MOVLW     0x0                                                                                             
001660   6ee6     MOVWF     0xe6,0x0                                                                                        
001662   6ae6     CLRF      0xe6,0x0                                                                                        
001664   0e02     MOVLW     0x2                                                                                             
001666   6ee6     MOVWF     0xe6,0x0                                                                                        
001668   6ae6     CLRF      0xe6,0x0                                                                                        
00166a   0e00     MOVLW     0x0                                                                                             
00166c   6ee6     MOVWF     0xe6,0x0                                                                                        
00166e   6ae6     CLRF      0xe6,0x0                                                                                        
001670   0e10     MOVLW     0x10                                                                                            
001672   6ee6     MOVWF     0xe6,0x0                                                                                        
001674   6ae6     CLRF      0xe6,0x0                                                                                        
001676   0efd     MOVLW     0xfd                                                                                            
001678   cfdb     MOVFF     0xfdb,0xfe6                                                                                     
00167a   ffe6                                                                                                               
00167c   0efe     MOVLW     0xfe                                                                                            
00167e   cfdb     MOVFF     0xfdb,0xfe6                                                                                     
001680   ffe6                                                                                                               
001682   ec73     CALL      0xae6,0x0                                                                                       
001684   f005                                                                                                               
001686   6ef5     MOVWF     0xf5,0x0                                                                                        
001688   0e0c     MOVLW     0xc                                                                                             
00168a   5ee1     SUBWF     0xe1,0x1,0x0                                                                                    
00168c   50f5     MOVF      0xf5,0x0,0x0                                                                                    
00168e   50d9     MOVF      0xd9,0x0,0x0     if (crtOn)                                                                     C:\FrcCode\printf_lib.c
001690   0ffb     ADDLW     0xfb                                                                                            
001692   6ee9     MOVWF     0xe9,0x0                                                                                        
001694   0eff     MOVLW     0xff                                                                                            
001696   20da     ADDWFC    0xda,0x0,0x0                                                                                    
001698   6eea     MOVWF     0xea,0x0                                                                                        
00169a   50ee     MOVF      0xee,0x0,0x0                                                                                    
00169c   10ed     IORWF     0xed,0x0,0x0                                                                                    
00169e   e007     BZ        0x16ae                                                                                          
0016a0   0e0d     MOVLW     0xd                Write_Byte_To_Uart('\r');                                                    C:\FrcCode\printf_lib.c
0016a2   6ee6     MOVWF     0xe6,0x0                                                                                        
0016a4   6ae6     CLRF      0xe6,0x0                                                                                        
0016a6   ec6a     CALL      0x8d4,0x0                                                                                       
0016a8   f004                                                                                                               
0016aa   52e5     MOVF      0xe5,0x1,0x0                                                                                    
0016ac   52e5     MOVF      0xe5,0x1,0x0                                                                                    
0016ae   52e5     MOVF      0xe5,0x1,0x0   }                                                                                C:\FrcCode\printf_lib.c
0016b0   cfe7     MOVFF     0xfe7,0xfd9                                                                                     
0016b2   ffd9                                                                                                               
0016b4   0012     RETURN    0x0                                                                                             
                                                                                                                            C:\FrcCode\printf_lib.c
                                           /******************************************************************************* C:\FrcCode\printf_lib.c
                                           * FUNCTION NAME: printx                                                          C:\FrcCode\printf_lib.c
                                           * PURPOSE:       Prints an 8bit hex word (base 16) w/o a carriage return.        C:\FrcCode\printf_lib.c
                                           * RETURNS:       void                                                            C:\FrcCode\printf_lib.c
                                           *******************************************************************************/ C:\FrcCode\printf_lib.c
                                                                                                                            C:\FrcCode\printf_lib.c
0016b6   cfd9     MOVFF     0xfd9,0xfe6    void printx(unsigned char data,int crtOn)                                        C:\FrcCode\printf_lib.c
0016b8   ffe6                                                                                                               
0016ba   cfe1     MOVFF     0xfe1,0xfd9                                                                                     
0016bc   ffd9                                                                                                               
                                           {                                                                                C:\FrcCode\printf_lib.c
0016be   0e61     MOVLW     0x61             printi ((int) data, 16, 0, 2, 2, 'a');                                         C:\FrcCode\printf_lib.c
0016c0   6ee6     MOVWF     0xe6,0x0                                                                                        
0016c2   6ae6     CLRF      0xe6,0x0                                                                                        
0016c4   0e02     MOVLW     0x2                                                                                             
0016c6   6ee6     MOVWF     0xe6,0x0                                                                                        
0016c8   6ae6     CLRF      0xe6,0x0                                                                                        
0016ca   6ee6     MOVWF     0xe6,0x0                                                                                        
0016cc   6ae6     CLRF      0xe6,0x0                                                                                        
0016ce   0e00     MOVLW     0x0                                                                                             
0016d0   6ee6     MOVWF     0xe6,0x0                                                                                        
0016d2   6ae6     CLRF      0xe6,0x0                                                                                        
0016d4   0e10     MOVLW     0x10                                                                                            
0016d6   6ee6     MOVWF     0xe6,0x0                                                                                        
0016d8   6ae6     CLRF      0xe6,0x0                                                                                        
0016da   0efe     MOVLW     0xfe                                                                                            
0016dc   cfdb     MOVFF     0xfdb,0xfe6                                                                                     
0016de   ffe6                                                                                                               
0016e0   6ae6     CLRF      0xe6,0x0                                                                                        
0016e2   ec73     CALL      0xae6,0x0                                                                                       
0016e4   f005                                                                                                               
0016e6   6ef5     MOVWF     0xf5,0x0                                                                                        
0016e8   0e0c     MOVLW     0xc                                                                                             
0016ea   5ee1     SUBWF     0xe1,0x1,0x0                                                                                    
0016ec   50f5     MOVF      0xf5,0x0,0x0                                                                                    
0016ee   50d9     MOVF      0xd9,0x0,0x0     if (crtOn)                                                                     C:\FrcCode\printf_lib.c
0016f0   0ffc     ADDLW     0xfc                                                                                            
0016f2   6ee9     MOVWF     0xe9,0x0                                                                                        
0016f4   0eff     MOVLW     0xff                                                                                            
0016f6   20da     ADDWFC    0xda,0x0,0x0                                                                                    
0016f8   6eea     MOVWF     0xea,0x0                                                                                        
0016fa   50ee     MOVF      0xee,0x0,0x0                                                                                    
0016fc   10ed     IORWF     0xed,0x0,0x0                                                                                    
0016fe   e007     BZ        0x170e                                                                                          
001700   0e0d     MOVLW     0xd                Write_Byte_To_Uart('\r');                                                    C:\FrcCode\printf_lib.c
001702   6ee6     MOVWF     0xe6,0x0                                                                                        
001704   6ae6     CLRF      0xe6,0x0                                                                                        
001706   ec6a     CALL      0x8d4,0x0                                                                                       
001708   f004                                                                                                               
00170a   52e5     MOVF      0xe5,0x1,0x0                                                                                    
00170c   52e5     MOVF      0xe5,0x1,0x0                                                                                    
00170e   52e5     MOVF      0xe5,0x1,0x0   }                                                                                C:\FrcCode\printf_lib.c
001710   cfe7     MOVFF     0xfe7,0xfd9                                                                                     
001712   ffd9                                                                                                               
001714   0012     RETURN    0x0                                                                                             
                                                                                                                            C:\FrcCode\printf_lib.c
                                           /******************************************************************************* C:\FrcCode\printf_lib.c
                                           * FUNCTION NAME: debug_print                                                     C:\FrcCode\printf_lib.c
                                           * PURPOSE:       Prints a header and a 16bit hex word (base 16) with a carriage  C:\FrcCode\printf_lib.c
                                           *                return.                                                         C:\FrcCode\printf_lib.c
                                           * RETURNS:       void                                                            C:\FrcCode\printf_lib.c
                                           *******************************************************************************/ C:\FrcCode\printf_lib.c
                                                                                                                            C:\FrcCode\printf_lib.c
001716   cfd9     MOVFF     0xfd9,0xfe6    void debug_print(char *bufr,int data)                                            C:\FrcCode\printf_lib.c
001718   ffe6                                                                                                               
00171a   cfe1     MOVFF     0xfe1,0xfd9                                                                                     
00171c   ffd9                                                                                                               
                                           {                                                                                C:\FrcCode\printf_lib.c
00171e   0efd     MOVLW     0xfd             strcpypgm2ram (ifi_printfBufr,(rom char *) bufr);                              C:\FrcCode\printf_lib.c
001720   cfdb     MOVFF     0xfdb,0x2b                                                                                      
001722   f02b                                                                                                               
001724   0efe     MOVLW     0xfe                                                                                            
001726   cfdb     MOVFF     0xfdb,0x2c                                                                                      
001728   f02c                                                                                                               
00172a   6a2d     CLRF      0x2d,0x0                                                                                        
00172c   c02b     MOVFF     0x2b,0xfe6                                                                                      
00172e   ffe6                                                                                                               
001730   c02c     MOVFF     0x2c,0xfe6                                                                                      
001732   ffe6                                                                                                               
001734   c02d     MOVFF     0x2d,0xfe6                                                                                      
001736   ffe6                                                                                                               
001738   0e00     MOVLW     0x0                                                                                             
00173a   6ee6     MOVWF     0xe6,0x0                                                                                        
00173c   0e07     MOVLW     0x7                                                                                             
00173e   6ee6     MOVWF     0xe6,0x0                                                                                        
001740   ec20     CALL      0x3440,0x0                                                                                      
001742   f01a                                                                                                               
001744   6ef5     MOVWF     0xf5,0x0                                                                                        
001746   0e05     MOVLW     0x5                                                                                             
001748   5ee1     SUBWF     0xe1,0x1,0x0                                                                                    
00174a   50f5     MOVF      0xf5,0x0,0x0                                                                                    
00174c   0107     MOVLB     0x7              for (k=0;k<strlen(ifi_printfBufr);k++)                                         C:\FrcCode\printf_lib.c
00174e   6baf     CLRF      0xaf,0x1                                                                                        
001750   6bb0     CLRF      0xb0,0x1                                                                                        
001752   0e00     MOVLW     0x0                                                                                             
001754   6ee6     MOVWF     0xe6,0x0                                                                                        
001756   0e07     MOVLW     0x7                                                                                             
001758   6ee6     MOVWF     0xe6,0x0                                                                                        
00175a   ec39     CALL      0x3472,0x0                                                                                      
00175c   f01a                                                                                                               
00175e   52e5     MOVF      0xe5,0x1,0x0                                                                                    
001760   52e5     MOVF      0xe5,0x1,0x0                                                                                    
001762   cff3     MOVFF     0xff3,0x2b                                                                                      
001764   f02b                                                                                                               
001766   cff4     MOVFF     0xff4,0x2c                                                                                      
001768   f02c                                                                                                               
00176a   0107     MOVLB     0x7                                                                                             
00176c   502b     MOVF      0x2b,0x0,0x0                                                                                    
00176e   5daf     SUBWF     0xaf,0x0,0x1                                                                                    
001770   502c     MOVF      0x2c,0x0,0x0                                                                                    
001772   59b0     SUBWFB    0xb0,0x0,0x1                                                                                    
001774   e218     BC        0x17a6                                                                                          
00179c   0107     MOVLB     0x7                                                                                             
00179e   2baf     INCF      0xaf,0x1,0x1                                                                                    
0017a0   0e00     MOVLW     0x0                                                                                             
0017a2   23b0     ADDWFC    0xb0,0x1,0x1                                                                                    
0017a4   d7d6     BRA       0x1752                                                                                          
001776   0e00     MOVLW     0x0                Write_Byte_To_Uart(ifi_printfBufr[k]);                                       C:\FrcCode\printf_lib.c
001778   25af     ADDWF     0xaf,0x0,0x1                                                                                    
00177a   6ee9     MOVWF     0xe9,0x0                                                                                        
00177c   0e07     MOVLW     0x7                                                                                             
00177e   21b0     ADDWFC    0xb0,0x0,0x1                                                                                    
001780   6eea     MOVWF     0xea,0x0                                                                                        
001782   cfef     MOVFF     0xfef,0x2b                                                                                      
001784   f02b                                                                                                               
001786   6a2c     CLRF      0x2c,0x0                                                                                        
001788   be2b     BTFSC     0x2b,0x7,0x0                                                                                    
00178a   682c     SETF      0x2c,0x0                                                                                        
00178c   c02b     MOVFF     0x2b,0xfe6                                                                                      
00178e   ffe6                                                                                                               
001790   c02c     MOVFF     0x2c,0xfe6                                                                                      
001792   ffe6                                                                                                               
001794   ec6a     CALL      0x8d4,0x0                                                                                       
001796   f004                                                                                                               
001798   52e5     MOVF      0xe5,0x1,0x0                                                                                    
00179a   52e5     MOVF      0xe5,0x1,0x0                                                                                    
0017a6   0e01     MOVLW     0x1              printix(data,1);                                                               C:\FrcCode\printf_lib.c
0017a8   6ee6     MOVWF     0xe6,0x0                                                                                        
0017aa   6ae6     CLRF      0xe6,0x0                                                                                        
0017ac   0efb     MOVLW     0xfb                                                                                            
0017ae   cfdb     MOVFF     0xfdb,0xfe6                                                                                     
0017b0   ffe6                                                                                                               
0017b2   0efc     MOVLW     0xfc                                                                                            
0017b4   cfdb     MOVFF     0xfdb,0xfe6                                                                                     
0017b6   ffe6                                                                                                               
0017b8   df4b     RCALL     0x1650                                                                                          
0017ba   52e5     MOVF      0xe5,0x1,0x0                                                                                    
0017bc   52e5     MOVF      0xe5,0x1,0x0                                                                                    
0017be   52e5     MOVF      0xe5,0x1,0x0                                                                                    
0017c0   52e5     MOVF      0xe5,0x1,0x0                                                                                    
0017c2   52e5     MOVF      0xe5,0x1,0x0   }                                                                                C:\FrcCode\printf_lib.c
0017c4   cfe7     MOVFF     0xfe7,0xfd9                                                                                     
0017c6   ffd9                                                                                                               
0017c8   0012     RETURN    0x0                                                                                             
                                                                                                                            C:\FrcCode\printf_lib.c
                                           /******************************************************************************* C:\FrcCode\printf_lib.c
                                           * FUNCTION NAME: debug_printb                                                    C:\FrcCode\printf_lib.c
                                           * PURPOSE:       Prints a header and an 8bit binary word (base 2) with a carriage  C:\FrcCode\printf_lib.c
                                           *                return.                                                         C:\FrcCode\printf_lib.c
                                           * RETURNS:       void                                                            C:\FrcCode\printf_lib.c
                                           *******************************************************************************/ C:\FrcCode\printf_lib.c
                                                                                                                            C:\FrcCode\printf_lib.c
0017ca   cfd9     MOVFF     0xfd9,0xfe6    void debug_printb(char *bufr,unsigned int data)                                  C:\FrcCode\printf_lib.c
0017cc   ffe6                                                                                                               
0017ce   cfe1     MOVFF     0xfe1,0xfd9                                                                                     
0017d0   ffd9                                                                                                               
                                           {                                                                                C:\FrcCode\printf_lib.c
0017d2   0efd     MOVLW     0xfd             strcpypgm2ram (ifi_printfBufr,(rom char *) bufr);                              C:\FrcCode\printf_lib.c
0017d4   cfdb     MOVFF     0xfdb,0x2b                                                                                      
0017d6   f02b                                                                                                               
0017d8   0efe     MOVLW     0xfe                                                                                            
0017da   cfdb     MOVFF     0xfdb,0x2c                                                                                      
0017dc   f02c                                                                                                               
0017de   6a2d     CLRF      0x2d,0x0                                                                                        
0017e0   c02b     MOVFF     0x2b,0xfe6                                                                                      
0017e2   ffe6                                                                                                               
0017e4   c02c     MOVFF     0x2c,0xfe6                                                                                      
0017e6   ffe6                                                                                                               
0017e8   c02d     MOVFF     0x2d,0xfe6                                                                                      
0017ea   ffe6                                                                                                               
0017ec   0e00     MOVLW     0x0                                                                                             
0017ee   6ee6     MOVWF     0xe6,0x0                                                                                        
0017f0   0e07     MOVLW     0x7                                                                                             
0017f2   6ee6     MOVWF     0xe6,0x0                                                                                        
0017f4   ec20     CALL      0x3440,0x0                                                                                      
0017f6   f01a                                                                                                               
0017f8   6ef5     MOVWF     0xf5,0x0                                                                                        
0017fa   0e05     MOVLW     0x5                                                                                             
0017fc   5ee1     SUBWF     0xe1,0x1,0x0                                                                                    
0017fe   50f5     MOVF      0xf5,0x0,0x0                                                                                    
001800   0107     MOVLB     0x7              for (k=0;k<strlen(ifi_printfBufr);k++)                                         C:\FrcCode\printf_lib.c
001802   6baf     CLRF      0xaf,0x1                                                                                        
001804   6bb0     CLRF      0xb0,0x1                                                                                        
001806   0e00     MOVLW     0x0                                                                                             
001808   6ee6     MOVWF     0xe6,0x0                                                                                        
00180a   0e07     MOVLW     0x7                                                                                             
00180c   6ee6     MOVWF     0xe6,0x0                                                                                        
00180e   ec39     CALL      0x3472,0x0                                                                                      
001810   f01a                                                                                                               
001812   52e5     MOVF      0xe5,0x1,0x0                                                                                    
001814   52e5     MOVF      0xe5,0x1,0x0                                                                                    
001816   cff3     MOVFF     0xff3,0x2b                                                                                      
001818   f02b                                                                                                               
00181a   cff4     MOVFF     0xff4,0x2c                                                                                      
00181c   f02c                                                                                                               
00181e   0107     MOVLB     0x7                                                                                             
001820   502b     MOVF      0x2b,0x0,0x0                                                                                    
001822   5daf     SUBWF     0xaf,0x0,0x1                                                                                    
001824   502c     MOVF      0x2c,0x0,0x0                                                                                    
001826   59b0     SUBWFB    0xb0,0x0,0x1                                                                                    
001828   e218     BC        0x185a                                                                                          
001850   0107     MOVLB     0x7                                                                                             
001852   2baf     INCF      0xaf,0x1,0x1                                                                                    
001854   0e00     MOVLW     0x0                                                                                             
001856   23b0     ADDWFC    0xb0,0x1,0x1                                                                                    
001858   d7d6     BRA       0x1806                                                                                          
00182a   0e00     MOVLW     0x0                Write_Byte_To_Uart(ifi_printfBufr[k]);                                       C:\FrcCode\printf_lib.c
00182c   25af     ADDWF     0xaf,0x0,0x1                                                                                    
00182e   6ee9     MOVWF     0xe9,0x0                                                                                        
001830   0e07     MOVLW     0x7                                                                                             
001832   21b0     ADDWFC    0xb0,0x0,0x1                                                                                    
001834   6eea     MOVWF     0xea,0x0                                                                                        
001836   cfef     MOVFF     0xfef,0x2b                                                                                      
001838   f02b                                                                                                               
00183a   6a2c     CLRF      0x2c,0x0                                                                                        
00183c   be2b     BTFSC     0x2b,0x7,0x0                                                                                    
00183e   682c     SETF      0x2c,0x0                                                                                        
001840   c02b     MOVFF     0x2b,0xfe6                                                                                      
001842   ffe6                                                                                                               
001844   c02c     MOVFF     0x2c,0xfe6                                                                                      
001846   ffe6                                                                                                               
001848   ec6a     CALL      0x8d4,0x0                                                                                       
00184a   f004                                                                                                               
00184c   52e5     MOVF      0xe5,0x1,0x0                                                                                    
00184e   52e5     MOVF      0xe5,0x1,0x0                                                                                    
00185a   0e01     MOVLW     0x1              printib(data,1);                                                               C:\FrcCode\printf_lib.c
00185c   6ee6     MOVWF     0xe6,0x0                                                                                        
00185e   6ae6     CLRF      0xe6,0x0                                                                                        
001860   0efb     MOVLW     0xfb                                                                                            
001862   cfdb     MOVFF     0xfdb,0xfe6                                                                                     
001864   ffe6                                                                                                               
001866   0efc     MOVLW     0xfc                                                                                            
001868   cfdb     MOVFF     0xfdb,0xfe6                                                                                     
00186a   ffe6                                                                                                               
00186c   de8d     RCALL     0x1588                                                                                          
00186e   52e5     MOVF      0xe5,0x1,0x0                                                                                    
001870   52e5     MOVF      0xe5,0x1,0x0                                                                                    
001872   52e5     MOVF      0xe5,0x1,0x0                                                                                    
001874   52e5     MOVF      0xe5,0x1,0x0                                                                                    
001876   52e5     MOVF      0xe5,0x1,0x0   }                                                                                C:\FrcCode\printf_lib.c
001878   cfe7     MOVFF     0xfe7,0xfd9                                                                                     
00187a   ffd9                                                                                                               
00187c   0012     RETURN    0x0                                                                                             
                                                                                                                            C:\FrcCode\printf_lib.c
                                           /******************************************************************************* C:\FrcCode\printf_lib.c
                                           * FUNCTION NAME: debug_println                                                   C:\FrcCode\printf_lib.c
                                           * PURPOSE:       Prints a header (assumming a carriage return is supplied).      C:\FrcCode\printf_lib.c
                                           * RETURNS:       void                                                            C:\FrcCode\printf_lib.c
                                           *******************************************************************************/ C:\FrcCode\printf_lib.c
                                                                                                                            C:\FrcCode\printf_lib.c
00187e   cfd9     MOVFF     0xfd9,0xfe6    void debug_println(char *bufr)                                                   C:\FrcCode\printf_lib.c
001880   ffe6                                                                                                               
001882   cfe1     MOVFF     0xfe1,0xfd9                                                                                     
001884   ffd9                                                                                                               
                                           {                                                                                C:\FrcCode\printf_lib.c
001886   0efd     MOVLW     0xfd             strcpypgm2ram (ifi_printfBufr,(rom char *) bufr);                              C:\FrcCode\printf_lib.c
001888   cfdb     MOVFF     0xfdb,0x2b                                                                                      
00188a   f02b                                                                                                               
00188c   0efe     MOVLW     0xfe                                                                                            
00188e   cfdb     MOVFF     0xfdb,0x2c                                                                                      
001890   f02c                                                                                                               
001892   6a2d     CLRF      0x2d,0x0                                                                                        
001894   c02b     MOVFF     0x2b,0xfe6                                                                                      
001896   ffe6                                                                                                               
001898   c02c     MOVFF     0x2c,0xfe6                                                                                      
00189a   ffe6                                                                                                               
00189c   c02d     MOVFF     0x2d,0xfe6                                                                                      
00189e   ffe6                                                                                                               
0018a0   0e00     MOVLW     0x0                                                                                             
0018a2   6ee6     MOVWF     0xe6,0x0                                                                                        
0018a4   0e07     MOVLW     0x7                                                                                             
0018a6   6ee6     MOVWF     0xe6,0x0                                                                                        
0018a8   ec20     CALL      0x3440,0x0                                                                                      
0018aa   f01a                                                                                                               
0018ac   6ef5     MOVWF     0xf5,0x0                                                                                        
0018ae   0e05     MOVLW     0x5                                                                                             
0018b0   5ee1     SUBWF     0xe1,0x1,0x0                                                                                    
0018b2   50f5     MOVF      0xf5,0x0,0x0                                                                                    
0018b4   0107     MOVLB     0x7              for (k=0;k<strlen(ifi_printfBufr);k++)                                         C:\FrcCode\printf_lib.c
0018b6   6baf     CLRF      0xaf,0x1                                                                                        
0018b8   6bb0     CLRF      0xb0,0x1                                                                                        
0018ba   0e00     MOVLW     0x0                                                                                             
0018bc   6ee6     MOVWF     0xe6,0x0                                                                                        
0018be   0e07     MOVLW     0x7                                                                                             
0018c0   6ee6     MOVWF     0xe6,0x0                                                                                        
0018c2   ec39     CALL      0x3472,0x0                                                                                      
0018c4   f01a                                                                                                               
0018c6   52e5     MOVF      0xe5,0x1,0x0                                                                                    
0018c8   52e5     MOVF      0xe5,0x1,0x0                                                                                    
0018ca   cff3     MOVFF     0xff3,0x2b                                                                                      
0018cc   f02b                                                                                                               
0018ce   cff4     MOVFF     0xff4,0x2c                                                                                      
0018d0   f02c                                                                                                               
0018d2   0107     MOVLB     0x7                                                                                             
0018d4   502b     MOVF      0x2b,0x0,0x0                                                                                    
0018d6   5daf     SUBWF     0xaf,0x0,0x1                                                                                    
0018d8   502c     MOVF      0x2c,0x0,0x0                                                                                    
0018da   59b0     SUBWFB    0xb0,0x0,0x1                                                                                    
0018dc   e218     BC        0x190e                                                                                          
001904   0107     MOVLB     0x7                                                                                             
001906   2baf     INCF      0xaf,0x1,0x1                                                                                    
001908   0e00     MOVLW     0x0                                                                                             
00190a   23b0     ADDWFC    0xb0,0x1,0x1                                                                                    
00190c   d7d6     BRA       0x18ba                                                                                          
0018de   0e00     MOVLW     0x0                Write_Byte_To_Uart(ifi_printfBufr[k]);                                       C:\FrcCode\printf_lib.c
0018e0   25af     ADDWF     0xaf,0x0,0x1                                                                                    
0018e2   6ee9     MOVWF     0xe9,0x0                                                                                        
0018e4   0e07     MOVLW     0x7                                                                                             
0018e6   21b0     ADDWFC    0xb0,0x0,0x1                                                                                    
0018e8   6eea     MOVWF     0xea,0x0                                                                                        
0018ea   cfef     MOVFF     0xfef,0x2b                                                                                      
0018ec   f02b                                                                                                               
0018ee   6a2c     CLRF      0x2c,0x0                                                                                        
0018f0   be2b     BTFSC     0x2b,0x7,0x0                                                                                    
0018f2   682c     SETF      0x2c,0x0                                                                                        
0018f4   c02b     MOVFF     0x2b,0xfe6                                                                                      
0018f6   ffe6                                                                                                               
0018f8   c02c     MOVFF     0x2c,0xfe6                                                                                      
0018fa   ffe6                                                                                                               
0018fc   ec6a     CALL      0x8d4,0x0                                                                                       
0018fe   f004                                                                                                               
001900   52e5     MOVF      0xe5,0x1,0x0                                                                                    
001902   52e5     MOVF      0xe5,0x1,0x0                                                                                    
00190e   52e5     MOVF      0xe5,0x1,0x0   }                                                                                C:\FrcCode\printf_lib.c
001910   cfe7     MOVFF     0xfe7,0xfd9                                                                                     
001912   ffd9                                                                                                               
001914   0012     RETURN    0x0                                                                                             
                                                                                                                            C:\FrcCode\printf_lib.c
                                                                                                                            C:\FrcCode\printf_lib.c
                                           /******************************************************************************/ C:\FrcCode\printf_lib.c
                                           /******************************************************************************/ C:\FrcCode\printf_lib.c
                                           /******************************************************************************/ C:\FrcCode\printf_lib.c
                                           /******************************************************************************* C:\FrcCode\ifi_utilities.c
                                           * FILE NAME: ifi_utilities.c                                                     C:\FrcCode\ifi_utilities.c
                                           *                                                                                C:\FrcCode\ifi_utilities.c
                                           * DESCRIPTION:                                                                   C:\FrcCode\ifi_utilities.c
                                           *  This file contains some useful functions that you can call in your program.   C:\FrcCode\ifi_utilities.c
                                           *                                                                                C:\FrcCode\ifi_utilities.c
                                           * USAGE:                                                                         C:\FrcCode\ifi_utilities.c
                                           *  The user should NOT modify this file, so that if a new version is released    C:\FrcCode\ifi_utilities.c
                                           *  by Innovation First then it can be easily replaced.                           C:\FrcCode\ifi_utilities.c
                                           *  The user should add their own functions to either user_routines.c or another  C:\FrcCode\ifi_utilities.c
                                           *  custom file.                                                                  C:\FrcCode\ifi_utilities.c
                                           *                                                                                C:\FrcCode\ifi_utilities.c
                                           *******************************************************************************/ C:\FrcCode\ifi_utilities.c
                                                                                                                            C:\FrcCode\ifi_utilities.c
                                           #include <usart.h>                                                               C:\FrcCode\ifi_utilities.c
                                           #include <spi.h>                                                                 C:\FrcCode\ifi_utilities.c
                                           #include <adc.h>                                                                 C:\FrcCode\ifi_utilities.c
                                           #include <capture.h>                                                             C:\FrcCode\ifi_utilities.c
                                           #include <timers.h>                                                              C:\FrcCode\ifi_utilities.c
                                           #include <string.h>                                                              C:\FrcCode\ifi_utilities.c
                                           #include <pwm.h>                                                                 C:\FrcCode\ifi_utilities.c
                                           #include "delays.h"       /*defined locally*/                                    C:\FrcCode\ifi_utilities.c
                                           #include "ifi_aliases.h"                                                         C:\FrcCode\ifi_utilities.c
                                           #include "ifi_default.h"                                                         C:\FrcCode\ifi_utilities.c
                                           #include "ifi_utilities.h"                                                       C:\FrcCode\ifi_utilities.c
                                           #include "user_routines.h"                                                       C:\FrcCode\ifi_utilities.c
                                                                                                                            C:\FrcCode\ifi_utilities.c
                                           int             ifi_packet_num1 = 0;                                             C:\FrcCode\ifi_utilities.c
                                           int             ifi_last_packet1 = 0;                                            C:\FrcCode\ifi_utilities.c
                                           char            ifi_printfBufr[80];                                              C:\FrcCode\ifi_utilities.c
                                           unsigned char   *ptr;                                                            C:\FrcCode\ifi_utilities.c
                                           unsigned char   ifi_count;                                                       C:\FrcCode\ifi_utilities.c
                                           unsigned char   ifi_analog_channels;                                             C:\FrcCode\ifi_utilities.c
                                                                                                                            C:\FrcCode\ifi_utilities.c
                                                                                                                            C:\FrcCode\ifi_utilities.c
                                           /******************************************************************************* C:\FrcCode\ifi_utilities.c
                                           * FUNCTION NAME: Wait4TXEmpty                                                    C:\FrcCode\ifi_utilities.c
                                           * PURPOSE:       Wait for serial transmit buffer to be empty.                    C:\FrcCode\ifi_utilities.c
                                           * CALLED FROM:   anywhere                                                        C:\FrcCode\ifi_utilities.c
                                           * ARGUMENTS:     none                                                            C:\FrcCode\ifi_utilities.c
                                           * RETURNS:       void                                                            C:\FrcCode\ifi_utilities.c
                                           *******************************************************************************/ C:\FrcCode\ifi_utilities.c
                                           /* Used when transmitting data serially.  It waits for each byte to finish.   */ C:\FrcCode\ifi_utilities.c
                                           void Wait4TXEmpty(void)                                                          C:\FrcCode\ifi_utilities.c
                                           {                                                                                C:\FrcCode\ifi_utilities.c
                                           #ifndef _SIMULATOR                                                               C:\FrcCode\ifi_utilities.c
002db0   b89e     BTFSC     0x9e,0x4,0x0     while (!TXINTF)                                                                C:\FrcCode\ifi_utilities.c
002db2   d002     BRA       0x2db8                                                                                          
002db6   d7fc     BRA       0x2db0                                                                                          
                                             {                                                                              C:\FrcCode\ifi_utilities.c
002db4   d7fd     BRA       0x2db0             continue;                                                                    C:\FrcCode\ifi_utilities.c
                                             }                                                                              C:\FrcCode\ifi_utilities.c
                                           #endif                                                                           C:\FrcCode\ifi_utilities.c
002db8   0012     RETURN    0x0            }                                                                                C:\FrcCode\ifi_utilities.c
                                                                                                                            C:\FrcCode\ifi_utilities.c
                                                                                                                            C:\FrcCode\ifi_utilities.c
                                           /******************************************************************************* C:\FrcCode\ifi_utilities.c
                                           * FUNCTION NAME: PrintByte                                                       C:\FrcCode\ifi_utilities.c
                                           * PURPOSE:       A simple way to print a byte of data to the serial port.        C:\FrcCode\ifi_utilities.c
                                           * CALLED FROM:   anywhere                                                        C:\FrcCode\ifi_utilities.c
                                           * ARGUMENTS:     none                                                            C:\FrcCode\ifi_utilities.c
                                           *     Argument       Type             IO   Description                           C:\FrcCode\ifi_utilities.c
                                           *     --------       -------------    --   -----------                           C:\FrcCode\ifi_utilities.c
                                           *     odata          unsigned char    I    byte of data to be transmitted        C:\FrcCode\ifi_utilities.c
                                           * RETURNS:       void                                                            C:\FrcCode\ifi_utilities.c
                                           *******************************************************************************/ C:\FrcCode\ifi_utilities.c
002dba   cfd9     MOVFF     0xfd9,0xfe6    void PrintByte(unsigned char odata)                                              C:\FrcCode\ifi_utilities.c
002dbc   ffe6                                                                                                               
002dbe   cfe1     MOVFF     0xfe1,0xfd9                                                                                     
002dc0   ffd9                                                                                                               
                                           {                                                                                C:\FrcCode\ifi_utilities.c
002dc2   0efe     MOVLW     0xfe             Hex_output((unsigned char) odata);                                             C:\FrcCode\ifi_utilities.c
002dc4   cfdb     MOVFF     0xfdb,0xfe6                                                                                     
002dc6   ffe6                                                                                                               
002dc8   ec31     CALL      0x3062,0x0                                                                                      
002dca   f018                                                                                                               
002dcc   52e5     MOVF      0xe5,0x1,0x0                                                                                    
002dce   0e0d     MOVLW     0xd              TXREG = 13;  /* a carriage return */                                           C:\FrcCode\ifi_utilities.c
002dd0   6ead     MOVWF     0xad,0x0                                                                                        
002dd2   dfee     RCALL     0x2db0           Wait4TXEmpty();                                                                C:\FrcCode\ifi_utilities.c
002dd4   52e5     MOVF      0xe5,0x1,0x0   }                                                                                C:\FrcCode\ifi_utilities.c
002dd6   cfe7     MOVFF     0xfe7,0xfd9                                                                                     
002dd8   ffd9                                                                                                               
002dda   0012     RETURN    0x0                                                                                             
                                                                                                                            C:\FrcCode\ifi_utilities.c
                                                                                                                            C:\FrcCode\ifi_utilities.c
                                           /******************************************************************************* C:\FrcCode\ifi_utilities.c
                                           * FUNCTION NAME: PrintWord                                                       C:\FrcCode\ifi_utilities.c
                                           * PURPOSE:       A simple way to print a word of data to the serial port.        C:\FrcCode\ifi_utilities.c
                                           * CALLED FROM:   anywhere                                                        C:\FrcCode\ifi_utilities.c
                                           * ARGUMENTS:     none                                                            C:\FrcCode\ifi_utilities.c
                                           *     Argument       Type             IO   Description                           C:\FrcCode\ifi_utilities.c
                                           *     --------       -------------    --   -----------                           C:\FrcCode\ifi_utilities.c
                                           *     odata          unsigned int     I    word of data to be transmitted        C:\FrcCode\ifi_utilities.c
                                           * RETURNS:       void                                                            C:\FrcCode\ifi_utilities.c
                                           *******************************************************************************/ C:\FrcCode\ifi_utilities.c
002ddc   cfd9     MOVFF     0xfd9,0xfe6    void PrintWord(unsigned int odata)                                               C:\FrcCode\ifi_utilities.c
002dde   ffe6                                                                                                               
002de0   cfe1     MOVFF     0xfe1,0xfd9                                                                                     
002de2   ffd9                                                                                                               
                                           {                                                                                C:\FrcCode\ifi_utilities.c
002de4   0107     MOVLB     0x7              ptr = (unsigned char *) &odata;                                                C:\FrcCode\ifi_utilities.c
002de6   50d9     MOVF      0xd9,0x0,0x0                                                                                    
002de8   0ffd     ADDLW     0xfd                                                                                            
002dea   6f50     MOVWF     0x50,0x1                                                                                        
002dec   0eff     MOVLW     0xff                                                                                            
002dee   20da     ADDWFC    0xda,0x0,0x0                                                                                    
002df0   6f51     MOVWF     0x51,0x1                                                                                        
002df2   0e01     MOVLW     0x1              Hex_output(ptr[1]);                                                            C:\FrcCode\ifi_utilities.c
002df4   6aea     CLRF      0xea,0x0                                                                                        
002df6   2550     ADDWF     0x50,0x0,0x1                                                                                    
002df8   6ee9     MOVWF     0xe9,0x0                                                                                        
002dfa   5151     MOVF      0x51,0x0,0x1                                                                                    
002dfc   22ea     ADDWFC    0xea,0x1,0x0                                                                                    
002dfe   50ef     MOVF      0xef,0x0,0x0                                                                                    
002e00   6ee6     MOVWF     0xe6,0x0                                                                                        
002e02   ec31     CALL      0x3062,0x0                                                                                      
002e04   f018                                                                                                               
002e06   52e5     MOVF      0xe5,0x1,0x0                                                                                    
002e08   c750     MOVFF     0x750,0xfe9      Hex_output(ptr[0]);                                                            C:\FrcCode\ifi_utilities.c
002e0a   ffe9                                                                                                               
002e0c   c751     MOVFF     0x751,0xfea                                                                                     
002e0e   ffea                                                                                                               
002e10   50ef     MOVF      0xef,0x0,0x0                                                                                    
002e12   6ee6     MOVWF     0xe6,0x0                                                                                        
002e14   ec31     CALL      0x3062,0x0                                                                                      
002e16   f018                                                                                                               
002e18   52e5     MOVF      0xe5,0x1,0x0                                                                                    
002e1a   0e0d     MOVLW     0xd              TXREG = 13;  /* add a carriage return */                                       C:\FrcCode\ifi_utilities.c
002e1c   6ead     MOVWF     0xad,0x0                                                                                        
002e1e   dfc8     RCALL     0x2db0           Wait4TXEmpty();                                                                C:\FrcCode\ifi_utilities.c
002e20   52e5     MOVF      0xe5,0x1,0x0   }                                                                                C:\FrcCode\ifi_utilities.c
002e22   cfe7     MOVFF     0xfe7,0xfd9                                                                                     
002e24   ffd9                                                                                                               
002e26   0012     RETURN    0x0                                                                                             
                                                                                                                            C:\FrcCode\ifi_utilities.c
                                                                                                                            C:\FrcCode\ifi_utilities.c
                                           /******************************************************************************* C:\FrcCode\ifi_utilities.c
                                           * FUNCTION NAME: PrintString                                                     C:\FrcCode\ifi_utilities.c
                                           * PURPOSE:       Prints a string to the serial port.                             C:\FrcCode\ifi_utilities.c
                                           * CALLED FROM:   anywhere                                                        C:\FrcCode\ifi_utilities.c
                                           * ARGUMENTS:     none                                                            C:\FrcCode\ifi_utilities.c
                                           *     Argument       Type             IO   Description                           C:\FrcCode\ifi_utilities.c
                                           *     --------       -------------    --   -----------                           C:\FrcCode\ifi_utilities.c
                                           *     bufr           pointer          I    word of data to be transmitted        C:\FrcCode\ifi_utilities.c
                                           * RETURNS:       void                                                            C:\FrcCode\ifi_utilities.c
                                           *******************************************************************************/ C:\FrcCode\ifi_utilities.c
002e28   cfd9     MOVFF     0xfd9,0xfe6    void PrintString(char *bufr)                                                     C:\FrcCode\ifi_utilities.c
002e2a   ffe6                                                                                                               
002e2c   cfe1     MOVFF     0xfe1,0xfd9                                                                                     
002e2e   ffd9                                                                                                               
                                           {                                                                                C:\FrcCode\ifi_utilities.c
                                             static int len,I;                                                              C:\FrcCode\ifi_utilities.c
                                                                                                                            C:\FrcCode\ifi_utilities.c
002e30   0efd     MOVLW     0xfd             strcpypgm2ram (ifi_printfBufr,(rom char *) bufr); /*Move from flash to ram*/   C:\FrcCode\ifi_utilities.c
002e32   cfdb     MOVFF     0xfdb,0x2b                                                                                      
002e34   f02b                                                                                                               
002e36   0efe     MOVLW     0xfe                                                                                            
002e38   cfdb     MOVFF     0xfdb,0x2c                                                                                      
002e3a   f02c                                                                                                               
002e3c   6a2d     CLRF      0x2d,0x0                                                                                        
002e3e   c02b     MOVFF     0x2b,0xfe6                                                                                      
002e40   ffe6                                                                                                               
002e42   c02c     MOVFF     0x2c,0xfe6                                                                                      
002e44   ffe6                                                                                                               
002e46   c02d     MOVFF     0x2d,0xfe6                                                                                      
002e48   ffe6                                                                                                               
002e4a   0e00     MOVLW     0x0                                                                                             
002e4c   6ee6     MOVWF     0xe6,0x0                                                                                        
002e4e   0e07     MOVLW     0x7                                                                                             
002e50   6ee6     MOVWF     0xe6,0x0                                                                                        
002e52   ec20     CALL      0x3440,0x0                                                                                      
002e54   f01a                                                                                                               
002e56   6ef5     MOVWF     0xf5,0x0                                                                                        
002e58   0e05     MOVLW     0x5                                                                                             
002e5a   5ee1     SUBWF     0xe1,0x1,0x0                                                                                    
002e5c   50f5     MOVF      0xf5,0x0,0x0                                                                                    
002e5e   0e00     MOVLW     0x0              len = (int) strlen((const char *)ifi_printfBufr);                              C:\FrcCode\ifi_utilities.c
002e60   6ee6     MOVWF     0xe6,0x0                                                                                        
002e62   0e07     MOVLW     0x7                                                                                             
002e64   6ee6     MOVWF     0xe6,0x0                                                                                        
002e66   ec39     CALL      0x3472,0x0                                                                                      
002e68   f01a                                                                                                               
002e6a   52e5     MOVF      0xe5,0x1,0x0                                                                                    
002e6c   52e5     MOVF      0xe5,0x1,0x0                                                                                    
002e6e   cff3     MOVFF     0xff3,0x754                                                                                     
002e70   f754                                                                                                               
002e72   cff4     MOVFF     0xff4,0x755                                                                                     
002e74   f755                                                                                                               
002e76   0107     MOVLB     0x7              if (len > 80) len = 80;                                                        C:\FrcCode\ifi_utilities.c
002e78   5155     MOVF      0x55,0x0,0x1                                                                                    
002e7a   0a00     XORLW     0x0                                                                                             
002e7c   aee8     BTFSS     0xe8,0x7,0x0                                                                                    
002e7e   d002     BRA       0x2e84                                                                                          
002e80   3555     RLCF      0x55,0x0,0x1                                                                                    
002e82   d005     BRA       0x2e8e                                                                                          
002e84   0e50     MOVLW     0x50                                                                                            
002e86   80d8     BSF       0xd8,0x0,0x0                                                                                    
002e88   5554     SUBFWB    0x54,0x0,0x1                                                                                    
002e8a   0e00     MOVLW     0x0                                                                                             
002e8c   5555     SUBFWB    0x55,0x0,0x1                                                                                    
002e8e   e203     BC        0x2e96                                                                                          
002e90   0e50     MOVLW     0x50                                                                                            
002e92   6f54     MOVWF     0x54,0x1                                                                                        
002e94   6b55     CLRF      0x55,0x1                                                                                        
                                                                                                                            C:\FrcCode\ifi_utilities.c
002e96   6b56     CLRF      0x56,0x1         for (I=0;I<len;I++)                                                            C:\FrcCode\ifi_utilities.c
002e98   6b57     CLRF      0x57,0x1                                                                                        
002e9a   5157     MOVF      0x57,0x0,0x1                                                                                    
002e9c   1955     XORWF     0x55,0x0,0x1                                                                                    
002e9e   aee8     BTFSS     0xe8,0x7,0x0                                                                                    
002ea0   d002     BRA       0x2ea6                                                                                          
002ea2   3555     RLCF      0x55,0x0,0x1                                                                                    
002ea4   d004     BRA       0x2eae                                                                                          
002ea6   5154     MOVF      0x54,0x0,0x1                                                                                    
002ea8   5d56     SUBWF     0x56,0x0,0x1                                                                                    
002eaa   5155     MOVF      0x55,0x0,0x1                                                                                    
002eac   5957     SUBWFB    0x57,0x0,0x1                                                                                    
002eae   e20e     BC        0x2ecc                                                                                          
002ec2   0107     MOVLB     0x7                                                                                             
002ec4   2b56     INCF      0x56,0x1,0x1                                                                                    
002ec6   0e00     MOVLW     0x0                                                                                             
002ec8   2357     ADDWFC    0x57,0x1,0x1                                                                                    
002eca   d7e7     BRA       0x2e9a                                                                                          
                                             {                                                                              C:\FrcCode\ifi_utilities.c
002eb0   0e00     MOVLW     0x0                TXREG = ifi_printfBufr[I];                                                   C:\FrcCode\ifi_utilities.c
002eb2   2556     ADDWF     0x56,0x0,0x1                                                                                    
002eb4   6ee9     MOVWF     0xe9,0x0                                                                                        
002eb6   0e07     MOVLW     0x7                                                                                             
002eb8   2157     ADDWFC    0x57,0x0,0x1                                                                                    
002eba   6eea     MOVWF     0xea,0x0                                                                                        
002ebc   50ef     MOVF      0xef,0x0,0x0                                                                                    
002ebe   6ead     MOVWF     0xad,0x0                                                                                        
002ec0   df77     RCALL     0x2db0             Wait4TXEmpty();                                                              C:\FrcCode\ifi_utilities.c
                                             }                                                                              C:\FrcCode\ifi_utilities.c
002ecc   52e5     MOVF      0xe5,0x1,0x0   }                                                                                C:\FrcCode\ifi_utilities.c
002ece   cfe7     MOVFF     0xfe7,0xfd9                                                                                     
002ed0   ffd9                                                                                                               
002ed2   0012     RETURN    0x0                                                                                             
                                                                                                                            C:\FrcCode\ifi_utilities.c
                                                                                                                            C:\FrcCode\ifi_utilities.c
                                           /******************************************************************************* C:\FrcCode\ifi_utilities.c
                                           * FUNCTION NAME: DisplayBufr                                                     C:\FrcCode\ifi_utilities.c
                                           * PURPOSE:       Print the entire transmit or receive buffer over the serial     C:\FrcCode\ifi_utilities.c
                                           *                port for viewing in a terminal program on your PC.              C:\FrcCode\ifi_utilities.c
                                           * CALLED FROM:   anywhere                                                        C:\FrcCode\ifi_utilities.c
                                           * ARGUMENTS:                                                                     C:\FrcCode\ifi_utilities.c
                                           *     Argument       Type        IO   Description                                C:\FrcCode\ifi_utilities.c
                                           *     --------       --------    --   -----------                                C:\FrcCode\ifi_utilities.c
                                           *     *bufr          pointer     I    points to beginning of buffer to transmit  C:\FrcCode\ifi_utilities.c
                                           * RETURNS:       void                                                            C:\FrcCode\ifi_utilities.c
                                           *******************************************************************************/ C:\FrcCode\ifi_utilities.c
002ed4   cfd9     MOVFF     0xfd9,0xfe6    void DisplayBufr(unsigned char *bufr)                                            C:\FrcCode\ifi_utilities.c
002ed6   ffe6                                                                                                               
002ed8   cfe1     MOVFF     0xfe1,0xfd9                                                                                     
002eda   ffd9                                                                                                               
                                           {                                                                                C:\FrcCode\ifi_utilities.c
002edc   0107     MOVLB     0x7              for (ifi_count=0;ifi_count<26;ifi_count++)                                     C:\FrcCode\ifi_utilities.c
002ede   6b52     CLRF      0x52,0x1                                                                                        
002ee0   0e1a     MOVLW     0x1a                                                                                            
002ee2   5d52     SUBWF     0x52,0x0,0x1                                                                                    
002ee4   e211     BC        0x2f08                                                                                          
002f02   0107     MOVLB     0x7                                                                                             
002f04   2b52     INCF      0x52,0x1,0x1                                                                                    
002f06   d7ec     BRA       0x2ee0                                                                                          
                                             {                                                                              C:\FrcCode\ifi_utilities.c
002ee6   0efd     MOVLW     0xfd               Hex_output((unsigned char) *bufr++);                                         C:\FrcCode\ifi_utilities.c
002ee8   cfdb     MOVFF     0xfdb,0xfe9                                                                                     
002eea   ffe9                                                                                                               
002eec   2adb     INCF      0xdb,0x1,0x0                                                                                    
002eee   0efe     MOVLW     0xfe                                                                                            
002ef0   cfdb     MOVFF     0xfdb,0xfea                                                                                     
002ef2   ffea                                                                                                               
002ef4   e301     BNC       0x2ef8                                                                                          
002ef6   2adb     INCF      0xdb,0x1,0x0                                                                                    
002ef8   50ef     MOVF      0xef,0x0,0x0                                                                                    
002efa   6ee6     MOVWF     0xe6,0x0                                                                                        
002efc   ec31     CALL      0x3062,0x0                                                                                      
002efe   f018                                                                                                               
002f00   52e5     MOVF      0xe5,0x1,0x0                                                                                    
                                             }                                                                              C:\FrcCode\ifi_utilities.c
002f08   0e0d     MOVLW     0xd              TXREG = 13;  /* add a carriage return */                                       C:\FrcCode\ifi_utilities.c
002f0a   6ead     MOVWF     0xad,0x0                                                                                        
002f0c   df51     RCALL     0x2db0           Wait4TXEmpty();                                                                C:\FrcCode\ifi_utilities.c
002f0e   52e5     MOVF      0xe5,0x1,0x0   }                                                                                C:\FrcCode\ifi_utilities.c
002f10   cfe7     MOVFF     0xfe7,0xfd9                                                                                     
002f12   ffd9                                                                                                               
002f14   0012     RETURN    0x0                                                                                             
                                                                                                                            C:\FrcCode\ifi_utilities.c
                                                                                                                            C:\FrcCode\ifi_utilities.c
                                           /******************************************************************************* C:\FrcCode\ifi_utilities.c
                                           * FUNCTION NAME: PacketNum_Check                                                 C:\FrcCode\ifi_utilities.c
                                           * PURPOSE:       Print the packet number over the serial port if a packet gets   C:\FrcCode\ifi_utilities.c
                                           *                dropped.  Handy for seeing if you are dropping data.            C:\FrcCode\ifi_utilities.c
                                           * CALLED FROM:   anywhere                                                        C:\FrcCode\ifi_utilities.c
                                           * ARGUMENTS:     none                                                            C:\FrcCode\ifi_utilities.c
                                           * RETURNS:       void                                                            C:\FrcCode\ifi_utilities.c
                                           *******************************************************************************/ C:\FrcCode\ifi_utilities.c
                                           void PacketNum_Check(void)                                                       C:\FrcCode\ifi_utilities.c
                                           {                                                                                C:\FrcCode\ifi_utilities.c
                                             /*    to print only the 10th (packet num) byte*/                               C:\FrcCode\ifi_utilities.c
002f16   0107     MOVLB     0x7              ptr = (unsigned char *) &rxdata.packet_num;                                    C:\FrcCode\ifi_utilities.c
002f18   0e78     MOVLW     0x78                                                                                            
002f1a   6f50     MOVWF     0x50,0x1                                                                                        
002f1c   0e07     MOVLW     0x7                                                                                             
002f1e   6f51     MOVWF     0x51,0x1                                                                                        
002f20   0107     MOVLB     0x7              ifi_packet_num1 = (int) rxdata.packet_num;                                     C:\FrcCode\ifi_utilities.c
002f22   5178     MOVF      0x78,0x0,0x1                                                                                    
002f24   0107     MOVLB     0x7                                                                                             
002f26   6fc8     MOVWF     0xc8,0x1                                                                                        
002f28   6bc9     CLRF      0xc9,0x1                                                                                        
002f2a   51ca     MOVF      0xca,0x0,0x1     if (ifi_packet_num1 != ifi_last_packet1)                                       C:\FrcCode\ifi_utilities.c
002f2c   19c8     XORWF     0xc8,0x0,0x1                                                                                    
002f2e   e102     BNZ       0x2f34                                                                                          
002f30   51cb     MOVF      0xcb,0x0,0x1                                                                                    
002f32   19c9     XORWF     0xc9,0x0,0x1                                                                                    
002f34   e018     BZ        0x2f66                                                                                          
                                             {                                                                              C:\FrcCode\ifi_utilities.c
002f36   0107     MOVLB     0x7                if (statusflag.FIRST_TIME == 1)                                              C:\FrcCode\ifi_utilities.c
002f38   a598     BTFSS     0x98,0x2,0x1                                                                                    
002f3a   d002     BRA       0x2f40                                                                                          
                                               {                                                                            C:\FrcCode\ifi_utilities.c
002f3c   9598     BCF       0x98,0x2,0x1         statusflag.FIRST_TIME = 0;                                                 C:\FrcCode\ifi_utilities.c
                                               }                                                                            C:\FrcCode\ifi_utilities.c
002f3e   d00f     BRA       0x2f5e             else                                                                         C:\FrcCode\ifi_utilities.c
                                               {                                                                            C:\FrcCode\ifi_utilities.c
002f40   c7ca     MOVFF     0x7ca,0xfe6          Hex_output((unsigned char) ifi_last_packet1);                              C:\FrcCode\ifi_utilities.c
002f42   ffe6                                                                                                               
002f44   ec31     CALL      0x3062,0x0                                                                                      
002f46   f018                                                                                                               
002f48   52e5     MOVF      0xe5,0x1,0x0                                                                                    
002f4a   c7c8     MOVFF     0x7c8,0xfe6          Hex_output((unsigned char) ifi_packet_num1);                               C:\FrcCode\ifi_utilities.c
002f4c   ffe6                                                                                                               
002f4e   ec31     CALL      0x3062,0x0                                                                                      
002f50   f018                                                                                                               
002f52   52e5     MOVF      0xe5,0x1,0x0                                                                                    
002f54   0e0d     MOVLW     0xd                  TXREG = 13;                                                                C:\FrcCode\ifi_utilities.c
002f56   6ead     MOVWF     0xad,0x0                                                                                        
002f58   df2b     RCALL     0x2db0               Wait4TXEmpty();                                                            C:\FrcCode\ifi_utilities.c
                                                                                                                            C:\FrcCode\ifi_utilities.c
002f5a   0107     MOVLB     0x7                  statusflag.FIRST_TIME = 0;                                                 C:\FrcCode\ifi_utilities.c
002f5c   9598     BCF       0x98,0x2,0x1                                                                                    
                                               }                                                                            C:\FrcCode\ifi_utilities.c
002f5e   c7c8     MOVFF     0x7c8,0x7ca        ifi_last_packet1 = ifi_packet_num1;                                          C:\FrcCode\ifi_utilities.c
002f60   f7ca                                                                                                               
002f62   c7c9     MOVFF     0x7c9,0x7cb                                                                                     
002f64   f7cb                                                                                                               
                                             }/*   if (ifi_packet_num1 != ifi_last_packet1)*/                               C:\FrcCode\ifi_utilities.c
002f66   0107     MOVLB     0x7              ifi_last_packet1++;                                                            C:\FrcCode\ifi_utilities.c
002f68   2bca     INCF      0xca,0x1,0x1                                                                                    
002f6a   0e00     MOVLW     0x0                                                                                             
002f6c   23cb     ADDWFC    0xcb,0x1,0x1                                                                                    
002f6e   51cb     MOVF      0xcb,0x0,0x1     if (ifi_last_packet1 > 255)                                                    C:\FrcCode\ifi_utilities.c
002f70   0a00     XORLW     0x0                                                                                             
002f72   aee8     BTFSS     0xe8,0x7,0x0                                                                                    
002f74   d002     BRA       0x2f7a                                                                                          
002f76   35cb     RLCF      0xcb,0x0,0x1                                                                                    
002f78   d005     BRA       0x2f84                                                                                          
002f7a   0eff     MOVLW     0xff                                                                                            
002f7c   80d8     BSF       0xd8,0x0,0x0                                                                                    
002f7e   55ca     SUBFWB    0xca,0x0,0x1                                                                                    
002f80   0e00     MOVLW     0x0                                                                                             
002f82   55cb     SUBFWB    0xcb,0x0,0x1                                                                                    
002f84   e202     BC        0x2f8a                                                                                          
                                             {                                                                              C:\FrcCode\ifi_utilities.c
002f86   6bca     CLRF      0xca,0x1           ifi_last_packet1 = 0;                                                        C:\FrcCode\ifi_utilities.c
002f88   6bcb     CLRF      0xcb,0x1                                                                                        
                                             }                                                                              C:\FrcCode\ifi_utilities.c
002f8a   0012     RETURN    0x0            }                                                                                C:\FrcCode\ifi_utilities.c
                                                                                                                            C:\FrcCode\ifi_utilities.c
                                                                                                                            C:\FrcCode\ifi_utilities.c
                                           /******************************************************************************* C:\FrcCode\ifi_utilities.c
                                           * FUNCTION NAME: Initialize_Serial_Comms                                         C:\FrcCode\ifi_utilities.c
                                           * PURPOSE:       Opens the serial port 1 for communicating with your PC at       C:\FrcCode\ifi_utilities.c
                                           *                115k baud, 8 bits, no parity, one stop bit, and no flow control. C:\FrcCode\ifi_utilities.c
                                           * CALLED FROM:   user_routines.c                                                 C:\FrcCode\ifi_utilities.c
                                           * ARGUMENTS:     none                                                            C:\FrcCode\ifi_utilities.c
                                           * RETURNS:       void                                                            C:\FrcCode\ifi_utilities.c
                                           *******************************************************************************/ C:\FrcCode\ifi_utilities.c
                                           void Initialize_Serial_Comms (void)                                              C:\FrcCode\ifi_utilities.c
                                           {                                                                                C:\FrcCode\ifi_utilities.c
                                             OpenUSART(USART_TX_INT_OFF &                                                   C:\FrcCode\ifi_utilities.c
                                               USART_RX_INT_OFF &                                                           C:\FrcCode\ifi_utilities.c
                                               USART_ASYNCH_MODE &                                                          C:\FrcCode\ifi_utilities.c
                                               USART_EIGHT_BIT &                                                            C:\FrcCode\ifi_utilities.c
                                               USART_CONT_RX &                                                              C:\FrcCode\ifi_utilities.c
002f90   0e3c     MOVLW     0x3c               USART_BRGH_HIGH,                                                             C:\FrcCode\ifi_utilities.c
002f92   6ee6     MOVWF     0xe6,0x0                                                                                        
002f8c   0e15     MOVLW     0x15               baud_115);                                                                   C:\FrcCode\ifi_utilities.c
002f8e   6ee6     MOVWF     0xe6,0x0                                                                                        
002f94   ec9e     CALL      0x333c,0x0                                                                                      
002f96   f019                                                                                                               
002f98   52e5     MOVF      0xe5,0x1,0x0                                                                                    
002f9a   52e5     MOVF      0xe5,0x1,0x0                                                                                    
                                                                                                                            C:\FrcCode\ifi_utilities.c
002f9c   0e32     MOVLW     0x32             Delay1KTCYx( 50 ); /* Settling time */                                         C:\FrcCode\ifi_utilities.c
002f9e   6ee6     MOVWF     0xe6,0x0                                                                                        
002fa0   ec9a     CALL      0x3534,0x0                                                                                      
002fa2   f01a                                                                                                               
002fa4   52e5     MOVF      0xe5,0x1,0x0                                                                                    
002fa6   0012     RETURN    0x0            }                                                                                C:\FrcCode\ifi_utilities.c
                                                                                                                            C:\FrcCode\ifi_utilities.c
                                                                                                                            C:\FrcCode\ifi_utilities.c
                                           /******************************************************************************* C:\FrcCode\ifi_utilities.c
                                           * FUNCTION NAME: Set_Number_of_Analog_Channels                                   C:\FrcCode\ifi_utilities.c
                                           * PURPOSE:       Sets the variable used in Get_Analog_Value routine (below)      C:\FrcCode\ifi_utilities.c
                                           *                to the number of analog channels desired by the user.           C:\FrcCode\ifi_utilities.c
                                           * CALLED FROM:   user_routines.c initialization, typically                       C:\FrcCode\ifi_utilities.c
                                           * ARGUMENTS:                                                                     C:\FrcCode\ifi_utilities.c
                                           *      Argument            Type    IO   Description                              C:\FrcCode\ifi_utilities.c
                                           *     -----------          -----   --   -----------                              C:\FrcCode\ifi_utilities.c
                                           *     number_of_channels   alias   I    choose alias from ifi_aliases.h          C:\FrcCode\ifi_utilities.c
                                           * RETURNS:       void                                                            C:\FrcCode\ifi_utilities.c
                                           *******************************************************************************/ C:\FrcCode\ifi_utilities.c
002fa8   cfd9     MOVFF     0xfd9,0xfe6    void Set_Number_of_Analog_Channels (unsigned char number_of_channels)            C:\FrcCode\ifi_utilities.c
002faa   ffe6                                                                                                               
002fac   cfe1     MOVFF     0xfe1,0xfd9                                                                                     
002fae   ffd9                                                                                                               
                                           {                                                                                C:\FrcCode\ifi_utilities.c
002fb0   0efe     MOVLW     0xfe             ifi_analog_channels = number_of_channels;                                      C:\FrcCode\ifi_utilities.c
002fb2   cfdb     MOVFF     0xfdb,0x753                                                                                     
002fb4   f753                                                                                                               
002fb6   52e5     MOVF      0xe5,0x1,0x0   }                                                                                C:\FrcCode\ifi_utilities.c
002fb8   cfe7     MOVFF     0xfe7,0xfd9                                                                                     
002fba   ffd9                                                                                                               
002fbc   0012     RETURN    0x0                                                                                             
                                                                                                                            C:\FrcCode\ifi_utilities.c
                                                                                                                            C:\FrcCode\ifi_utilities.c
                                           /******************************************************************************* C:\FrcCode\ifi_utilities.c
                                           * FUNCTION NAME: Get_Analog_Value                                                C:\FrcCode\ifi_utilities.c
                                           * PURPOSE:       Reads the analog voltage on an A/D port and returns the         C:\FrcCode\ifi_utilities.c
                                           *                10-bit value read stored in an unsigned int.                    C:\FrcCode\ifi_utilities.c
                                           * CALLED FROM:   user_routines.c, typically                                      C:\FrcCode\ifi_utilities.c
                                           * ARGUMENTS:                                                                     C:\FrcCode\ifi_utilities.c
                                           *      Argument         Type        IO   Description                             C:\FrcCode\ifi_utilities.c
                                           *     -----------   -------------   --   -----------                             C:\FrcCode\ifi_utilities.c
                                           *     ADC_channel       alias       I    alias found in ifi_aliases.h            C:\FrcCode\ifi_utilities.c
                                           * RETURNS:       unsigned int                                                    C:\FrcCode\ifi_utilities.c
                                           *******************************************************************************/ C:\FrcCode\ifi_utilities.c
002fbe   cfd9     MOVFF     0xfd9,0xfe6    unsigned int Get_Analog_Value (unsigned char ADC_channel)                        C:\FrcCode\ifi_utilities.c
002fc0   ffe6                                                                                                               
002fc2   cfe1     MOVFF     0xfe1,0xfd9                                                                                     
002fc4   ffd9                                                                                                               
002fc6   0e02     MOVLW     0x2                                                                                             
002fc8   26e1     ADDWF     0xe1,0x1,0x0                                                                                    
                                           {                                                                                C:\FrcCode\ifi_utilities.c
                                             unsigned int result;                                                           C:\FrcCode\ifi_utilities.c
                                                                                                                            C:\FrcCode\ifi_utilities.c
002fd6   c753     MOVFF     0x753,0xfe6      OpenADC( ADC_FOSC_RC & ADC_RIGHT_JUST & ifi_analog_channels,                   C:\FrcCode\ifi_utilities.c
002fd8   ffe6                                                                                                               
002fca   0efe     MOVLW     0xfe                     ADC_channel & ADC_INT_OFF & ADC_VREFPLUS_VDD & ADC_VREFMINUS_VSS );    C:\FrcCode\ifi_utilities.c
002fcc   50db     MOVF      0xdb,0x0,0x0                                                                                    
002fce   0b7f     ANDLW     0x7f                                                                                            
002fd0   0bfe     ANDLW     0xfe                                                                                            
002fd2   0bfd     ANDLW     0xfd                                                                                            
002fd4   6ee6     MOVWF     0xe6,0x0                                                                                        
002fda   ecf5     CALL      0x33ea,0x0                                                                                      
002fdc   f019                                                                                                               
002fde   52e5     MOVF      0xe5,0x1,0x0                                                                                    
002fe0   52e5     MOVF      0xe5,0x1,0x0                                                                                    
002fe2   0e0a     MOVLW     0xa              Delay10TCYx( 10 );                                                             C:\FrcCode\ifi_utilities.c
002fe4   6ee6     MOVWF     0xe6,0x0                                                                                        
002fe6   ecaa     CALL      0x3554,0x0                                                                                      
002fe8   f01a                                                                                                               
002fea   52e5     MOVF      0xe5,0x1,0x0                                                                                    
002fec   ecb8     CALL      0x3570,0x0       ConvertADC();                                                                  C:\FrcCode\ifi_utilities.c
002fee   f01a                                                                                                               
002ff0   ec07     CALL      0x80e,0x0        while( BusyADC() );                                                            C:\FrcCode\ifi_utilities.c
002ff2   f004                                                                                                               
002ff4   0900     IORLW     0x0                                                                                             
002ff6   e001     BZ        0x2ffa                                                                                          
002ff8   d7fb     BRA       0x2ff0                                                                                          
002ffa   ec47     CALL      0x348e,0x0       ReadADC();                                                                     C:\FrcCode\ifi_utilities.c
002ffc   f01a                                                                                                               
002ffe   ecb5     CALL      0x356a,0x0       CloseADC();                                                                    C:\FrcCode\ifi_utilities.c
003000   f01a                                                                                                               
003002   50c4     MOVF      0xc4,0x0,0x0     result = (int) ADRESH << 8 | ADRESL;                                           C:\FrcCode\ifi_utilities.c
003004   6e2d     MOVWF     0x2d,0x0                                                                                        
003006   c02d     MOVFF     0x2d,0x2e                                                                                       
003008   f02e                                                                                                               
00300a   6a2d     CLRF      0x2d,0x0                                                                                        
00300c   50c3     MOVF      0xc3,0x0,0x0                                                                                    
00300e   0100     MOVLB     0x0                                                                                             
003010   102d     IORWF     0x2d,0x0,0x0                                                                                    
003012   6f2b     MOVWF     0x2b,0x1                                                                                        
003014   c02e     MOVFF     0x2e,0x2c                                                                                       
003016   f02c                                                                                                               
003018   c02b     MOVFF     0x2b,0xfde                                                                                      
00301a   ffde                                                                                                               
00301c   c02c     MOVFF     0x2c,0xfdd                                                                                      
00301e   ffdd                                                                                                               
003020   cfde     MOVFF     0xfde,0x2b       return result;                                                                 C:\FrcCode\ifi_utilities.c
003022   f02b                                                                                                               
003024   cfdd     MOVFF     0xfdd,0x2c                                                                                      
003026   f02c                                                                                                               
003028   c02b     MOVFF     0x2b,0xff3                                                                                      
00302a   fff3                                                                                                               
00302c   c02c     MOVFF     0x2c,0xff4                                                                                      
00302e   fff4                                                                                                               
003030   d000     BRA       0x3032                                                                                          
003032   cfd9     MOVFF     0xfd9,0xfe1    }                                                                                C:\FrcCode\ifi_utilities.c
003034   ffe1                                                                                                               
003036   52e5     MOVF      0xe5,0x1,0x0                                                                                    
003038   cfe7     MOVFF     0xfe7,0xfd9                                                                                     
00303a   ffd9                                                                                                               
00303c   0012     RETURN    0x0                                                                                             
                                                                                                                            C:\FrcCode\ifi_utilities.c
                                                                                                                            C:\FrcCode\ifi_utilities.c
                                           /******************************************************************************/ C:\FrcCode\ifi_utilities.c
                                           /******************************************************************************/ C:\FrcCode\ifi_utilities.c
                                           /******************************************************************************/ C:\FrcCode\ifi_utilities.c
                                           /******************************************************************************* C:\FrcCode\ifi_startup.c
                                           * FILE NAME: ifi_startup.c                                                       C:\FrcCode\ifi_startup.c
                                           *                                                                                C:\FrcCode\ifi_startup.c
                                           * DESCRIPTION:                                                                   C:\FrcCode\ifi_startup.c
                                           *  This file contains important startup code.                                    C:\FrcCode\ifi_startup.c
                                           *                                                                                C:\FrcCode\ifi_startup.c
                                           * USAGE:                                                                         C:\FrcCode\ifi_startup.c
                                           *  This file should not be modified at all by the user.                          C:\FrcCode\ifi_startup.c
                                           *                                                                                C:\FrcCode\ifi_startup.c
                                           *  DO NOT MODIFY THIS FILE!                                                      C:\FrcCode\ifi_startup.c
                                           *******************************************************************************/ C:\FrcCode\ifi_startup.c
                                                                                                                            C:\FrcCode\ifi_startup.c
                                           #include "ifi_default.h"                                                         C:\FrcCode\ifi_startup.c
                                                                                                                            C:\FrcCode\ifi_startup.c
                                           extern void Clear_Memory (void);                                                 C:\FrcCode\ifi_startup.c
                                           extern void main (void);                                                         C:\FrcCode\ifi_startup.c
                                                                                                                            C:\FrcCode\ifi_startup.c
                                           void _entry (void);     /* prototype for the startup function */                 C:\FrcCode\ifi_startup.c
                                           void _startup (void);                                                            C:\FrcCode\ifi_startup.c
                                           void _do_cinit (void);  /* prototype for the initialized data setup */           C:\FrcCode\ifi_startup.c
                                                                                                                            C:\FrcCode\ifi_startup.c
                                           extern volatile near unsigned long short TBLPTR;                                 C:\FrcCode\ifi_startup.c
                                           extern near unsigned FSR0;                                                       C:\FrcCode\ifi_startup.c
                                           extern near char FPFLAGS;                                                        C:\FrcCode\ifi_startup.c
                                           #define RND 6                                                                    C:\FrcCode\ifi_startup.c
                                                                                                                            C:\FrcCode\ifi_startup.c
                                           #pragma code _entry_scn=RESET_VECTOR                                             C:\FrcCode\ifi_startup.c
                                           void _entry (void)                                                               C:\FrcCode\ifi_startup.c
                                           {                                                                                C:\FrcCode\ifi_startup.c
000800   ef8a     GOTO      0x3514         _asm goto _startup _endasm                                                       C:\FrcCode\ifi_startup.c
000802   f01a                                                                                                               
                                                                                                                            C:\FrcCode\ifi_startup.c
000804   0012     RETURN    0x0            }                                                                                C:\FrcCode\ifi_startup.c
                                                                                                                            C:\FrcCode\ifi_startup.c
                                           #pragma code _startup_scn                                                        C:\FrcCode\ifi_startup.c
                                           void _startup (void)                                                             C:\FrcCode\ifi_startup.c
                                           {                                                                                C:\FrcCode\ifi_startup.c
                                             _asm                                                                           C:\FrcCode\ifi_startup.c
                                               /* Initialize the stack pointer */                                           C:\FrcCode\ifi_startup.c
003514   ee16     LFSR      0x1,0x600          lfsr 1, _stack lfsr 2, _stack clrf TBLPTRU, 0 /* 1st silicon doesn't do this on POR */ C:\FrcCode\ifi_startup.c
003516   f000                                                                                                               
003518   ee26     LFSR      0x2,0x600                                                                                       
00351a   f000                                                                                                               
00351c   6af8     CLRF      0xf8,0x0                                                                                        
00351e   9c26     BCF       0x26,0x6,0x0       bcf  FPFLAGS,RND,0 /* Initialize rounding flag for floating point libs */    C:\FrcCode\ifi_startup.c
                                                                                                                            C:\FrcCode\ifi_startup.c
                                               /* initialize the flash memory access configuration. this is harmless */     C:\FrcCode\ifi_startup.c
                                               /* for non-flash devices, so we do it on all parts. */                       C:\FrcCode\ifi_startup.c
003520   8ea6     BSF       0xa6,0x7,0x0       bsf 0xa6, 7, 0                                                               C:\FrcCode\ifi_startup.c
003522   9ca6     BCF       0xa6,0x6,0x0       bcf 0xa6, 6, 0                                                               C:\FrcCode\ifi_startup.c
                                             _endasm                                                                        C:\FrcCode\ifi_startup.c
                                                                                                                            C:\FrcCode\ifi_startup.c
                                           loop:                                                                            C:\FrcCode\ifi_startup.c
                                                                                                                            C:\FrcCode\ifi_startup.c
003524   ec1f     CALL      0x303e,0x0      	Clear_Memory();                                                                C:\FrcCode\ifi_startup.c
003526   f018                                                                                                               
003528   ec22     CALL      0x3244,0x0       _do_cinit ();                                                                  C:\FrcCode\ifi_startup.c
00352a   f019                                                                                                               
                                             /* Call the user's main routine */                                             C:\FrcCode\ifi_startup.c
00352c   ec76     CALL      0x34ec,0x0       main ();                                                                       C:\FrcCode\ifi_startup.c
00352e   f01a                                                                                                               
                                                                                                                            C:\FrcCode\ifi_startup.c
003530   d7f9     BRA       0x3524           goto loop;                                                                     C:\FrcCode\ifi_startup.c
003532   0012     RETURN    0x0            }                               /* end _startup() */                             C:\FrcCode\ifi_startup.c
                                                                                                                            C:\FrcCode\ifi_startup.c
                                           /* MPLAB-C18 initialized data memory support */                                  C:\FrcCode\ifi_startup.c
                                           /* The linker will populate the _cinit table */                                  C:\FrcCode\ifi_startup.c
                                           extern far rom struct                                                            C:\FrcCode\ifi_startup.c
                                           {                                                                                C:\FrcCode\ifi_startup.c
                                             unsigned short num_init;                                                       C:\FrcCode\ifi_startup.c
                                             struct _init_entry                                                             C:\FrcCode\ifi_startup.c
                                             {                                                                              C:\FrcCode\ifi_startup.c
                                               unsigned long from;                                                          C:\FrcCode\ifi_startup.c
                                               unsigned long to;                                                            C:\FrcCode\ifi_startup.c
                                               unsigned long size;                                                          C:\FrcCode\ifi_startup.c
                                             }                                                                              C:\FrcCode\ifi_startup.c
                                             entries[];                                                                     C:\FrcCode\ifi_startup.c
                                           }                                                                                C:\FrcCode\ifi_startup.c
                                           _cinit;                                                                          C:\FrcCode\ifi_startup.c
                                                                                                                            C:\FrcCode\ifi_startup.c
                                           #pragma code _cinit_scn                                                          C:\FrcCode\ifi_startup.c
                                           void                                                                             C:\FrcCode\ifi_startup.c
                                           _do_cinit (void)                                                                 C:\FrcCode\ifi_startup.c
                                           {                                                                                C:\FrcCode\ifi_startup.c
                                             /* we'll make the assumption in the following code that these statics          C:\FrcCode\ifi_startup.c
                                              * will be allocated into the same bank.                                       C:\FrcCode\ifi_startup.c
                                              */                                                                            C:\FrcCode\ifi_startup.c
                                             static short long prom;                                                        C:\FrcCode\ifi_startup.c
                                             static unsigned short curr_byte;                                               C:\FrcCode\ifi_startup.c
                                             static unsigned short curr_entry;                                              C:\FrcCode\ifi_startup.c
                                             static short long data_ptr;                                                    C:\FrcCode\ifi_startup.c
                                                                                                                            C:\FrcCode\ifi_startup.c
                                             /* Initialized data... */                                                      C:\FrcCode\ifi_startup.c
003244   0e1e     MOVLW     0x1e             TBLPTR = (short long)&_cinit;                                                  C:\FrcCode\ifi_startup.c
003246   6ef6     MOVWF     0xf6,0x0                                                                                        
003248   0e08     MOVLW     0x8                                                                                             
00324a   6ef7     MOVWF     0xf7,0x0                                                                                        
00324c   0e00     MOVLW     0x0                                                                                             
00324e   6ef8     MOVWF     0xf8,0x0                                                                                        
                                             _asm                                                                           C:\FrcCode\ifi_startup.c
003250   0107     MOVLB     0x7                movlb data_ptr                                                               C:\FrcCode\ifi_startup.c
003252   0009     TBLRDPOSTINC                 tblrdpostinc                                                                 C:\FrcCode\ifi_startup.c
003254   50f5     MOVF      0xf5,0x0,0x0       movf  TABLAT, 0, 0                                                           C:\FrcCode\ifi_startup.c
003256   6fc3     MOVWF     0xc3,0x1           movwf curr_entry, 1                                                          C:\FrcCode\ifi_startup.c
003258   0009     TBLRDPOSTINC                 tblrdpostinc                                                                 C:\FrcCode\ifi_startup.c
00325a   50f5     MOVF      0xf5,0x0,0x0       movf  TABLAT, 0, 0                                                           C:\FrcCode\ifi_startup.c
00325c   6fc4     MOVWF     0xc4,0x1           movwf curr_entry+1, 1                                                        C:\FrcCode\ifi_startup.c
                                             _endasm                                                                        C:\FrcCode\ifi_startup.c
                                               test:                                                                        C:\FrcCode\ifi_startup.c
                                             _asm                                                                           C:\FrcCode\ifi_startup.c
00325e   e103     BNZ       0x3266              bnz 3                                                                       C:\FrcCode\ifi_startup.c
003260   67c3     TSTFSZ    0xc3,0x1           tstfsz curr_entry, 1                                                         C:\FrcCode\ifi_startup.c
003262   d001     BRA       0x3266             bra 1                                                                        C:\FrcCode\ifi_startup.c
                                             _endasm                                                                        C:\FrcCode\ifi_startup.c
003264   d03d     BRA       0x32e0           goto done;                                                                     C:\FrcCode\ifi_startup.c
                                               /* Count down so we only have to look up the data in _cinit                  C:\FrcCode\ifi_startup.c
                                                * once.                                                                     C:\FrcCode\ifi_startup.c
                                                *                                                                           C:\FrcCode\ifi_startup.c
                                                * At this point we know that TBLPTR points to the top of the current        C:\FrcCode\ifi_startup.c
                                                * entry in _cinit, so we can just start reading the from, to, and           C:\FrcCode\ifi_startup.c
                                                * size values.                                                              C:\FrcCode\ifi_startup.c
                                                */                                                                          C:\FrcCode\ifi_startup.c
                                             _asm                                                                           C:\FrcCode\ifi_startup.c
                                             /* read the source address */                                                  C:\FrcCode\ifi_startup.c
003266   0009     TBLRDPOSTINC                 tblrdpostinc                                                                 C:\FrcCode\ifi_startup.c
003268   50f5     MOVF      0xf5,0x0,0x0       movf  TABLAT, 0, 0                                                           C:\FrcCode\ifi_startup.c
00326a   6fbe     MOVWF     0xbe,0x1           movwf prom, 1                                                                C:\FrcCode\ifi_startup.c
00326c   0009     TBLRDPOSTINC                 tblrdpostinc                                                                 C:\FrcCode\ifi_startup.c
00326e   50f5     MOVF      0xf5,0x0,0x0       movf  TABLAT, 0, 0                                                           C:\FrcCode\ifi_startup.c
003270   6fbf     MOVWF     0xbf,0x1           movwf prom+1, 1                                                              C:\FrcCode\ifi_startup.c
003272   0009     TBLRDPOSTINC                 tblrdpostinc                                                                 C:\FrcCode\ifi_startup.c
003274   50f5     MOVF      0xf5,0x0,0x0       movf  TABLAT, 0, 0                                                           C:\FrcCode\ifi_startup.c
003276   6fc0     MOVWF     0xc0,0x1           movwf prom+2, 1                                                              C:\FrcCode\ifi_startup.c
                                               /* skip a byte since it's stored as a 32bit int */                           C:\FrcCode\ifi_startup.c
003278   0009     TBLRDPOSTINC                 tblrdpostinc                                                                 C:\FrcCode\ifi_startup.c
                                               /* read the destination address directly into FSR0 */                        C:\FrcCode\ifi_startup.c
00327a   0009     TBLRDPOSTINC                 tblrdpostinc                                                                 C:\FrcCode\ifi_startup.c
00327c   50f5     MOVF      0xf5,0x0,0x0       movf  TABLAT, 0, 0                                                           C:\FrcCode\ifi_startup.c
00327e   6ee9     MOVWF     0xe9,0x0           movwf FSR0L, 0                                                               C:\FrcCode\ifi_startup.c
003280   0009     TBLRDPOSTINC                 tblrdpostinc                                                                 C:\FrcCode\ifi_startup.c
003282   50f5     MOVF      0xf5,0x0,0x0       movf  TABLAT, 0, 0                                                           C:\FrcCode\ifi_startup.c
003284   6eea     MOVWF     0xea,0x0           movwf FSR0H, 0                                                               C:\FrcCode\ifi_startup.c
                                               /* skip two bytes since it's stored as a 32bit int */                        C:\FrcCode\ifi_startup.c
003286   0009     TBLRDPOSTINC                 tblrdpostinc                                                                 C:\FrcCode\ifi_startup.c
003288   0009     TBLRDPOSTINC                 tblrdpostinc                                                                 C:\FrcCode\ifi_startup.c
                                               /* read the destination address directly into FSR0 */                        C:\FrcCode\ifi_startup.c
00328a   0009     TBLRDPOSTINC                 tblrdpostinc                                                                 C:\FrcCode\ifi_startup.c
00328c   50f5     MOVF      0xf5,0x0,0x0       movf  TABLAT, 0, 0                                                           C:\FrcCode\ifi_startup.c
00328e   6fc1     MOVWF     0xc1,0x1           movwf curr_byte, 1                                                           C:\FrcCode\ifi_startup.c
003290   0009     TBLRDPOSTINC                 tblrdpostinc                                                                 C:\FrcCode\ifi_startup.c
003292   50f5     MOVF      0xf5,0x0,0x0       movf  TABLAT, 0, 0                                                           C:\FrcCode\ifi_startup.c
003294   6fc2     MOVWF     0xc2,0x1           movwf curr_byte+1, 1                                                         C:\FrcCode\ifi_startup.c
                                               /* skip two bytes since it's stored as a 32bit int */                        C:\FrcCode\ifi_startup.c
003296   0009     TBLRDPOSTINC                 tblrdpostinc                                                                 C:\FrcCode\ifi_startup.c
003298   0009     TBLRDPOSTINC                 tblrdpostinc                                                                 C:\FrcCode\ifi_startup.c
                                             _endasm                                                                        C:\FrcCode\ifi_startup.c
                                                                                                                            C:\FrcCode\ifi_startup.c
                                             /* the table pointer now points to the next entry. Save it                     C:\FrcCode\ifi_startup.c
                                              * off since we'll be using the table pointer to do the copying                C:\FrcCode\ifi_startup.c
                                              * for the entry.                                                              C:\FrcCode\ifi_startup.c
                                              */                                                                            C:\FrcCode\ifi_startup.c
00329a   cff6     MOVFF     0xff6,0x7c5      data_ptr = TBLPTR;                                                             C:\FrcCode\ifi_startup.c
00329c   f7c5                                                                                                               
00329e   cff7     MOVFF     0xff7,0x7c6                                                                                     
0032a0   f7c6                                                                                                               
0032a2   cff8     MOVFF     0xff8,0x7c7                                                                                     
0032a4   f7c7                                                                                                               
                                                                                                                            C:\FrcCode\ifi_startup.c
                                             /* now assign the source address to the table pointer */                       C:\FrcCode\ifi_startup.c
0032a6   c7be     MOVFF     0x7be,0xff6      TBLPTR = prom;                                                                 C:\FrcCode\ifi_startup.c
0032a8   fff6                                                                                                               
0032aa   c7bf     MOVFF     0x7bf,0xff7                                                                                     
0032ac   fff7                                                                                                               
0032ae   c7c0     MOVFF     0x7c0,0xff8                                                                                     
0032b0   fff8                                                                                                               
                                                                                                                            C:\FrcCode\ifi_startup.c
                                             /* do the copy loop */                                                         C:\FrcCode\ifi_startup.c
                                             _asm                                                                           C:\FrcCode\ifi_startup.c
                                                     /* determine if we have any more bytes to copy */                      C:\FrcCode\ifi_startup.c
0032b2   0107     MOVLB     0x7                movlb curr_byte                                                              C:\FrcCode\ifi_startup.c
0032b4   53c1     MOVF      0xc1,0x1,0x1       movf  curr_byte, 1, 1                                                        C:\FrcCode\ifi_startup.c
                                           copy_loop:                                                                       C:\FrcCode\ifi_startup.c
0032b6   e102     BNZ       0x32bc             bnz 2 /* copy_one_byte */                                                    C:\FrcCode\ifi_startup.c
0032b8   53c2     MOVF      0xc2,0x1,0x1       movf  curr_byte + 1, 1, 1                                                    C:\FrcCode\ifi_startup.c
0032ba   e007     BZ        0x32ca             bz 7  /* done_copying */                                                     C:\FrcCode\ifi_startup.c
                                                                                                                            C:\FrcCode\ifi_startup.c
                                           copy_one_byte:                                                                   C:\FrcCode\ifi_startup.c
0032bc   0009     TBLRDPOSTINC                 tblrdpostinc                                                                 C:\FrcCode\ifi_startup.c
0032be   50f5     MOVF      0xf5,0x0,0x0       movf  TABLAT, 0, 0                                                           C:\FrcCode\ifi_startup.c
0032c0   6eee     MOVWF     0xee,0x0           movwf POSTINC0, 0                                                            C:\FrcCode\ifi_startup.c
                                                                                                                            C:\FrcCode\ifi_startup.c
                                               /* decrement byte counter */                                                 C:\FrcCode\ifi_startup.c
0032c2   07c1     DECF      0xc1,0x1,0x1       decf  curr_byte, 1, 1                                                        C:\FrcCode\ifi_startup.c
0032c4   e2f8     BC        0x32b6             bc -8   /* copy_loop */                                                      C:\FrcCode\ifi_startup.c
0032c6   07c2     DECF      0xc2,0x1,0x1       decf  curr_byte + 1, 1, 1                                                    C:\FrcCode\ifi_startup.c
0032c8   d7f9     BRA       0x32bc             bra -7  /* copy_one_byte */                                                  C:\FrcCode\ifi_startup.c
                                                                                                                            C:\FrcCode\ifi_startup.c
                                           done_copying:                                                                    C:\FrcCode\ifi_startup.c
                                             _endasm                                                                        C:\FrcCode\ifi_startup.c
                                                 /* restore the table pointer for the next entry */                         C:\FrcCode\ifi_startup.c
0032ca   c7c5     MOVFF     0x7c5,0xff6      TBLPTR = data_ptr;                                                             C:\FrcCode\ifi_startup.c
0032cc   fff6                                                                                                               
0032ce   c7c6     MOVFF     0x7c6,0xff7                                                                                     
0032d0   fff7                                                                                                               
0032d2   c7c7     MOVFF     0x7c7,0xff8                                                                                     
0032d4   fff8                                                                                                               
                                             /* next entry... */                                                            C:\FrcCode\ifi_startup.c
0032d6   0107     MOVLB     0x7              curr_entry--;                                                                  C:\FrcCode\ifi_startup.c
0032d8   07c3     DECF      0xc3,0x1,0x1                                                                                    
0032da   0e00     MOVLW     0x0                                                                                             
0032dc   5bc4     SUBWFB    0xc4,0x1,0x1                                                                                    
0032de   d7bf     BRA       0x325e           goto test;                                                                     C:\FrcCode\ifi_startup.c
                                           done:                                                                            C:\FrcCode\ifi_startup.c
                                           ;                                                                                C:\FrcCode\ifi_startup.c
0032e0   0012     RETURN    0x0            }                                                                                C:\FrcCode\ifi_startup.c
                                                   LIST                                                                     C:\Program Files\MPLAB IDE\MCHIP_Tools\p18f8520.inc
                                                                                                                            C:\Program Files\MPLAB IDE\MCHIP_Tools\p18f8520.inc
                                           ;==========================================================================      C:\Program Files\MPLAB IDE\MCHIP_Tools\p18f8520.inc
                                           ;  $Id: P18F8520.INC,v 1.5 2003/05/30 22:31:28 sealep Exp $                      C:\Program Files\MPLAB IDE\MCHIP_Tools\p18f8520.inc
                                           ;  MPASM PIC18F8520 processor include                                            C:\Program Files\MPLAB IDE\MCHIP_Tools\p18f8520.inc
                                           ;                                                                                C:\Program Files\MPLAB IDE\MCHIP_Tools\p18f8520.inc
                                           ;  (c) Copyright 1999-2003 Microchip Technology, All rights reserved             C:\Program Files\MPLAB IDE\MCHIP_Tools\p18f8520.inc
                                           ;==========================================================================      C:\Program Files\MPLAB IDE\MCHIP_Tools\p18f8520.inc
                                                                                                                            C:\Program Files\MPLAB IDE\MCHIP_Tools\p18f8520.inc
                                                   LIST                                                                     C:\Program Files\MPLAB IDE\MCHIP_Tools\p18f8520.inc
