MP2COD 3.40, COFF to COD File Converter
Copyright (c) 2003 Microchip Technology Inc.
Listing File Generated: Thu Mar 25 19:42:05 2004


Address  Value    Disassembly              Source                                                                           File
-------  -------  -----------------------  -------------------------------------------------------------------------------  -----
                                           /******************************************************************************* C:\Hannibal Code1.1\main.c
                                           * FILE NAME: main.c <FRC VERSION>                                                C:\Hannibal Code1.1\main.c
                                           *                                                                                C:\Hannibal Code1.1\main.c
                                           * DESCRIPTION:                                                                   C:\Hannibal Code1.1\main.c
                                           *  This file contains the main program loop.                                     C:\Hannibal Code1.1\main.c
                                           *                                                                                C:\Hannibal Code1.1\main.c
                                           * USAGE:                                                                         C:\Hannibal Code1.1\main.c
                                           *  You should not need to modify this file.                                      C:\Hannibal Code1.1\main.c
                                           *  Note the different loop speed for the two routines:                           C:\Hannibal Code1.1\main.c
                                           *     Process_Data_From_Master_uP                                                C:\Hannibal Code1.1\main.c
                                           *     Process_Data_From_Local_IO                                                 C:\Hannibal Code1.1\main.c
                                           *******************************************************************************/ C:\Hannibal Code1.1\main.c
                                                                                                                            C:\Hannibal Code1.1\main.c
                                           #include "ifi_aliases.h"                                                         C:\Hannibal Code1.1\main.c
                                           #include "ifi_default.h"                                                         C:\Hannibal Code1.1\main.c
                                           #include "ifi_utilities.h"                                                       C:\Hannibal Code1.1\main.c
                                           #include "user_routines.h"                                                       C:\Hannibal Code1.1\main.c
                                                                                                                            C:\Hannibal Code1.1\main.c
                                           tx_data_record txdata;          /* DO NOT CHANGE! */                             C:\Hannibal Code1.1\main.c
                                           rx_data_record rxdata;          /* DO NOT CHANGE! */                             C:\Hannibal Code1.1\main.c
                                           packed_struct statusflag;       /* DO NOT CHANGE! */                             C:\Hannibal Code1.1\main.c
                                                                                                                            C:\Hannibal Code1.1\main.c
                                           /******************************************************************************* C:\Hannibal Code1.1\main.c
                                           * FUNCTION NAME: main                                                            C:\Hannibal Code1.1\main.c
                                           * PURPOSE:       Main program function.                                          C:\Hannibal Code1.1\main.c
                                           * CALLED FROM:   ifi_startup.c                                                   C:\Hannibal Code1.1\main.c
                                           * ARGUMENTS:     none                                                            C:\Hannibal Code1.1\main.c
                                           * RETURNS:       void                                                            C:\Hannibal Code1.1\main.c
                                           * DO NOT DELETE THIS FUNCTION                                                    C:\Hannibal Code1.1\main.c
                                           *******************************************************************************/ C:\Hannibal Code1.1\main.c
                                           void main (void)                                                                 C:\Hannibal Code1.1\main.c
                                           {                                                                                C:\Hannibal Code1.1\main.c
                                           #ifdef UNCHANGEABLE_DEFINITION_AREA                                              C:\Hannibal Code1.1\main.c
0043f4   ecb7     CALL      0x376e,0x0       IFI_Initialization ();        /* DO NOT CHANGE! */                             C:\Hannibal Code1.1\main.c
0043f6   f01b                                                                                                               
                                           #endif                                                                           C:\Hannibal Code1.1\main.c
                                                                                                                            C:\Hannibal Code1.1\main.c
0043f8   ecbc     CALL      0x2378,0x0       User_Initialization();        /* You edit this in user_routines.c */           C:\Hannibal Code1.1\main.c
0043fa   f011                                                                                                               
                                                                                                                            C:\Hannibal Code1.1\main.c
0043fc   0107     MOVLB     0x7              statusflag.NEW_SPI_DATA = 0;  /* DO NOT CHANGE! */                             C:\Hannibal Code1.1\main.c
0043fe   9198     BCF       0x98,0x0,0x1                                                                                    
                                                                                                                            C:\Hannibal Code1.1\main.c
004418   d7f3     BRA       0x4400           while (1)   /* This loop will repeat indefinitely. */                          C:\Hannibal Code1.1\main.c
                                             {                                                                              C:\Hannibal Code1.1\main.c
                                           #ifdef _SIMULATOR                                                                C:\Hannibal Code1.1\main.c
                                               statusflag.NEW_SPI_DATA = 1;                                                 C:\Hannibal Code1.1\main.c
                                           #endif                                                                           C:\Hannibal Code1.1\main.c
                                                                                                                            C:\Hannibal Code1.1\main.c
004400   0107     MOVLB     0x7                if (statusflag.NEW_SPI_DATA)      /* 26.2ms loop area */                     C:\Hannibal Code1.1\main.c
004402   a198     BTFSS     0x98,0x0,0x1                                                                                    
004404   d007     BRA       0x4414                                                                                          
                                               {                                 /* I'm slow!  I only execute every 26.2ms because */ C:\Hannibal Code1.1\main.c
                                                                                 /* that's how fast the Master uP gives me data. */ C:\Hannibal Code1.1\main.c
004406   ec30     CALL      0x2460,0x0           Process_Data_From_Master_uP();  /* You edit this in user_routines.c */     C:\Hannibal Code1.1\main.c
004408   f012                                                                                                               
                                                                                                                            C:\Hannibal Code1.1\main.c
00440a   0107     MOVLB     0x7                  if (autonomous_mode)            /* DO NOT CHANGE! */                       C:\Hannibal Code1.1\main.c
00440c   ad79     BTFSS     0x79,0x6,0x1                                                                                    
00440e   d002     BRA       0x4414                                                                                          
                                                 {                                                                          C:\Hannibal Code1.1\main.c
004410   ec38     CALL      0x3270,0x0             User_Autonomous_Code();        /* You edit this in user_routines_fast.c */ C:\Hannibal Code1.1\main.c
004412   f019                                                                                                               
                                                 }                                                                          C:\Hannibal Code1.1\main.c
                                               }                                                                            C:\Hannibal Code1.1\main.c
004414   ec59     CALL      0x36b2,0x0         Process_Data_From_Local_IO();     /* You edit this in user_routines_fast.c */ C:\Hannibal Code1.1\main.c
004416   f01b                                                                                                               
                                                                                 /* I'm fast!  I execute during every loop.*/ C:\Hannibal Code1.1\main.c
                                             } /* while (1) */                                                              C:\Hannibal Code1.1\main.c
00441a   0012     RETURN    0x0            }  /* END of Main */                                                             C:\Hannibal Code1.1\main.c
                                                                                                                            C:\Hannibal Code1.1\main.c
                                                                                                                            C:\Hannibal Code1.1\main.c
                                           /******************************************************************************/ C:\Hannibal Code1.1\main.c
                                           /******************************************************************************/ C:\Hannibal Code1.1\main.c
                                           /******************************************************************************/ C:\Hannibal Code1.1\main.c
                                           /******************************************************************************* C:\Hannibal Code1.1\user_routines_fast.c
                                           * FILE NAME: user_routines_fast.c <FRC VERSION>                                  C:\Hannibal Code1.1\user_routines_fast.c
                                           *                                                                                C:\Hannibal Code1.1\user_routines_fast.c
                                           * DESCRIPTION:                                                                   C:\Hannibal Code1.1\user_routines_fast.c
                                           *  This file is where the user can add their custom code within the framework    C:\Hannibal Code1.1\user_routines_fast.c
                                           *  of the routines below.                                                        C:\Hannibal Code1.1\user_routines_fast.c
                                           *                                                                                C:\Hannibal Code1.1\user_routines_fast.c
                                           * USAGE:                                                                         C:\Hannibal Code1.1\user_routines_fast.c
                                           *  You can either modify this file to fit your needs, or remove it from your     C:\Hannibal Code1.1\user_routines_fast.c
                                           *  project and replace it with a modified copy.                                  C:\Hannibal Code1.1\user_routines_fast.c
                                           *                                                                                C:\Hannibal Code1.1\user_routines_fast.c
                                           * OPTIONS:  Interrupts are disabled and not used by default.                     C:\Hannibal Code1.1\user_routines_fast.c
                                           *                                                                                C:\Hannibal Code1.1\user_routines_fast.c
                                           *******************************************************************************/ C:\Hannibal Code1.1\user_routines_fast.c
                                                                                                                            C:\Hannibal Code1.1\user_routines_fast.c
                                           #include "ifi_aliases.h"                                                         C:\Hannibal Code1.1\user_routines_fast.c
                                           #include "ifi_default.h"                                                         C:\Hannibal Code1.1\user_routines_fast.c
                                           #include "ifi_utilities.h"                                                       C:\Hannibal Code1.1\user_routines_fast.c
                                           #include "user_routines.h"                                                       C:\Hannibal Code1.1\user_routines_fast.c
                                           #include "receiver.h"                                                            C:\Hannibal Code1.1\user_routines_fast.c
                                           #include "printf_lib.h"                                                          C:\Hannibal Code1.1\user_routines_fast.c
                                                                                                                            C:\Hannibal Code1.1\user_routines_fast.c
                                                                                                                            C:\Hannibal Code1.1\user_routines_fast.c
                                           static unsigned char hitBall=0;                                                  C:\Hannibal Code1.1\user_routines_fast.c
                                           /******************************************************************************* C:\Hannibal Code1.1\user_routines_fast.c
                                           *                                                                                C:\Hannibal Code1.1\user_routines_fast.c
                                           *	FUNCTION:		InterruptVectorLow()                                                C:\Hannibal Code1.1\user_routines_fast.c
                                           *                                                                                C:\Hannibal Code1.1\user_routines_fast.c
                                           *	PURPOSE:		Installs the low priority interrupt code at the low                  C:\Hannibal Code1.1\user_routines_fast.c
                                           *					priority interrupt vector, which is a fixed place in                       C:\Hannibal Code1.1\user_routines_fast.c
                                           *					memory where the microcontroller will start executing                      C:\Hannibal Code1.1\user_routines_fast.c
                                           *					code when it detects an interrupt condition. Because                       C:\Hannibal Code1.1\user_routines_fast.c
                                           *					this place in memory, at address 24/0x18, is intended                      C:\Hannibal Code1.1\user_routines_fast.c
                                           *					to contain only a very small amount of code, general                       C:\Hannibal Code1.1\user_routines_fast.c
                                           *					practice is to place a "goto" instruction here that                        C:\Hannibal Code1.1\user_routines_fast.c
                                           *					will point to the real interrupt handler somewhere else                    C:\Hannibal Code1.1\user_routines_fast.c
                                           *					in memory. More information on interrupts can be found                     C:\Hannibal Code1.1\user_routines_fast.c
                                           *					in section nine [87] of the PIC18F8520 data sheet.                         C:\Hannibal Code1.1\user_routines_fast.c
                                           *                                                                                C:\Hannibal Code1.1\user_routines_fast.c
                                           *	CALLED FROM:	Called in response to a hardware generated interrupt              C:\Hannibal Code1.1\user_routines_fast.c
                                           *                                                                                C:\Hannibal Code1.1\user_routines_fast.c
                                           *	PARAMETERS:		None                                                              C:\Hannibal Code1.1\user_routines_fast.c
                                           *                                                                                C:\Hannibal Code1.1\user_routines_fast.c
                                           *	RETURNS:		Nothing                                                              C:\Hannibal Code1.1\user_routines_fast.c
                                           *                                                                                C:\Hannibal Code1.1\user_routines_fast.c
                                           *******************************************************************************/ C:\Hannibal Code1.1\user_routines_fast.c
                                           #pragma code InterruptVectorLow = LOW_INT_VECTOR                                 C:\Hannibal Code1.1\user_routines_fast.c
                                                                                                                            C:\Hannibal Code1.1\user_routines_fast.c
                                           void InterruptVectorLow (void)                                                   C:\Hannibal Code1.1\user_routines_fast.c
                                           {                                                                                C:\Hannibal Code1.1\user_routines_fast.c
                                             _asm                                                                           C:\Hannibal Code1.1\user_routines_fast.c
000818   efb3     GOTO      0x3166             goto InterruptHandlerLow  /*jump to interrupt routine*/                      C:\Hannibal Code1.1\user_routines_fast.c
00081a   f018                                                                                                               
                                             _endasm                                                                        C:\Hannibal Code1.1\user_routines_fast.c
00081c   0012     RETURN    0x0            }                                                                                C:\Hannibal Code1.1\user_routines_fast.c
                                                                                                                            C:\Hannibal Code1.1\user_routines_fast.c
                                           #pragma code                                                                     C:\Hannibal Code1.1\user_routines_fast.c
                                                                                                                            C:\Hannibal Code1.1\user_routines_fast.c
                                           /******************************************************************************* C:\Hannibal Code1.1\user_routines_fast.c
                                           *                                                                                C:\Hannibal Code1.1\user_routines_fast.c
                                           *	FUNCTION:		InterruptHandlerLow()                                               C:\Hannibal Code1.1\user_routines_fast.c
                                           *                                                                                C:\Hannibal Code1.1\user_routines_fast.c
                                           *	PURPOSE:		Determines which individual interrupt handler                        C:\Hannibal Code1.1\user_routines_fast.c
                                           *					should be called, clears the interrupt flag and                            C:\Hannibal Code1.1\user_routines_fast.c
                                           *					then calls the interrupt handler.                                          C:\Hannibal Code1.1\user_routines_fast.c
                                           *                                                                                C:\Hannibal Code1.1\user_routines_fast.c
                                           *	CALLED FROM:	InterruptVectorLow()                                              C:\Hannibal Code1.1\user_routines_fast.c
                                           *                                                                                C:\Hannibal Code1.1\user_routines_fast.c
                                           *	PARAMETERS:		None                                                              C:\Hannibal Code1.1\user_routines_fast.c
                                           *                                                                                C:\Hannibal Code1.1\user_routines_fast.c
                                           *	RETURNS:		Nothing                                                              C:\Hannibal Code1.1\user_routines_fast.c
                                           *                                                                                C:\Hannibal Code1.1\user_routines_fast.c
                                           *******************************************************************************/ C:\Hannibal Code1.1\user_routines_fast.c
                                           #pragma interruptlow InterruptHandlerLow                                         C:\Hannibal Code1.1\user_routines_fast.c
                                                                                                                            C:\Hannibal Code1.1\user_routines_fast.c
003166   cfd8     MOVFF     0xfd8,0xfe4    void InterruptHandlerLow ()                                                      C:\Hannibal Code1.1\user_routines_fast.c
003168   ffe4                                                                                                               
00316a   cfe0     MOVFF     0xfe0,0xfe4                                                                                     
00316c   ffe4                                                                                                               
00316e   6ee4     MOVWF     0xe4,0x0                                                                                        
003170   cfda     MOVFF     0xfda,0xfe4                                                                                     
003172   ffe4                                                                                                               
003174   cfe2     MOVFF     0xfe2,0xfda                                                                                     
003176   ffda                                                                                                               
003178   cfe9     MOVFF     0xfe9,0xfe4                                                                                     
00317a   ffe4                                                                                                               
00317c   cfea     MOVFF     0xfea,0xfe4                                                                                     
00317e   ffe4                                                                                                               
003180   52e6     MOVF      0xe6,0x1,0x0                                                                                    
003182   cfd9     MOVFF     0xfd9,0xfe6                                                                                     
003184   ffe6                                                                                                               
003186   cfe1     MOVFF     0xfe1,0xfd9                                                                                     
003188   ffd9                                                                                                               
00318a   0e02     MOVLW     0x2                                                                                             
00318c   26e1     ADDWF     0xe1,0x1,0x0                                                                                    
                                           {                                                                                C:\Hannibal Code1.1\user_routines_fast.c
                                           	unsigned char Port_B;                                                           C:\Hannibal Code1.1\user_routines_fast.c
                                           	unsigned char Port_B_Delta;                                                     C:\Hannibal Code1.1\user_routines_fast.c
                                           	static unsigned char Old_Port_B = 0xFF; // state of port b the last time        C:\Hannibal Code1.1\user_routines_fast.c
                                           											// this function was called                                           C:\Hannibal Code1.1\user_routines_fast.c
                                           	                                                                                C:\Hannibal Code1.1\user_routines_fast.c
00318e   a4f2     BTFSS     0xf2,0x2,0x0   	if (INTCONbits.TMR0IF) // timer 0 Interrupt                                     C:\Hannibal Code1.1\user_routines_fast.c
003190   d002     BRA       0x3196                                                                                          
                                           	{                                                                               C:\Hannibal Code1.1\user_routines_fast.c
003192   94f2     BCF       0xf2,0x2,0x0   		INTCONbits.TMR0IF = 0; // clear the interrupt flag                             C:\Hannibal Code1.1\user_routines_fast.c
                                           		//Timer_0_Int_Handler();                                                       C:\Hannibal Code1.1\user_routines_fast.c
                                           	}                                                                               C:\Hannibal Code1.1\user_routines_fast.c
                                                                                                                            C:\Hannibal Code1.1\user_routines_fast.c
003194   d05b     BRA       0x324c         	else if (PIR1bits.TMR1IF) // timer 1 interrupt - used by the IR receiver        C:\Hannibal Code1.1\user_routines_fast.c
003196   a09e     BTFSS     0x9e,0x0,0x0                                                                                    
003198   d004     BRA       0x31a2                                                                                          
                                           	{                                                                               C:\Hannibal Code1.1\user_routines_fast.c
00319a   909e     BCF       0x9e,0x0,0x0   		PIR1bits.TMR1IF = 0; // clear the interrupt flag                               C:\Hannibal Code1.1\user_routines_fast.c
00319c   ecbe     CALL      0x3f7c,0x0     		Timer_1_Int_Handler(); // call the timer 1 interrupt handler (in receiver.c)   C:\Hannibal Code1.1\user_routines_fast.c
00319e   f01f                                                                                                               
                                           	}                                                                               C:\Hannibal Code1.1\user_routines_fast.c
                                                                                                                            C:\Hannibal Code1.1\user_routines_fast.c
0031a0   d055     BRA       0x324c         	else if(PIR1bits.TMR2IF)                                                        C:\Hannibal Code1.1\user_routines_fast.c
0031a2   a29e     BTFSS     0x9e,0x1,0x0                                                                                    
0031a4   d004     BRA       0x31ae                                                                                          
                                           	{                                                                               C:\Hannibal Code1.1\user_routines_fast.c
0031a6   929e     BCF       0x9e,0x1,0x0   		PIR1bits.TMR2IF = 0;                                                           C:\Hannibal Code1.1\user_routines_fast.c
0031a8   ecb7     CALL      0x3f6e,0x0     		Timer_2_Int_Handler();                                                         C:\Hannibal Code1.1\user_routines_fast.c
0031aa   f01f                                                                                                               
                                           	}                                                                               C:\Hannibal Code1.1\user_routines_fast.c
                                                                                                                            C:\Hannibal Code1.1\user_routines_fast.c
0031ac   d04f     BRA       0x324c         	else if (INTCON3bits.INT2IF) // external interrupt 1                            C:\Hannibal Code1.1\user_routines_fast.c
0031ae   a2f0     BTFSS     0xf0,0x1,0x0                                                                                    
0031b0   d002     BRA       0x31b6                                                                                          
                                           	{                                                                               C:\Hannibal Code1.1\user_routines_fast.c
0031b2   92f0     BCF       0xf0,0x1,0x0   		INTCON3bits.INT2IF = 0; // clear the interrupt flag                            C:\Hannibal Code1.1\user_routines_fast.c
                                           		// if used, call the interrupt 1 handler here                                  C:\Hannibal Code1.1\user_routines_fast.c
                                           	}                                                                               C:\Hannibal Code1.1\user_routines_fast.c
                                                                                                                            C:\Hannibal Code1.1\user_routines_fast.c
0031b4   d04b     BRA       0x324c         	else if (INTCON3bits.INT3IF) // external interrupt 2                            C:\Hannibal Code1.1\user_routines_fast.c
0031b6   a4f0     BTFSS     0xf0,0x2,0x0                                                                                    
0031b8   d002     BRA       0x31be                                                                                          
                                           	{                                                                               C:\Hannibal Code1.1\user_routines_fast.c
0031ba   94f0     BCF       0xf0,0x2,0x0   		INTCON3bits.INT3IF = 0; // clear the interrupt flag                            C:\Hannibal Code1.1\user_routines_fast.c
                                           		// if used, call the interrupt 2 handler here                                  C:\Hannibal Code1.1\user_routines_fast.c
                                           	}                                                                               C:\Hannibal Code1.1\user_routines_fast.c
                                                                                                                            C:\Hannibal Code1.1\user_routines_fast.c
0031bc   d047     BRA       0x324c         	else if (INTCONbits.RBIF) // external interrupts 3 through 6                    C:\Hannibal Code1.1\user_routines_fast.c
0031be   a0f2     BTFSS     0xf2,0x0,0x0                                                                                    
0031c0   d045     BRA       0x324c                                                                                          
                                           	{                                                                               C:\Hannibal Code1.1\user_routines_fast.c
0031c2   5081     MOVF      0x81,0x0,0x0   		Port_B = PORTB; // remove the "mismatch condition" by reading port b             C:\Hannibal Code1.1\user_routines_fast.c
0031c4   6edf     MOVWF     0xdf,0x0                                                                                        
0031c6   90f2     BCF       0xf2,0x0,0x0   		INTCONbits.RBIF = 0; // clear the interrupt flag                               C:\Hannibal Code1.1\user_routines_fast.c
0031c8   50df     MOVF      0xdf,0x0,0x0   		Port_B_Delta = Port_B ^ Old_Port_B; // determine which bits have changed       C:\Hannibal Code1.1\user_routines_fast.c
0031ca   0107     MOVLB     0x7                                                                                             
0031cc   19f3     XORWF     0xf3,0x0,0x1                                                                                    
0031ce   6ee7     MOVWF     0xe7,0x0                                                                                        
0031d0   0e01     MOVLW     0x1                                                                                             
0031d2   cfe7     MOVFF     0xfe7,0xfdb                                                                                     
0031d4   ffdb                                                                                                               
0031d6   cfdf     MOVFF     0xfdf,0x7f3    		Old_Port_B = Port_B; // save a copy of port b for next time around             C:\Hannibal Code1.1\user_routines_fast.c
0031d8   f7f3                                                                                                               
                                           		                                                                               C:\Hannibal Code1.1\user_routines_fast.c
0031da   a8db     BTFSS     0xdb,0x4,0x0   		if(Port_B_Delta & 0x10) // did external interrupt 3 change state? - IR sensor 1 C:\Hannibal Code1.1\user_routines_fast.c
0031dc   d010     BRA       0x31fe                                                                                          
                                           		{                                                                              C:\Hannibal Code1.1\user_routines_fast.c
0031de   0ef2     MOVLW     0xf2           			Int_3_Handler(Port_B & 0x10 ? 1 : 0, &hitBall); // call the interrupt 3 handler (in receiver.c) C:\Hannibal Code1.1\user_routines_fast.c
0031e0   6ee6     MOVWF     0xe6,0x0                                                                                        
0031e2   0e07     MOVLW     0x7                                                                                             
0031e4   6ee6     MOVWF     0xe6,0x0                                                                                        
0031e6   0e10     MOVLW     0x10                                                                                            
0031e8   14df     ANDWF     0xdf,0x0,0x0                                                                                    
0031ea   e002     BZ        0x31f0                                                                                          
0031ec   0e01     MOVLW     0x1                                                                                             
0031ee   d001     BRA       0x31f2                                                                                          
0031f0   0e00     MOVLW     0x0                                                                                             
0031f2   6ee6     MOVWF     0xe6,0x0                                                                                        
0031f4   ecc3     CALL      0x3f86,0x0                                                                                      
0031f6   f01f                                                                                                               
0031f8   52e5     MOVF      0xe5,0x1,0x0                                                                                    
0031fa   52e5     MOVF      0xe5,0x1,0x0                                                                                    
0031fc   52e5     MOVF      0xe5,0x1,0x0                                                                                    
                                           		}                                                                              C:\Hannibal Code1.1\user_routines_fast.c
                                                                                                                            C:\Hannibal Code1.1\user_routines_fast.c
0031fe   0e01     MOVLW     0x1            		if(Port_B_Delta & 0x20) // did external interrupt 4 change state? - IR sensor 2 C:\Hannibal Code1.1\user_routines_fast.c
003200   aadb     BTFSS     0xdb,0x5,0x0                                                                                    
003202   d00a     BRA       0x3218                                                                                          
                                           		{                                                                              C:\Hannibal Code1.1\user_routines_fast.c
003204   0e20     MOVLW     0x20           			Int_4_Handler(Port_B & 0x20 ? 1 : 0); // call the interrupt 4 handler (in receiver.c) C:\Hannibal Code1.1\user_routines_fast.c
003206   14df     ANDWF     0xdf,0x0,0x0                                                                                    
003208   e002     BZ        0x320e                                                                                          
00320a   0e01     MOVLW     0x1                                                                                             
00320c   d001     BRA       0x3210                                                                                          
00320e   0e00     MOVLW     0x0                                                                                             
003210   6ee6     MOVWF     0xe6,0x0                                                                                        
003212   ece9     CALL      0x3fd2,0x0                                                                                      
003214   f01f                                                                                                               
003216   52e5     MOVF      0xe5,0x1,0x0                                                                                    
                                           		}                                                                              C:\Hannibal Code1.1\user_routines_fast.c
                                                                                                                            C:\Hannibal Code1.1\user_routines_fast.c
003218   0e01     MOVLW     0x1            		if(Port_B_Delta & 0x40) // did external interrupt 5 change state? - IR sensor 3 C:\Hannibal Code1.1\user_routines_fast.c
00321a   acdb     BTFSS     0xdb,0x6,0x0                                                                                    
00321c   d00a     BRA       0x3232                                                                                          
                                           		{                                                                              C:\Hannibal Code1.1\user_routines_fast.c
00321e   0e40     MOVLW     0x40           			Int_5_Handler(Port_B & 0x40 ? 1 : 0); // call the interrupt 5 handler (in receiver.c) C:\Hannibal Code1.1\user_routines_fast.c
003220   14df     ANDWF     0xdf,0x0,0x0                                                                                    
003222   e002     BZ        0x3228                                                                                          
003224   0e01     MOVLW     0x1                                                                                             
003226   d001     BRA       0x322a                                                                                          
003228   0e00     MOVLW     0x0                                                                                             
00322a   6ee6     MOVWF     0xe6,0x0                                                                                        
00322c   ecf7     CALL      0x3fee,0x0                                                                                      
00322e   f01f                                                                                                               
003230   52e5     MOVF      0xe5,0x1,0x0                                                                                    
                                           		}                                                                              C:\Hannibal Code1.1\user_routines_fast.c
                                           		                                                                               C:\Hannibal Code1.1\user_routines_fast.c
003232   0e01     MOVLW     0x1            		if(Port_B_Delta & 0x80) // did external interrupt 6 change state? - IR sensor 4 C:\Hannibal Code1.1\user_routines_fast.c
003234   aedb     BTFSS     0xdb,0x7,0x0                                                                                    
003236   d00a     BRA       0x324c                                                                                          
                                           		{                                                                              C:\Hannibal Code1.1\user_routines_fast.c
003238   0e80     MOVLW     0x80           			Int_6_Handler(Port_B & 0x80 ? 1 : 0); // call the interrupt 6 handler (in receiver.c) C:\Hannibal Code1.1\user_routines_fast.c
00323a   14df     ANDWF     0xdf,0x0,0x0                                                                                    
00323c   e002     BZ        0x3242                                                                                          
00323e   0e01     MOVLW     0x1                                                                                             
003240   d001     BRA       0x3244                                                                                          
003242   0e00     MOVLW     0x0                                                                                             
003244   6ee6     MOVWF     0xe6,0x0                                                                                        
003246   ec05     CALL      0x400a,0x0                                                                                      
003248   f020                                                                                                               
00324a   52e5     MOVF      0xe5,0x1,0x0                                                                                    
                                           		}                                                                              C:\Hannibal Code1.1\user_routines_fast.c
                                           	}                                                                               C:\Hannibal Code1.1\user_routines_fast.c
00324c   cfd9     MOVFF     0xfd9,0xfe1    }                                                                                C:\Hannibal Code1.1\user_routines_fast.c
00324e   ffe1                                                                                                               
003250   52e5     MOVF      0xe5,0x1,0x0                                                                                    
003252   cfe7     MOVFF     0xfe7,0xfd9                                                                                     
003254   ffd9                                                                                                               
003256   52e5     MOVF      0xe5,0x1,0x0                                                                                    
003258   cfe5     MOVFF     0xfe5,0xfea                                                                                     
00325a   ffea                                                                                                               
00325c   cfe5     MOVFF     0xfe5,0xfe9                                                                                     
00325e   ffe9                                                                                                               
003260   cfe5     MOVFF     0xfe5,0xfda                                                                                     
003262   ffda                                                                                                               
003264   50e5     MOVF      0xe5,0x0,0x0                                                                                    
003266   cfe5     MOVFF     0xfe5,0xfe0                                                                                     
003268   ffe0                                                                                                               
00326a   cfe5     MOVFF     0xfe5,0xfd8                                                                                     
00326c   ffd8                                                                                                               
00326e   0010     RETFIE    0x0                                                                                             
                                                                                                                            C:\Hannibal Code1.1\user_routines_fast.c
                                           /******************************************************************************* C:\Hannibal Code1.1\user_routines_fast.c
                                           * FUNCTION NAME: User_Autonomous_Code                                            C:\Hannibal Code1.1\user_routines_fast.c
                                           * PURPOSE:       Execute user's code during autonomous robot operation.          C:\Hannibal Code1.1\user_routines_fast.c
                                           * You should modify this routine by adding code which you wish to run in         C:\Hannibal Code1.1\user_routines_fast.c
                                           * autonomous mode.  It will be executed every program loop, and not              C:\Hannibal Code1.1\user_routines_fast.c
                                           * wait for or use any data from the Operator Interface.                          C:\Hannibal Code1.1\user_routines_fast.c
                                           * CALLED FROM:   main.c file, main() routine when in Autonomous mode             C:\Hannibal Code1.1\user_routines_fast.c
                                           * ARGUMENTS:     none                                                            C:\Hannibal Code1.1\user_routines_fast.c
                                           * RETURNS:       void                                                            C:\Hannibal Code1.1\user_routines_fast.c
                                           *******************************************************************************/ C:\Hannibal Code1.1\user_routines_fast.c
003270   cfd9     MOVFF     0xfd9,0xfe6    void User_Autonomous_Code(void)                                                  C:\Hannibal Code1.1\user_routines_fast.c
003272   ffe6                                                                                                               
003274   cfe1     MOVFF     0xfe1,0xfd9                                                                                     
003276   ffd9                                                                                                               
003278   0e13     MOVLW     0x13                                                                                            
00327a   26e1     ADDWF     0xe1,0x1,0x0                                                                                    
                                           {                                                                                C:\Hannibal Code1.1\user_routines_fast.c
00327c   6adf     CLRF      0xdf,0x0         unsigned char task=0;                                                          C:\Hannibal Code1.1\user_routines_fast.c
                                             unsigned int old_clock[7];                                                     C:\Hannibal Code1.1\user_routines_fast.c
00327e   0e0f     MOVLW     0xf              unsigned int clock=0;                                                          C:\Hannibal Code1.1\user_routines_fast.c
003280   6adb     CLRF      0xdb,0x0                                                                                        
003282   0e10     MOVLW     0x10                                                                                            
003284   6adb     CLRF      0xdb,0x0                                                                                        
003286   0e7f     MOVLW     0x7f             unsigned char old_pwmleft=127;                                                 C:\Hannibal Code1.1\user_routines_fast.c
003288   6ef3     MOVWF     0xf3,0x0                                                                                        
00328a   0e11     MOVLW     0x11                                                                                            
00328c   cff3     MOVFF     0xff3,0xfdb                                                                                     
00328e   ffdb                                                                                                               
003290   0e7f     MOVLW     0x7f             unsigned char old_pwmright=127;                                                C:\Hannibal Code1.1\user_routines_fast.c
003292   6ef3     MOVWF     0xf3,0x0                                                                                        
003294   0e12     MOVLW     0x12                                                                                            
003296   cff3     MOVFF     0xff3,0xfdb                                                                                     
003298   ffdb                                                                                                               
                                                                                                                            C:\Hannibal Code1.1\user_routines_fast.c
00329a   0e07     MOVLW     0x7              for(task;task<7;task++)                                                        C:\Hannibal Code1.1\user_routines_fast.c
00329c   5cdf     SUBWF     0xdf,0x0,0x0                                                                                    
00329e   e211     BC        0x32c2                                                                                          
0032be   2adf     INCF      0xdf,0x1,0x0                                                                                    
0032c0   d7ec     BRA       0x329a                                                                                          
                                             {                                                                              C:\Hannibal Code1.1\user_routines_fast.c
0032a0   50d9     MOVF      0xd9,0x0,0x0     	old_clock[task]=0;                                                            C:\Hannibal Code1.1\user_routines_fast.c
0032a2   0f01     ADDLW     0x1                                                                                             
0032a4   6e2b     MOVWF     0x2b,0x0                                                                                        
0032a6   cfda     MOVFF     0xfda,0x2c                                                                                      
0032a8   f02c                                                                                                               
0032aa   50df     MOVF      0xdf,0x0,0x0                                                                                    
0032ac   0d02     MULLW     0x2                                                                                             
0032ae   502b     MOVF      0x2b,0x0,0x0                                                                                    
0032b0   24f3     ADDWF     0xf3,0x0,0x0                                                                                    
0032b2   6ee9     MOVWF     0xe9,0x0                                                                                        
0032b4   502c     MOVF      0x2c,0x0,0x0                                                                                    
0032b6   20f4     ADDWFC    0xf4,0x0,0x0                                                                                    
0032b8   6eea     MOVWF     0xea,0x0                                                                                        
0032ba   6aee     CLRF      0xee,0x0                                                                                        
0032bc   6aed     CLRF      0xed,0x0                                                                                        
                                             }                                                                              C:\Hannibal Code1.1\user_routines_fast.c
0032c2   6adf     CLRF      0xdf,0x0         task=0;                                                                        C:\Hannibal Code1.1\user_routines_fast.c
                                                                                                                            C:\Hannibal Code1.1\user_routines_fast.c
0032c4   0107     MOVLB     0x7              while(autonomous_mode)                                                         C:\Hannibal Code1.1\user_routines_fast.c
0032c6   ad79     BTFSS     0x79,0x6,0x1                                                                                    
0032c8   d1ee     BRA       0x36a6                                                                                          
0036a4   d60f     BRA       0x32c4                                                                                          
                                             {                                                                              C:\Hannibal Code1.1\user_routines_fast.c
0032ca   0107     MOVLB     0x7                if(statusflag.NEW_SPI_DATA) //26.2ms loop                                    C:\Hannibal Code1.1\user_routines_fast.c
0032cc   a198     BTFSS     0x98,0x0,0x1                                                                                    
0032ce   d1ea     BRA       0x36a4                                                                                          
                                               {                                                                            C:\Hannibal Code1.1\user_routines_fast.c
0032d0   0e78     MOVLW     0x78                   Getdata(&rxdata);   // bad things will happen if you move or delete this C:\Hannibal Code1.1\user_routines_fast.c
0032d2   6ee6     MOVWF     0xe6,0x0                                                                                        
0032d4   0e07     MOVLW     0x7                                                                                             
0032d6   6ee6     MOVWF     0xe6,0x0                                                                                        
0032d8   ec56     CALL      0x38ac,0x0                                                                                      
0032da   f01c                                                                                                               
0032dc   52e5     MOVF      0xe5,0x1,0x0                                                                                    
0032de   52e5     MOVF      0xe5,0x1,0x0                                                                                    
0032e0   0107     MOVLB     0x7            		if(hitBall)                                                                    C:\Hannibal Code1.1\user_routines_fast.c
0032e2   51f2     MOVF      0xf2,0x0,0x1                                                                                    
0032e4   e051     BZ        0x3388                                                                                          
                                           		{                                                                              C:\Hannibal Code1.1\user_routines_fast.c
0032e6   50d9     MOVF      0xd9,0x0,0x0   			if(clock==0)							//See the Light                                            C:\Hannibal Code1.1\user_routines_fast.c
0032e8   0f0f     ADDLW     0xf                                                                                             
0032ea   6ee9     MOVWF     0xe9,0x0                                                                                        
0032ec   cfda     MOVFF     0xfda,0xfea                                                                                     
0032ee   ffea                                                                                                               
0032f0   50ee     MOVF      0xee,0x0,0x0                                                                                    
0032f2   10ed     IORWF     0xed,0x0,0x0                                                                                    
0032f4   e108     BNZ       0x3306                                                                                          
                                           			{                                                                             C:\Hannibal Code1.1\user_routines_fast.c
0032f6   0e02     MOVLW     0x2            				task=2;                                                                      C:\Hannibal Code1.1\user_routines_fast.c
0032f8   6edf     MOVWF     0xdf,0x0                                                                                        
0032fa   0e0f     MOVLW     0xf            				clock++;                                                                     C:\Hannibal Code1.1\user_routines_fast.c
0032fc   2adb     INCF      0xdb,0x1,0x0                                                                                    
0032fe   0e10     MOVLW     0x10                                                                                            
003300   e301     BNC       0x3304                                                                                          
003302   2adb     INCF      0xdb,0x1,0x0                                                                                    
                                           			}                                                                             C:\Hannibal Code1.1\user_routines_fast.c
003304   d040     BRA       0x3386         			else                                                                          C:\Hannibal Code1.1\user_routines_fast.c
                                           			{                                                                             C:\Hannibal Code1.1\user_routines_fast.c
003306   0e0f     MOVLW     0xf            				if(clock<20)                                                                 C:\Hannibal Code1.1\user_routines_fast.c
003308   cfdb     MOVFF     0xfdb,0x2b                                                                                      
00330a   f02b                                                                                                               
00330c   0e10     MOVLW     0x10                                                                                            
00330e   cfdb     MOVFF     0xfdb,0x2c                                                                                      
003310   f02c                                                                                                               
003312   0e14     MOVLW     0x14                                                                                            
003314   5c2b     SUBWF     0x2b,0x0,0x0                                                                                    
003316   0e00     MOVLW     0x0                                                                                             
003318   582c     SUBWFB    0x2c,0x0,0x0                                                                                    
00331a   e208     BC        0x332c                                                                                          
                                           				{                                                                            C:\Hannibal Code1.1\user_routines_fast.c
00331c   0e03     MOVLW     0x3            					task=3;							//Hit the Ball                                                C:\Hannibal Code1.1\user_routines_fast.c
00331e   6edf     MOVWF     0xdf,0x0                                                                                        
003320   0e0f     MOVLW     0xf            					clock++;                                                                    C:\Hannibal Code1.1\user_routines_fast.c
003322   2adb     INCF      0xdb,0x1,0x0                                                                                    
003324   0e10     MOVLW     0x10                                                                                            
003326   e301     BNC       0x332a                                                                                          
003328   2adb     INCF      0xdb,0x1,0x0                                                                                    
                                           				}                                                                            C:\Hannibal Code1.1\user_routines_fast.c
00332a   d02d     BRA       0x3386         				else                                                                         C:\Hannibal Code1.1\user_routines_fast.c
                                           				{                                                                            C:\Hannibal Code1.1\user_routines_fast.c
00332c   0e0f     MOVLW     0xf            					if(clock<100)                                                               C:\Hannibal Code1.1\user_routines_fast.c
00332e   cfdb     MOVFF     0xfdb,0x2b                                                                                      
003330   f02b                                                                                                               
003332   0e10     MOVLW     0x10                                                                                            
003334   cfdb     MOVFF     0xfdb,0x2c                                                                                      
003336   f02c                                                                                                               
003338   0e64     MOVLW     0x64                                                                                            
00333a   5c2b     SUBWF     0x2b,0x0,0x0                                                                                    
00333c   0e00     MOVLW     0x0                                                                                             
00333e   582c     SUBWFB    0x2c,0x0,0x0                                                                                    
003340   e208     BC        0x3352                                                                                          
                                           					{                                                                           C:\Hannibal Code1.1\user_routines_fast.c
003342   0e04     MOVLW     0x4            						task=4;						//Pull Arm Back                                               C:\Hannibal Code1.1\user_routines_fast.c
003344   6edf     MOVWF     0xdf,0x0                                                                                        
003346   0e0f     MOVLW     0xf            						clock++;                                                                   C:\Hannibal Code1.1\user_routines_fast.c
003348   2adb     INCF      0xdb,0x1,0x0                                                                                    
00334a   0e10     MOVLW     0x10                                                                                            
00334c   e301     BNC       0x3350                                                                                          
00334e   2adb     INCF      0xdb,0x1,0x0                                                                                    
                                           					}                                                                           C:\Hannibal Code1.1\user_routines_fast.c
003350   d01a     BRA       0x3386         					else                                                                        C:\Hannibal Code1.1\user_routines_fast.c
                                           					{                                                                           C:\Hannibal Code1.1\user_routines_fast.c
003352   0e0f     MOVLW     0xf            						if(clock<330)                                                              C:\Hannibal Code1.1\user_routines_fast.c
003354   cfdb     MOVFF     0xfdb,0x2b                                                                                      
003356   f02b                                                                                                               
003358   0e10     MOVLW     0x10                                                                                            
00335a   cfdb     MOVFF     0xfdb,0x2c                                                                                      
00335c   f02c                                                                                                               
00335e   0e4a     MOVLW     0x4a                                                                                            
003360   5c2b     SUBWF     0x2b,0x0,0x0                                                                                    
003362   0e01     MOVLW     0x1                                                                                             
003364   582c     SUBWFB    0x2c,0x0,0x0                                                                                    
003366   e208     BC        0x3378                                                                                          
                                           						{                                                                          C:\Hannibal Code1.1\user_routines_fast.c
003368   0e05     MOVLW     0x5            							task=5;					//Go Forward Again                                            C:\Hannibal Code1.1\user_routines_fast.c
00336a   6edf     MOVWF     0xdf,0x0                                                                                        
00336c   0e0f     MOVLW     0xf            							clock++;                                                                  C:\Hannibal Code1.1\user_routines_fast.c
00336e   2adb     INCF      0xdb,0x1,0x0                                                                                    
003370   0e10     MOVLW     0x10                                                                                            
003372   e301     BNC       0x3376                                                                                          
003374   2adb     INCF      0xdb,0x1,0x0                                                                                    
                                           						}                                                                          C:\Hannibal Code1.1\user_routines_fast.c
003376   d007     BRA       0x3386         						else                                                                       C:\Hannibal Code1.1\user_routines_fast.c
                                           						{                                                                          C:\Hannibal Code1.1\user_routines_fast.c
003378   0e06     MOVLW     0x6            							task=6;					//STOP                                                        C:\Hannibal Code1.1\user_routines_fast.c
00337a   6edf     MOVWF     0xdf,0x0                                                                                        
00337c   0e0f     MOVLW     0xf            							clock++;                                                                  C:\Hannibal Code1.1\user_routines_fast.c
00337e   2adb     INCF      0xdb,0x1,0x0                                                                                    
003380   0e10     MOVLW     0x10                                                                                            
003382   e301     BNC       0x3386                                                                                          
003384   2adb     INCF      0xdb,0x1,0x0                                                                                    
                                           						}                                                                          C:\Hannibal Code1.1\user_routines_fast.c
                                           					}                                                                           C:\Hannibal Code1.1\user_routines_fast.c
                                           				}                                                                            C:\Hannibal Code1.1\user_routines_fast.c
                                           			}                                                                             C:\Hannibal Code1.1\user_routines_fast.c
                                           		}                                                                              C:\Hannibal Code1.1\user_routines_fast.c
003386   d012     BRA       0x33ac         		else                                                                           C:\Hannibal Code1.1\user_routines_fast.c
                                           		{                                                                              C:\Hannibal Code1.1\user_routines_fast.c
003388   0e87     MOVLW     0x87           			if(Get_Analog_Value(rc_ana_in01)<200)                                         C:\Hannibal Code1.1\user_routines_fast.c
00338a   6ee6     MOVWF     0xe6,0x0                                                                                        
00338c   ecac     CALL      0x3d58,0x0                                                                                      
00338e   f01e                                                                                                               
003390   52e5     MOVF      0xe5,0x1,0x0                                                                                    
003392   cff3     MOVFF     0xff3,0x2b                                                                                      
003394   f02b                                                                                                               
003396   cff4     MOVFF     0xff4,0x2c                                                                                      
003398   f02c                                                                                                               
00339a   0ec8     MOVLW     0xc8                                                                                            
00339c   5c2b     SUBWF     0x2b,0x0,0x0                                                                                    
00339e   0e00     MOVLW     0x0                                                                                             
0033a0   582c     SUBWFB    0x2c,0x0,0x0                                                                                    
0033a2   e202     BC        0x33a8                                                                                          
                                           			{                                                                             C:\Hannibal Code1.1\user_routines_fast.c
0033a4   6adf     CLRF      0xdf,0x0       				task=0;								//Hit the Wall                                                C:\Hannibal Code1.1\user_routines_fast.c
                                           			}                                                                             C:\Hannibal Code1.1\user_routines_fast.c
0033a6   d002     BRA       0x33ac         			else                                                                          C:\Hannibal Code1.1\user_routines_fast.c
                                           			{                                                                             C:\Hannibal Code1.1\user_routines_fast.c
0033a8   0e01     MOVLW     0x1            				task=1;								//Run Along the Wall                                          C:\Hannibal Code1.1\user_routines_fast.c
0033aa   6edf     MOVWF     0xdf,0x0                                                                                        
                                           			}                                                                             C:\Hannibal Code1.1\user_routines_fast.c
                                           		}                                                                              C:\Hannibal Code1.1\user_routines_fast.c
                                           		                                                                               C:\Hannibal Code1.1\user_routines_fast.c
0033ac   0e0f     MOVLW     0xf            		if((clock&0xf)==0) printf("Task = %d\n",(int)task);                            C:\Hannibal Code1.1\user_routines_fast.c
0033ae   50db     MOVF      0xdb,0x0,0x0                                                                                    
0033b0   0b0f     ANDLW     0xf                                                                                             
0033b2   e10d     BNZ       0x33ce                                                                                          
0033b4   cfdf     MOVFF     0xfdf,0xfe6                                                                                     
0033b6   ffe6                                                                                                               
0033b8   6ae6     CLRF      0xe6,0x0                                                                                        
0033ba   0e31     MOVLW     0x31                                                                                            
0033bc   6ee6     MOVWF     0xe6,0x0                                                                                        
0033be   0e40     MOVLW     0x40                                                                                            
0033c0   6ee6     MOVWF     0xe6,0x0                                                                                        
0033c2   ec35     CALL      0x146a,0x0                                                                                      
0033c4   f00a                                                                                                               
0033c6   52e5     MOVF      0xe5,0x1,0x0                                                                                    
0033c8   52e5     MOVF      0xe5,0x1,0x0                                                                                    
0033ca   52e5     MOVF      0xe5,0x1,0x0                                                                                    
0033cc   52e5     MOVF      0xe5,0x1,0x0                                                                                    
0033ce   0e0f     MOVLW     0xf            		if((clock&0xf)==0) printf("Clock = %d\n",(int)clock);                          C:\Hannibal Code1.1\user_routines_fast.c
0033d0   50db     MOVF      0xdb,0x0,0x0                                                                                    
0033d2   0b0f     ANDLW     0xf                                                                                             
0033d4   e110     BNZ       0x33f6                                                                                          
0033d6   0e0f     MOVLW     0xf                                                                                             
0033d8   cfdb     MOVFF     0xfdb,0xfe6                                                                                     
0033da   ffe6                                                                                                               
0033dc   0e10     MOVLW     0x10                                                                                            
0033de   cfdb     MOVFF     0xfdb,0xfe6                                                                                     
0033e0   ffe6                                                                                                               
0033e2   0e25     MOVLW     0x25                                                                                            
0033e4   6ee6     MOVWF     0xe6,0x0                                                                                        
0033e6   0e40     MOVLW     0x40                                                                                            
0033e8   6ee6     MOVWF     0xe6,0x0                                                                                        
0033ea   ec35     CALL      0x146a,0x0                                                                                      
0033ec   f00a                                                                                                               
0033ee   52e5     MOVF      0xe5,0x1,0x0                                                                                    
0033f0   52e5     MOVF      0xe5,0x1,0x0                                                                                    
0033f2   52e5     MOVF      0xe5,0x1,0x0                                                                                    
0033f4   52e5     MOVF      0xe5,0x1,0x0                                                                                    
                                                                                                                            C:\Hannibal Code1.1\user_routines_fast.c
0033f6   50df     MOVF      0xdf,0x0,0x0   		switch(task)                                                                   C:\Hannibal Code1.1\user_routines_fast.c
0033f8   0a06     XORLW     0x6                                                                                             
0033fa   e068     BZ        0x34cc                                                                                          
0033fc   0a03     XORLW     0x3                                                                                             
0033fe   e05b     BZ        0x34b6                                                                                          
003400   0a01     XORLW     0x1                                                                                             
003402   e04e     BZ        0x34a0                                                                                          
003404   0a07     XORLW     0x7                                                                                             
003406   e041     BZ        0x348a                                                                                          
003408   0a01     XORLW     0x1                                                                                             
00340a   e032     BZ        0x3470                                                                                          
00340c   0a03     XORLW     0x3                                                                                             
00340e   e027     BZ        0x345e                                                                                          
003410   0a01     XORLW     0x1                                                                                             
003412   e001     BZ        0x3416                                                                                          
003414   d064     BRA       0x34de                                                                                          
                                           		{                                                                              C:\Hannibal Code1.1\user_routines_fast.c
                                           			case 0:	                                                                      C:\Hannibal Code1.1\user_routines_fast.c
                                           																//Initial Movement                                               C:\Hannibal Code1.1\user_routines_fast.c
003416   0e0f     MOVLW     0xf            					if((clock&0xf)==0)printf("Dist = %d\n",(int)Get_Analog_Value(rc_ana_in01)); C:\Hannibal Code1.1\user_routines_fast.c
003418   50db     MOVF      0xdb,0x0,0x0                                                                                    
00341a   0b0f     ANDLW     0xf                                                                                             
00341c   e117     BNZ       0x344c                                                                                          
00341e   0e87     MOVLW     0x87                                                                                            
003420   6ee6     MOVWF     0xe6,0x0                                                                                        
003422   ecac     CALL      0x3d58,0x0                                                                                      
003424   f01e                                                                                                               
003426   52e5     MOVF      0xe5,0x1,0x0                                                                                    
003428   cff3     MOVFF     0xff3,0x2b                                                                                      
00342a   f02b                                                                                                               
00342c   cff4     MOVFF     0xff4,0x2c                                                                                      
00342e   f02c                                                                                                               
003430   c02b     MOVFF     0x2b,0xfe6                                                                                      
003432   ffe6                                                                                                               
003434   c02c     MOVFF     0x2c,0xfe6                                                                                      
003436   ffe6                                                                                                               
003438   0e1a     MOVLW     0x1a                                                                                            
00343a   6ee6     MOVWF     0xe6,0x0                                                                                        
00343c   0e40     MOVLW     0x40                                                                                            
00343e   6ee6     MOVWF     0xe6,0x0                                                                                        
003440   ec35     CALL      0x146a,0x0                                                                                      
003442   f00a                                                                                                               
003444   52e5     MOVF      0xe5,0x1,0x0                                                                                    
003446   52e5     MOVF      0xe5,0x1,0x0                                                                                    
003448   52e5     MOVF      0xe5,0x1,0x0                                                                                    
00344a   52e5     MOVF      0xe5,0x1,0x0                                                                                    
00344c   0107     MOVLB     0x7            					pwm15=pwm16=170;                                                            C:\Hannibal Code1.1\user_routines_fast.c
00344e   0eaa     MOVLW     0xaa                                                                                            
003450   6f6b     MOVWF     0x6b,0x1                                                                                        
003452   c76b     MOVFF     0x76b,0x76a                                                                                     
003454   f76a                                                                                                               
003456   6969     SETF      0x69,0x1       					pwm13=pwm14=255;                                                            C:\Hannibal Code1.1\user_routines_fast.c
003458   c769     MOVFF     0x769,0x768                                                                                     
00345a   f768                                                                                                               
                                           					//pwm15=pwm16=180;	//left motors                                            C:\Hannibal Code1.1\user_routines_fast.c
                                           					//pwm13=pwm14=240;	//right motors                                           C:\Hannibal Code1.1\user_routines_fast.c
00345c   d040     BRA       0x34de         					break;                                                                      C:\Hannibal Code1.1\user_routines_fast.c
                                           			case 1:												//Moving Forward To Get to Ball                            C:\Hannibal Code1.1\user_routines_fast.c
00345e   0107     MOVLB     0x7            					pwm15=pwm16=200;                                                            C:\Hannibal Code1.1\user_routines_fast.c
003460   0ec8     MOVLW     0xc8                                                                                            
003462   6f6b     MOVWF     0x6b,0x1                                                                                        
003464   c76b     MOVFF     0x76b,0x76a                                                                                     
003466   f76a                                                                                                               
003468   6f69     MOVWF     0x69,0x1       					pwm13=pwm14=200;                                                            C:\Hannibal Code1.1\user_routines_fast.c
00346a   c769     MOVFF     0x769,0x768                                                                                     
00346c   f768                                                                                                               
00346e   d037     BRA       0x34de         					break;                                                                      C:\Hannibal Code1.1\user_routines_fast.c
                                           			                                                                              C:\Hannibal Code1.1\user_routines_fast.c
                                           			case 2:												//See the Light                                            C:\Hannibal Code1.1\user_routines_fast.c
003470   ecad     CALL      0x3f5a,0x0     					Disable_Receiver();                                                         C:\Hannibal Code1.1\user_routines_fast.c
003472   f01f                                                                                                               
003474   0107     MOVLB     0x7            					pwm15=pwm16=127;			//left motors                                            C:\Hannibal Code1.1\user_routines_fast.c
003476   0e7f     MOVLW     0x7f                                                                                            
003478   6f6b     MOVWF     0x6b,0x1                                                                                        
00347a   c76b     MOVFF     0x76b,0x76a                                                                                     
00347c   f76a                                                                                                               
00347e   6f69     MOVWF     0x69,0x1       					pwm13=pwm14=127;			//right motors                                           C:\Hannibal Code1.1\user_routines_fast.c
003480   c769     MOVFF     0x769,0x768                                                                                     
003482   f768                                                                                                               
003484   888c     BSF       0x8c,0x4,0x0   					relay5_fwd=1;                                                               C:\Hannibal Code1.1\user_routines_fast.c
003486   988d     BCF       0x8d,0x4,0x0   					relay5_rev=0;                                                               C:\Hannibal Code1.1\user_routines_fast.c
003488   d02a     BRA       0x34de         					break;                                                                      C:\Hannibal Code1.1\user_routines_fast.c
                                           			case 3:												//Hit the Ball                                             C:\Hannibal Code1.1\user_routines_fast.c
00348a   0107     MOVLB     0x7            					pwm15=pwm16=127;		//left motors                                             C:\Hannibal Code1.1\user_routines_fast.c
00348c   0e7f     MOVLW     0x7f                                                                                            
00348e   6f6b     MOVWF     0x6b,0x1                                                                                        
003490   c76b     MOVFF     0x76b,0x76a                                                                                     
003492   f76a                                                                                                               
003494   6f69     MOVWF     0x69,0x1       					pwm13=pwm14=127;		//right motors                                            C:\Hannibal Code1.1\user_routines_fast.c
003496   c769     MOVFF     0x769,0x768                                                                                     
003498   f768                                                                                                               
00349a   888c     BSF       0x8c,0x4,0x0   					relay5_fwd=1;                                                               C:\Hannibal Code1.1\user_routines_fast.c
00349c   988d     BCF       0x8d,0x4,0x0   					relay5_rev=0;                                                               C:\Hannibal Code1.1\user_routines_fast.c
00349e   d01f     BRA       0x34de         					break;                                                                      C:\Hannibal Code1.1\user_routines_fast.c
                                           			case 4:												//Pull Arm Back                                            C:\Hannibal Code1.1\user_routines_fast.c
0034a0   0107     MOVLB     0x7            					pwm15=pwm16=127;		//left motors                                             C:\Hannibal Code1.1\user_routines_fast.c
0034a2   0e7f     MOVLW     0x7f                                                                                            
0034a4   6f6b     MOVWF     0x6b,0x1                                                                                        
0034a6   c76b     MOVFF     0x76b,0x76a                                                                                     
0034a8   f76a                                                                                                               
0034aa   6f69     MOVWF     0x69,0x1       					pwm13=pwm14=127;		//right motors                                            C:\Hannibal Code1.1\user_routines_fast.c
0034ac   c769     MOVFF     0x769,0x768                                                                                     
0034ae   f768                                                                                                               
0034b0   988c     BCF       0x8c,0x4,0x0   					relay5_fwd=0;                                                               C:\Hannibal Code1.1\user_routines_fast.c
0034b2   988d     BCF       0x8d,0x4,0x0   					relay5_rev=0;                                                               C:\Hannibal Code1.1\user_routines_fast.c
0034b4   d014     BRA       0x34de         					break;                                                                      C:\Hannibal Code1.1\user_routines_fast.c
                                           			case 5:												//Ram Forward Again                                        C:\Hannibal Code1.1\user_routines_fast.c
0034b6   988c     BCF       0x8c,0x4,0x0   					relay5_fwd=0;                                                               C:\Hannibal Code1.1\user_routines_fast.c
0034b8   988d     BCF       0x8d,0x4,0x0   					relay5_rev=0;                                                               C:\Hannibal Code1.1\user_routines_fast.c
0034ba   0107     MOVLB     0x7            					pwm15=pwm16=200;                                                            C:\Hannibal Code1.1\user_routines_fast.c
0034bc   0ec8     MOVLW     0xc8                                                                                            
0034be   6f6b     MOVWF     0x6b,0x1                                                                                        
0034c0   c76b     MOVFF     0x76b,0x76a                                                                                     
0034c2   f76a                                                                                                               
0034c4   6f69     MOVWF     0x69,0x1       					pwm13=pwm14=200;                                                            C:\Hannibal Code1.1\user_routines_fast.c
0034c6   c769     MOVFF     0x769,0x768                                                                                     
0034c8   f768                                                                                                               
0034ca   d009     BRA       0x34de         					break;                                                                      C:\Hannibal Code1.1\user_routines_fast.c
                                           			case 6:                                                                       C:\Hannibal Code1.1\user_routines_fast.c
0034cc   0107     MOVLB     0x7            					pwm15=pwm16=127;		//left motors                                             C:\Hannibal Code1.1\user_routines_fast.c
0034ce   0e7f     MOVLW     0x7f                                                                                            
0034d0   6f6b     MOVWF     0x6b,0x1                                                                                        
0034d2   c76b     MOVFF     0x76b,0x76a                                                                                     
0034d4   f76a                                                                                                               
0034d6   6f69     MOVWF     0x69,0x1       					pwm13=pwm14=127;		//right motors                                            C:\Hannibal Code1.1\user_routines_fast.c
0034d8   c769     MOVFF     0x769,0x768                                                                                     
0034da   f768                                                                                                               
0034dc   d000     BRA       0x34de         					break;                                                                      C:\Hannibal Code1.1\user_routines_fast.c
                                           		}                                                                              C:\Hannibal Code1.1\user_routines_fast.c
                                                                                                                            C:\Hannibal Code1.1\user_routines_fast.c
0034de   0107     MOVLB     0x7            		pwm15=pwm16=(unsigned char)((unsigned int)old_pwmleft+((unsigned int)25*(2000+(unsigned int)pwm15-(unsigned int)old_pwmleft)/(unsigned int)100) - ((unsigned int)20*(unsigned int)25)); C:\Hannibal Code1.1\user_routines_fast.c
0034e0   516a     MOVF      0x6a,0x0,0x1                                                                                    
0034e2   6a32     CLRF      0x32,0x0                                                                                        
0034e4   0fd0     ADDLW     0xd0                                                                                            
0034e6   6e31     MOVWF     0x31,0x0                                                                                        
0034e8   0e07     MOVLW     0x7                                                                                             
0034ea   2232     ADDWFC    0x32,0x1,0x0                                                                                    
0034ec   0e11     MOVLW     0x11                                                                                            
0034ee   50db     MOVF      0xdb,0x0,0x0                                                                                    
0034f0   6e33     MOVWF     0x33,0x0                                                                                        
0034f2   6a34     CLRF      0x34,0x0                                                                                        
0034f4   5033     MOVF      0x33,0x0,0x0                                                                                    
0034f6   5c31     SUBWF     0x31,0x0,0x0                                                                                    
0034f8   6e2f     MOVWF     0x2f,0x0                                                                                        
0034fa   5034     MOVF      0x34,0x0,0x0                                                                                    
0034fc   5832     SUBWFB    0x32,0x0,0x0                                                                                    
0034fe   6e30     MOVWF     0x30,0x0                                                                                        
003500   0e19     MOVLW     0x19                                                                                            
003502   6e1d     MOVWF     0x1d,0x0                                                                                        
003504   6a1e     CLRF      0x1e,0x0                                                                                        
003506   c02f     MOVFF     0x2f,0x22                                                                                       
003508   f022                                                                                                               
00350a   c030     MOVFF     0x30,0x23                                                                                       
00350c   f023                                                                                                               
00350e   ece3     CALL      0x2fc6,0x0                                                                                      
003510   f017                                                                                                               
003512   c01b     MOVFF     0x1b,0x2d                                                                                       
003514   f02d                                                                                                               
003516   c01c     MOVFF     0x1c,0x2e                                                                                       
003518   f02e                                                                                                               
00351a   0e64     MOVLW     0x64                                                                                            
00351c   6e22     MOVWF     0x22,0x0                                                                                        
00351e   6a23     CLRF      0x23,0x0                                                                                        
003520   c02d     MOVFF     0x2d,0x1d                                                                                       
003522   f01d                                                                                                               
003524   c02e     MOVFF     0x2e,0x1e                                                                                       
003526   f01e                                                                                                               
003528   ece4     CALL      0x43c8,0x0                                                                                      
00352a   f021                                                                                                               
00352c   c01d     MOVFF     0x1d,0x2d                                                                                       
00352e   f02d                                                                                                               
003530   c01e     MOVFF     0x1e,0x2e                                                                                       
003532   f02e                                                                                                               
003534   0e11     MOVLW     0x11                                                                                            
003536   50db     MOVF      0xdb,0x0,0x0                                                                                    
003538   0100     MOVLB     0x0                                                                                             
00353a   6b2c     CLRF      0x2c,0x1                                                                                        
00353c   242d     ADDWF     0x2d,0x0,0x0                                                                                    
00353e   6f2b     MOVWF     0x2b,0x1                                                                                        
003540   502e     MOVF      0x2e,0x0,0x0                                                                                    
003542   232c     ADDWFC    0x2c,0x1,0x1                                                                                    
003544   0ef4     MOVLW     0xf4                                                                                            
003546   5e2b     SUBWF     0x2b,0x1,0x0                                                                                    
003548   0e01     MOVLW     0x1                                                                                             
00354a   5a2c     SUBWFB    0x2c,0x1,0x0                                                                                    
00354c   c02b     MOVFF     0x2b,0x76b                                                                                      
00354e   f76b                                                                                                               
003550   c02b     MOVFF     0x2b,0x76a                                                                                      
003552   f76a                                                                                                               
003554   0107     MOVLB     0x7            		pwm13=pwm14=(unsigned char)((unsigned int)old_pwmright+((unsigned int)25*(2000+(unsigned int)pwm13-(unsigned int)old_pwmright)/(unsigned int)100) - ((unsigned int)20*(unsigned int)25)); C:\Hannibal Code1.1\user_routines_fast.c
003556   5168     MOVF      0x68,0x0,0x1                                                                                    
003558   6a32     CLRF      0x32,0x0                                                                                        
00355a   0fd0     ADDLW     0xd0                                                                                            
00355c   6e31     MOVWF     0x31,0x0                                                                                        
00355e   0e07     MOVLW     0x7                                                                                             
003560   2232     ADDWFC    0x32,0x1,0x0                                                                                    
003562   0e12     MOVLW     0x12                                                                                            
003564   50db     MOVF      0xdb,0x0,0x0                                                                                    
003566   6e33     MOVWF     0x33,0x0                                                                                        
003568   6a34     CLRF      0x34,0x0                                                                                        
00356a   5033     MOVF      0x33,0x0,0x0                                                                                    
00356c   5c31     SUBWF     0x31,0x0,0x0                                                                                    
00356e   6e2f     MOVWF     0x2f,0x0                                                                                        
003570   5034     MOVF      0x34,0x0,0x0                                                                                    
003572   5832     SUBWFB    0x32,0x0,0x0                                                                                    
003574   6e30     MOVWF     0x30,0x0                                                                                        
003576   0e19     MOVLW     0x19                                                                                            
003578   6e1d     MOVWF     0x1d,0x0                                                                                        
00357a   6a1e     CLRF      0x1e,0x0                                                                                        
00357c   c02f     MOVFF     0x2f,0x22                                                                                       
00357e   f022                                                                                                               
003580   c030     MOVFF     0x30,0x23                                                                                       
003582   f023                                                                                                               
003584   ece3     CALL      0x2fc6,0x0                                                                                      
003586   f017                                                                                                               
003588   c01b     MOVFF     0x1b,0x2d                                                                                       
00358a   f02d                                                                                                               
00358c   c01c     MOVFF     0x1c,0x2e                                                                                       
00358e   f02e                                                                                                               
003590   0e64     MOVLW     0x64                                                                                            
003592   6e22     MOVWF     0x22,0x0                                                                                        
003594   6a23     CLRF      0x23,0x0                                                                                        
003596   c02d     MOVFF     0x2d,0x1d                                                                                       
003598   f01d                                                                                                               
00359a   c02e     MOVFF     0x2e,0x1e                                                                                       
00359c   f01e                                                                                                               
00359e   ece4     CALL      0x43c8,0x0                                                                                      
0035a0   f021                                                                                                               
0035a2   c01d     MOVFF     0x1d,0x2d                                                                                       
0035a4   f02d                                                                                                               
0035a6   c01e     MOVFF     0x1e,0x2e                                                                                       
0035a8   f02e                                                                                                               
0035aa   0e12     MOVLW     0x12                                                                                            
0035ac   50db     MOVF      0xdb,0x0,0x0                                                                                    
0035ae   0100     MOVLB     0x0                                                                                             
0035b0   6b2c     CLRF      0x2c,0x1                                                                                        
0035b2   242d     ADDWF     0x2d,0x0,0x0                                                                                    
0035b4   6f2b     MOVWF     0x2b,0x1                                                                                        
0035b6   502e     MOVF      0x2e,0x0,0x0                                                                                    
0035b8   232c     ADDWFC    0x2c,0x1,0x1                                                                                    
0035ba   0ef4     MOVLW     0xf4                                                                                            
0035bc   5e2b     SUBWF     0x2b,0x1,0x0                                                                                    
0035be   0e01     MOVLW     0x1                                                                                             
0035c0   5a2c     SUBWFB    0x2c,0x1,0x0                                                                                    
0035c2   c02b     MOVFF     0x2b,0x769                                                                                      
0035c4   f769                                                                                                               
0035c6   c02b     MOVFF     0x2b,0x768                                                                                      
0035c8   f768                                                                                                               
                                                                                                                            C:\Hannibal Code1.1\user_routines_fast.c
0035ca   0e11     MOVLW     0x11           		old_pwmleft=pwm15;                                                             C:\Hannibal Code1.1\user_routines_fast.c
0035cc   c76a     MOVFF     0x76a,0xfdb                                                                                     
0035ce   ffdb                                                                                                               
0035d0   0e12     MOVLW     0x12           		old_pwmright=pwm13;		                                                          C:\Hannibal Code1.1\user_routines_fast.c
0035d2   c768     MOVFF     0x768,0xfdb                                                                                     
0035d4   ffdb                                                                                                               
                                           		                                                                               C:\Hannibal Code1.1\user_routines_fast.c
0035d6   50df     MOVF      0xdf,0x0,0x0   		if(task!=0 && old_clock[task]==0) old_clock[task]=clock;                       C:\Hannibal Code1.1\user_routines_fast.c
0035d8   e023     BZ        0x3620                                                                                          
0035da   50d9     MOVF      0xd9,0x0,0x0                                                                                    
0035dc   0f01     ADDLW     0x1                                                                                             
0035de   6e2b     MOVWF     0x2b,0x0                                                                                        
0035e0   cfda     MOVFF     0xfda,0x2c                                                                                      
0035e2   f02c                                                                                                               
0035e4   50df     MOVF      0xdf,0x0,0x0                                                                                    
0035e6   0d02     MULLW     0x2                                                                                             
0035e8   502b     MOVF      0x2b,0x0,0x0                                                                                    
0035ea   24f3     ADDWF     0xf3,0x0,0x0                                                                                    
0035ec   6ee9     MOVWF     0xe9,0x0                                                                                        
0035ee   502c     MOVF      0x2c,0x0,0x0                                                                                    
0035f0   20f4     ADDWFC    0xf4,0x0,0x0                                                                                    
0035f2   6eea     MOVWF     0xea,0x0                                                                                        
0035f4   50ee     MOVF      0xee,0x0,0x0                                                                                    
0035f6   10ed     IORWF     0xed,0x0,0x0                                                                                    
0035f8   e113     BNZ       0x3620                                                                                          
0035fa   50d9     MOVF      0xd9,0x0,0x0                                                                                    
0035fc   0f01     ADDLW     0x1                                                                                             
0035fe   6e2b     MOVWF     0x2b,0x0                                                                                        
003600   cfda     MOVFF     0xfda,0x2c                                                                                      
003602   f02c                                                                                                               
003604   50df     MOVF      0xdf,0x0,0x0                                                                                    
003606   0d02     MULLW     0x2                                                                                             
003608   502b     MOVF      0x2b,0x0,0x0                                                                                    
00360a   24f3     ADDWF     0xf3,0x0,0x0                                                                                    
00360c   6ee9     MOVWF     0xe9,0x0                                                                                        
00360e   502c     MOVF      0x2c,0x0,0x0                                                                                    
003610   20f4     ADDWFC    0xf4,0x0,0x0                                                                                    
003612   6eea     MOVWF     0xea,0x0                                                                                        
003614   0e0f     MOVLW     0xf                                                                                             
003616   cfdb     MOVFF     0xfdb,0xfee                                                                                     
003618   ffee                                                                                                               
00361a   0e10     MOVLW     0x10                                                                                            
00361c   cfdb     MOVFF     0xfdb,0xfed                                                                                     
00361e   ffed                                                                                                               
                                                                                                                            C:\Hannibal Code1.1\user_routines_fast.c
003620   b481     BTFSC     0x81,0x2,0x0   		if(!rc_dig_in01)                                                               C:\Hannibal Code1.1\user_routines_fast.c
003622   d003     BRA       0x362a                                                                                          
                                           		{                                                                              C:\Hannibal Code1.1\user_routines_fast.c
003624   8a8c     BSF       0x8c,0x5,0x0   			relay6_fwd=1;                                                                 C:\Hannibal Code1.1\user_routines_fast.c
003626   9a8d     BCF       0x8d,0x5,0x0   			relay6_rev=0;	                                                                C:\Hannibal Code1.1\user_routines_fast.c
                                           		}                                                                              C:\Hannibal Code1.1\user_routines_fast.c
003628   d002     BRA       0x362e         		else                                                                           C:\Hannibal Code1.1\user_routines_fast.c
                                           		{                                                                              C:\Hannibal Code1.1\user_routines_fast.c
00362a   9a8c     BCF       0x8c,0x5,0x0   			relay6_fwd=0;                                                                 C:\Hannibal Code1.1\user_routines_fast.c
00362c   9a8d     BCF       0x8d,0x5,0x0   			relay6_rev=0;                                                                 C:\Hannibal Code1.1\user_routines_fast.c
                                           		}                                                                              C:\Hannibal Code1.1\user_routines_fast.c
                                                                                                                            C:\Hannibal Code1.1\user_routines_fast.c
00362e   0e7f     MOVLW     0x7f           		pwm13=pwm14=50*(pwm13-127)/100+pwm13;	//slow it down for testing               C:\Hannibal Code1.1\user_routines_fast.c
003630   0107     MOVLB     0x7                                                                                             
003632   5d68     SUBWF     0x68,0x0,0x1                                                                                    
003634   0d32     MULLW     0x32                                                                                            
003636   cff3     MOVFF     0xff3,0x2b                                                                                      
003638   f02b                                                                                                               
00363a   0e64     MOVLW     0x64                                                                                            
00363c   6e2c     MOVWF     0x2c,0x0                                                                                        
00363e   c02c     MOVFF     0x2c,0x23                                                                                       
003640   f023                                                                                                               
003642   c02b     MOVFF     0x2b,0x1e                                                                                       
003644   f01e                                                                                                               
003646   ec2e     CALL      0x445c,0x0                                                                                      
003648   f022                                                                                                               
00364a   501e     MOVF      0x1e,0x0,0x0                                                                                    
00364c   0107     MOVLB     0x7                                                                                             
00364e   2568     ADDWF     0x68,0x0,0x1                                                                                    
003650   6f69     MOVWF     0x69,0x1                                                                                        
003652   6f68     MOVWF     0x68,0x1                                                                                        
003654   0e7f     MOVLW     0x7f           		pwm15=pwm16=50*(pwm15-127)/100+pwm15;	                                         C:\Hannibal Code1.1\user_routines_fast.c
003656   5d6a     SUBWF     0x6a,0x0,0x1                                                                                    
003658   0d32     MULLW     0x32                                                                                            
00365a   cff3     MOVFF     0xff3,0x2b                                                                                      
00365c   f02b                                                                                                               
00365e   0e64     MOVLW     0x64                                                                                            
003660   6e2c     MOVWF     0x2c,0x0                                                                                        
003662   c02c     MOVFF     0x2c,0x23                                                                                       
003664   f023                                                                                                               
003666   c02b     MOVFF     0x2b,0x1e                                                                                       
003668   f01e                                                                                                               
00366a   ec2e     CALL      0x445c,0x0                                                                                      
00366c   f022                                                                                                               
00366e   501e     MOVF      0x1e,0x0,0x0                                                                                    
003670   0107     MOVLB     0x7                                                                                             
003672   256a     ADDWF     0x6a,0x0,0x1                                                                                    
003674   6f6b     MOVWF     0x6b,0x1                                                                                        
003676   6f6a     MOVWF     0x6a,0x1                                                                                        
                                                                                                                            C:\Hannibal Code1.1\user_routines_fast.c
003678   c76b     MOVFF     0x76b,0xfe6    		Generate_Pwms(pwm13,pwm14,pwm15,pwm16);                                        C:\Hannibal Code1.1\user_routines_fast.c
00367a   ffe6                                                                                                               
00367c   c76a     MOVFF     0x76a,0xfe6                                                                                     
00367e   ffe6                                                                                                               
003680   c769     MOVFF     0x769,0xfe6                                                                                     
003682   ffe6                                                                                                               
003684   c768     MOVFF     0x768,0xfe6                                                                                     
003686   ffe6                                                                                                               
003688   ec15     CALL      0x3e2a,0x0                                                                                      
00368a   f01f                                                                                                               
00368c   52e5     MOVF      0xe5,0x1,0x0                                                                                    
00368e   52e5     MOVF      0xe5,0x1,0x0                                                                                    
003690   52e5     MOVF      0xe5,0x1,0x0                                                                                    
003692   52e5     MOVF      0xe5,0x1,0x0                                                                                    
                                                                                                                            C:\Hannibal Code1.1\user_routines_fast.c
003694   0e58     MOVLW     0x58                   Putdata(&txdata);   //even more bad things will happen if you mess with this C:\Hannibal Code1.1\user_routines_fast.c
003696   6ee6     MOVWF     0xe6,0x0                                                                                        
003698   0e07     MOVLW     0x7                                                                                             
00369a   6ee6     MOVWF     0xe6,0x0                                                                                        
00369c   ec90     CALL      0x3920,0x0                                                                                      
00369e   f01c                                                                                                               
0036a0   52e5     MOVF      0xe5,0x1,0x0                                                                                    
0036a2   52e5     MOVF      0xe5,0x1,0x0                                                                                    
                                               }                                                                            C:\Hannibal Code1.1\user_routines_fast.c
                                             }                                                                              C:\Hannibal Code1.1\user_routines_fast.c
0036a6   cfd9     MOVFF     0xfd9,0xfe1    }                                                                                C:\Hannibal Code1.1\user_routines_fast.c
0036a8   ffe1                                                                                                               
0036aa   52e5     MOVF      0xe5,0x1,0x0                                                                                    
0036ac   cfe7     MOVFF     0xfe7,0xfd9                                                                                     
0036ae   ffd9                                                                                                               
0036b0   0012     RETURN    0x0                                                                                             
                                           /******************************************************************************* C:\Hannibal Code1.1\user_routines_fast.c
                                           * FUNCTION NAME: Process_Data_From_Local_IO                                      C:\Hannibal Code1.1\user_routines_fast.c
                                           * PURPOSE:       Execute user's realtime code.                                   C:\Hannibal Code1.1\user_routines_fast.c
                                           * You should modify this routine by adding code which you wish to run fast.      C:\Hannibal Code1.1\user_routines_fast.c
                                           * It will be executed every program loop, and not wait for fresh data            C:\Hannibal Code1.1\user_routines_fast.c
                                           * from the Operator Interface.                                                   C:\Hannibal Code1.1\user_routines_fast.c
                                           * CALLED FROM:   main.c                                                          C:\Hannibal Code1.1\user_routines_fast.c
                                           * ARGUMENTS:     none                                                            C:\Hannibal Code1.1\user_routines_fast.c
                                           * RETURNS:       void                                                            C:\Hannibal Code1.1\user_routines_fast.c
                                           *******************************************************************************/ C:\Hannibal Code1.1\user_routines_fast.c
                                           void Process_Data_From_Local_IO(void)                                            C:\Hannibal Code1.1\user_routines_fast.c
                                           {                                                                                C:\Hannibal Code1.1\user_routines_fast.c
                                             /* Add code here that you want to be executed every program loop. */           C:\Hannibal Code1.1\user_routines_fast.c
                                                                                                                            C:\Hannibal Code1.1\user_routines_fast.c
0036b2   0012     RETURN    0x0            }                                                                                C:\Hannibal Code1.1\user_routines_fast.c
                                                                                                                            C:\Hannibal Code1.1\user_routines_fast.c
                                                                                                                            C:\Hannibal Code1.1\user_routines_fast.c
                                           /******************************************************************************/ C:\Hannibal Code1.1\user_routines_fast.c
                                           /******************************************************************************/ C:\Hannibal Code1.1\user_routines_fast.c
                                           /******************************************************************************/ C:\Hannibal Code1.1\user_routines_fast.c
                                           /******************************************************************************* C:\Hannibal Code1.1\user_routines.c
                                           * FILE NAME: user_routines.c <FRC VERSION>                                       C:\Hannibal Code1.1\user_routines.c
                                           *                                                                                C:\Hannibal Code1.1\user_routines.c
                                           * DESCRIPTION:                                                                   C:\Hannibal Code1.1\user_routines.c
                                           *  This file contains the default mappings of inputs                             C:\Hannibal Code1.1\user_routines.c
                                           *  (like switches, joysticks, and buttons) to outputs on the RC.                 C:\Hannibal Code1.1\user_routines.c
                                           *                                                                                C:\Hannibal Code1.1\user_routines.c
                                           * USAGE:                                                                         C:\Hannibal Code1.1\user_routines.c
                                           *  You can either modify this file to fit your needs, or remove it from your     C:\Hannibal Code1.1\user_routines.c
                                           *  project and replace it with a modified copy.                                  C:\Hannibal Code1.1\user_routines.c
                                           *                                                                                C:\Hannibal Code1.1\user_routines.c
                                           *******************************************************************************/ C:\Hannibal Code1.1\user_routines.c
                                                                                                                            C:\Hannibal Code1.1\user_routines.c
                                           #include "ifi_aliases.h"                                                         C:\Hannibal Code1.1\user_routines.c
                                           #include "ifi_default.h"                                                         C:\Hannibal Code1.1\user_routines.c
                                           #include "ifi_utilities.h"                                                       C:\Hannibal Code1.1\user_routines.c
                                           #include "user_routines.h"                                                       C:\Hannibal Code1.1\user_routines.c
                                           #include "printf_lib.h"                                                          C:\Hannibal Code1.1\user_routines.c
                                           #include "receiver.h"                                                            C:\Hannibal Code1.1\user_routines.c
                                                                                                                            C:\Hannibal Code1.1\user_routines.c
                                                                                                                            C:\Hannibal Code1.1\user_routines.c
                                           /*** DEFINE USER VARIABLES AND INITIALIZE THEM HERE ***/                         C:\Hannibal Code1.1\user_routines.c
                                           /* EXAMPLES: (see MPLAB C18 User's Guide, p.9 for all types)                     C:\Hannibal Code1.1\user_routines.c
                                           unsigned char wheel_revolutions = 0; (can vary from 0 to 255)                    C:\Hannibal Code1.1\user_routines.c
                                           unsigned int  delay_count = 7;       (can vary from 0 to 65,535)                 C:\Hannibal Code1.1\user_routines.c
                                           int           angle_deviation = 142; (can vary from -32,768 to 32,767)           C:\Hannibal Code1.1\user_routines.c
                                           unsigned long very_big_counter = 0;  (can vary from 0 to 4,294,967,295)          C:\Hannibal Code1.1\user_routines.c
                                           */                                                                               C:\Hannibal Code1.1\user_routines.c
                                           extern unsigned long Wheel_Clock;                                                C:\Hannibal Code1.1\user_routines.c
                                           extern unsigned int wheel_r_count;                                               C:\Hannibal Code1.1\user_routines.c
                                           extern unsigned int wheel_l_count;                                               C:\Hannibal Code1.1\user_routines.c
                                           unsigned char p1_x_old=127;                                                      C:\Hannibal Code1.1\user_routines.c
                                           unsigned char p1_y_old=127;                                                      C:\Hannibal Code1.1\user_routines.c
                                           unsigned char HATCommand=0;                                                      C:\Hannibal Code1.1\user_routines.c
                                           unsigned char casterToggle=0;                                                    C:\Hannibal Code1.1\user_routines.c
                                           unsigned long counter=0;                                                         C:\Hannibal Code1.1\user_routines.c
                                           unsigned char debug_cycle = 0;                                                   C:\Hannibal Code1.1\user_routines.c
                                                                                                                            C:\Hannibal Code1.1\user_routines.c
                                           unsigned char periodTable[26];                                                   C:\Hannibal Code1.1\user_routines.c
                                           /******************************************************************************* C:\Hannibal Code1.1\user_routines.c
                                           * FUNCTION NAME: Limit_Mix                                                       C:\Hannibal Code1.1\user_routines.c
                                           * PURPOSE:       Limits the mixed value for one joystick drive.                  C:\Hannibal Code1.1\user_routines.c
                                           * CALLED FROM:   Default_Routine, this file                                      C:\Hannibal Code1.1\user_routines.c
                                           * ARGUMENTS:                                                                     C:\Hannibal Code1.1\user_routines.c
                                           *     Argument             Type    IO   Description                              C:\Hannibal Code1.1\user_routines.c
                                           *     --------             ----    --   -----------                              C:\Hannibal Code1.1\user_routines.c
                                           *     intermediate_value    int    I                                             C:\Hannibal Code1.1\user_routines.c
                                           * RETURNS:       unsigned char                                                   C:\Hannibal Code1.1\user_routines.c
                                           *******************************************************************************/ C:\Hannibal Code1.1\user_routines.c
001946   cfd9     MOVFF     0xfd9,0xfe6    unsigned char Limit_Mix (int intermediate_value)                                 C:\Hannibal Code1.1\user_routines.c
001948   ffe6                                                                                                               
00194a   cfe1     MOVFF     0xfe1,0xfd9                                                                                     
00194c   ffd9                                                                                                               
                                           {                                                                                C:\Hannibal Code1.1\user_routines.c
                                             static int limited_value;                                                      C:\Hannibal Code1.1\user_routines.c
                                                                                                                            C:\Hannibal Code1.1\user_routines.c
00194e   0efd     MOVLW     0xfd             if (intermediate_value < 2000)                                                 C:\Hannibal Code1.1\user_routines.c
001950   cfdb     MOVFF     0xfdb,0x2b                                                                                      
001952   f02b                                                                                                               
001954   0efe     MOVLW     0xfe                                                                                            
001956   cfdb     MOVFF     0xfdb,0x2c                                                                                      
001958   f02c                                                                                                               
00195a   502c     MOVF      0x2c,0x0,0x0                                                                                    
00195c   0a07     XORLW     0x7                                                                                             
00195e   aee8     BTFSS     0xe8,0x7,0x0                                                                                    
001960   d002     BRA       0x1966                                                                                          
001962   90d8     BCF       0xd8,0x0,0x0                                                                                    
001964   d004     BRA       0x196e                                                                                          
001966   0ed0     MOVLW     0xd0                                                                                            
001968   5c2b     SUBWF     0x2b,0x0,0x0                                                                                    
00196a   0e07     MOVLW     0x7                                                                                             
00196c   582c     SUBWFB    0x2c,0x0,0x0                                                                                    
00196e   e206     BC        0x197c                                                                                          
                                             {                                                                              C:\Hannibal Code1.1\user_routines.c
001970   0107     MOVLB     0x7                limited_value = 2000;                                                        C:\Hannibal Code1.1\user_routines.c
001972   0ed0     MOVLW     0xd0                                                                                            
001974   6fb3     MOVWF     0xb3,0x1                                                                                        
001976   0e07     MOVLW     0x7                                                                                             
001978   6fb4     MOVWF     0xb4,0x1                                                                                        
                                             }                                                                              C:\Hannibal Code1.1\user_routines.c
00197a   d01e     BRA       0x19b8           else if (intermediate_value > 2254)                                            C:\Hannibal Code1.1\user_routines.c
00197c   0efd     MOVLW     0xfd                                                                                            
00197e   cfdb     MOVFF     0xfdb,0x2b                                                                                      
001980   f02b                                                                                                               
001982   0efe     MOVLW     0xfe                                                                                            
001984   cfdb     MOVFF     0xfdb,0x2c                                                                                      
001986   f02c                                                                                                               
001988   502c     MOVF      0x2c,0x0,0x0                                                                                    
00198a   0a08     XORLW     0x8                                                                                             
00198c   aee8     BTFSS     0xe8,0x7,0x0                                                                                    
00198e   d002     BRA       0x1994                                                                                          
001990   342c     RLCF      0x2c,0x0,0x0                                                                                    
001992   d005     BRA       0x199e                                                                                          
001994   0ece     MOVLW     0xce                                                                                            
001996   80d8     BSF       0xd8,0x0,0x0                                                                                    
001998   542b     SUBFWB    0x2b,0x0,0x0                                                                                    
00199a   0e08     MOVLW     0x8                                                                                             
00199c   542c     SUBFWB    0x2c,0x0,0x0                                                                                    
00199e   e206     BC        0x19ac                                                                                          
                                             {                                                                              C:\Hannibal Code1.1\user_routines.c
0019a0   0107     MOVLB     0x7                limited_value = 2254;                                                        C:\Hannibal Code1.1\user_routines.c
0019a2   0ece     MOVLW     0xce                                                                                            
0019a4   6fb3     MOVWF     0xb3,0x1                                                                                        
0019a6   0e08     MOVLW     0x8                                                                                             
0019a8   6fb4     MOVWF     0xb4,0x1                                                                                        
                                             }                                                                              C:\Hannibal Code1.1\user_routines.c
0019aa   d006     BRA       0x19b8           else                                                                           C:\Hannibal Code1.1\user_routines.c
                                             {                                                                              C:\Hannibal Code1.1\user_routines.c
0019ac   0efd     MOVLW     0xfd               limited_value = intermediate_value;                                          C:\Hannibal Code1.1\user_routines.c
0019ae   cfdb     MOVFF     0xfdb,0x7b3                                                                                     
0019b0   f7b3                                                                                                               
0019b2   0efe     MOVLW     0xfe                                                                                            
0019b4   cfdb     MOVFF     0xfdb,0x7b4                                                                                     
0019b6   f7b4                                                                                                               
                                             }                                                                              C:\Hannibal Code1.1\user_routines.c
0019b8   c7b3     MOVFF     0x7b3,0x2b       return (unsigned char) (limited_value - 2000);                                 C:\Hannibal Code1.1\user_routines.c
0019ba   f02b                                                                                                               
0019bc   c7b4     MOVFF     0x7b4,0x2c                                                                                      
0019be   f02c                                                                                                               
0019c0   0ed0     MOVLW     0xd0                                                                                            
0019c2   5e2b     SUBWF     0x2b,0x1,0x0                                                                                    
0019c4   0e07     MOVLW     0x7                                                                                             
0019c6   5a2c     SUBWFB    0x2c,0x1,0x0                                                                                    
0019c8   502b     MOVF      0x2b,0x0,0x0                                                                                    
0019ca   d000     BRA       0x19cc                                                                                          
0019cc   52e5     MOVF      0xe5,0x1,0x0   }                                                                                C:\Hannibal Code1.1\user_routines.c
0019ce   cfe7     MOVFF     0xfe7,0xfd9                                                                                     
0019d0   ffd9                                                                                                               
0019d2   0012     RETURN    0x0                                                                                             
                                                                                                                            C:\Hannibal Code1.1\user_routines.c
                                           //--------------------------------------------------------------------------------- C:\Hannibal Code1.1\user_routines.c
0019d4   cfd9     MOVFF     0xfd9,0xfe6    void inputModifier(unsigned char *p1_x_un,unsigned char *p1_y_un)                C:\Hannibal Code1.1\user_routines.c
0019d6   ffe6                                                                                                               
0019d8   cfe1     MOVFF     0xfe1,0xfd9                                                                                     
0019da   ffd9                                                                                                               
0019dc   0e0e     MOVLW     0xe                                                                                             
0019de   26e1     ADDWF     0xe1,0x1,0x0                                                                                    
                                           {                                                                                C:\Hannibal Code1.1\user_routines.c
0019e0   0efd     MOVLW     0xfd           	unsigned int x=255-*p1_x_un;                                                    C:\Hannibal Code1.1\user_routines.c
0019e2   cfdb     MOVFF     0xfdb,0xfe9                                                                                     
0019e4   ffe9                                                                                                               
0019e6   0efe     MOVLW     0xfe                                                                                            
0019e8   cfdb     MOVFF     0xfdb,0xfea                                                                                     
0019ea   ffea                                                                                                               
0019ec   50ef     MOVF      0xef,0x0,0x0                                                                                    
0019ee   6e2b     MOVWF     0x2b,0x0                                                                                        
0019f0   6a2c     CLRF      0x2c,0x0                                                                                        
0019f2   0eff     MOVLW     0xff                                                                                            
0019f4   80d8     BSF       0xd8,0x0,0x0                                                                                    
0019f6   562b     SUBFWB    0x2b,0x1,0x0                                                                                    
0019f8   0e00     MOVLW     0x0                                                                                             
0019fa   562c     SUBFWB    0x2c,0x1,0x0                                                                                    
0019fc   c02b     MOVFF     0x2b,0xfde                                                                                      
0019fe   ffde                                                                                                               
001a00   c02c     MOVFF     0x2c,0xfdd                                                                                      
001a02   ffdd                                                                                                               
001a04   0efb     MOVLW     0xfb           	unsigned int y=255-*p1_y_un;	                                                   C:\Hannibal Code1.1\user_routines.c
001a06   cfdb     MOVFF     0xfdb,0xfe9                                                                                     
001a08   ffe9                                                                                                               
001a0a   0efc     MOVLW     0xfc                                                                                            
001a0c   cfdb     MOVFF     0xfdb,0xfea                                                                                     
001a0e   ffea                                                                                                               
001a10   50ef     MOVF      0xef,0x0,0x0                                                                                    
001a12   6e2b     MOVWF     0x2b,0x0                                                                                        
001a14   6a2c     CLRF      0x2c,0x0                                                                                        
001a16   0eff     MOVLW     0xff                                                                                            
001a18   80d8     BSF       0xd8,0x0,0x0                                                                                    
001a1a   562b     SUBFWB    0x2b,0x1,0x0                                                                                    
001a1c   0e00     MOVLW     0x0                                                                                             
001a1e   562c     SUBFWB    0x2c,0x1,0x0                                                                                    
001a20   0e02     MOVLW     0x2                                                                                             
001a22   c02b     MOVFF     0x2b,0xfdb                                                                                      
001a24   ffdb                                                                                                               
001a26   0e03     MOVLW     0x3                                                                                             
001a28   c02c     MOVFF     0x2c,0xfdb                                                                                      
001a2a   ffdb                                                                                                               
001a2c   0ef4     MOVLW     0xf4           	unsigned int constk=(int)20*ACCCOEFF;                                           C:\Hannibal Code1.1\user_routines.c
001a2e   6ef3     MOVWF     0xf3,0x0                                                                                        
001a30   0e04     MOVLW     0x4                                                                                             
001a32   cff3     MOVFF     0xff3,0xfdb                                                                                     
001a34   ffdb                                                                                                               
001a36   0e01     MOVLW     0x1                                                                                             
001a38   6ef3     MOVWF     0xf3,0x0                                                                                        
001a3a   0e05     MOVLW     0x5                                                                                             
001a3c   cff3     MOVFF     0xff3,0xfdb                                                                                     
001a3e   ffdb                                                                                                               
001a40   cfde     MOVFF     0xfde,0x2b     	unsigned int xdist=(signed int)x-127;                                           C:\Hannibal Code1.1\user_routines.c
001a42   f02b                                                                                                               
001a44   cfdd     MOVFF     0xfdd,0x2c                                                                                      
001a46   f02c                                                                                                               
001a48   0e7f     MOVLW     0x7f                                                                                            
001a4a   5e2b     SUBWF     0x2b,0x1,0x0                                                                                    
001a4c   0e00     MOVLW     0x0                                                                                             
001a4e   5a2c     SUBWFB    0x2c,0x1,0x0                                                                                    
001a50   0e06     MOVLW     0x6                                                                                             
001a52   c02b     MOVFF     0x2b,0xfdb                                                                                      
001a54   ffdb                                                                                                               
001a56   0e07     MOVLW     0x7                                                                                             
001a58   c02c     MOVFF     0x2c,0xfdb                                                                                      
001a5a   ffdb                                                                                                               
                                                                                                                            C:\Hannibal Code1.1\user_routines.c
                                           	unsigned int int1;                                                              C:\Hannibal Code1.1\user_routines.c
                                           	unsigned int int2;                                                              C:\Hannibal Code1.1\user_routines.c
                                           	unsigned int int3;                                                              C:\Hannibal Code1.1\user_routines.c
                                           	                                                                                C:\Hannibal Code1.1\user_routines.c
001a5c   cfde     MOVFF     0xfde,0x2b     	if(x<(unsigned int)127)                                                         C:\Hannibal Code1.1\user_routines.c
001a5e   f02b                                                                                                               
001a60   cfdd     MOVFF     0xfdd,0x2c                                                                                      
001a62   f02c                                                                                                               
001a64   0e7f     MOVLW     0x7f                                                                                            
001a66   5c2b     SUBWF     0x2b,0x0,0x0                                                                                    
001a68   0e00     MOVLW     0x0                                                                                             
001a6a   582c     SUBWFB    0x2c,0x0,0x0                                                                                    
001a6c   e239     BC        0x1ae0                                                                                          
                                           	{                                                                               C:\Hannibal Code1.1\user_routines.c
001a6e   cfde     MOVFF     0xfde,0x2b     		xdist=((unsigned int)255-x)-(unsigned int)127;                                 C:\Hannibal Code1.1\user_routines.c
001a70   f02b                                                                                                               
001a72   cfdd     MOVFF     0xfdd,0x2c                                                                                      
001a74   f02c                                                                                                               
001a76   0eff     MOVLW     0xff                                                                                            
001a78   80d8     BSF       0xd8,0x0,0x0                                                                                    
001a7a   562b     SUBFWB    0x2b,0x1,0x0                                                                                    
001a7c   0e00     MOVLW     0x0                                                                                             
001a7e   562c     SUBFWB    0x2c,0x1,0x0                                                                                    
001a80   0e7f     MOVLW     0x7f                                                                                            
001a82   5e2b     SUBWF     0x2b,0x1,0x0                                                                                    
001a84   0e00     MOVLW     0x0                                                                                             
001a86   5a2c     SUBWFB    0x2c,0x1,0x0                                                                                    
001a88   0e06     MOVLW     0x6                                                                                             
001a8a   c02b     MOVFF     0x2b,0xfdb                                                                                      
001a8c   ffdb                                                                                                               
001a8e   0e07     MOVLW     0x7                                                                                             
001a90   c02c     MOVFF     0x2c,0xfdb                                                                                      
001a92   ffdb                                                                                                               
001a94   0e50     MOVLW     0x50           		x=(unsigned int)127-((unsigned int)XPER*xdist/(unsigned int)100);              C:\Hannibal Code1.1\user_routines.c
001a96   6e1d     MOVWF     0x1d,0x0                                                                                        
001a98   6a1e     CLRF      0x1e,0x0                                                                                        
001a9a   0e06     MOVLW     0x6                                                                                             
001a9c   cfdb     MOVFF     0xfdb,0x22                                                                                      
001a9e   f022                                                                                                               
001aa0   0e07     MOVLW     0x7                                                                                             
001aa2   cfdb     MOVFF     0xfdb,0x23                                                                                      
001aa4   f023                                                                                                               
001aa6   ece3     CALL      0x2fc6,0x0                                                                                      
001aa8   f017                                                                                                               
001aaa   c01b     MOVFF     0x1b,0x2b                                                                                       
001aac   f02b                                                                                                               
001aae   c01c     MOVFF     0x1c,0x2c                                                                                       
001ab0   f02c                                                                                                               
001ab2   0e64     MOVLW     0x64                                                                                            
001ab4   6e22     MOVWF     0x22,0x0                                                                                        
001ab6   6a23     CLRF      0x23,0x0                                                                                        
001ab8   c02b     MOVFF     0x2b,0x1d                                                                                       
001aba   f01d                                                                                                               
001abc   c02c     MOVFF     0x2c,0x1e                                                                                       
001abe   f01e                                                                                                               
001ac0   ece4     CALL      0x43c8,0x0                                                                                      
001ac2   f021                                                                                                               
001ac4   c01d     MOVFF     0x1d,0x2b                                                                                       
001ac6   f02b                                                                                                               
001ac8   c01e     MOVFF     0x1e,0x2c                                                                                       
001aca   f02c                                                                                                               
001acc   0e7f     MOVLW     0x7f                                                                                            
001ace   80d8     BSF       0xd8,0x0,0x0                                                                                    
001ad0   562b     SUBFWB    0x2b,0x1,0x0                                                                                    
001ad2   0e00     MOVLW     0x0                                                                                             
001ad4   562c     SUBFWB    0x2c,0x1,0x0                                                                                    
001ad6   c02b     MOVFF     0x2b,0xfde                                                                                      
001ad8   ffde                                                                                                               
001ada   c02c     MOVFF     0x2c,0xfdd                                                                                      
001adc   ffdd                                                                                                               
                                           	}                                                                               C:\Hannibal Code1.1\user_routines.c
001ade   d076     BRA       0x1bcc         	else                                                                            C:\Hannibal Code1.1\user_routines.c
                                           	{                                                                               C:\Hannibal Code1.1\user_routines.c
001ae0   0e50     MOVLW     0x50           		int1=(unsigned int)XPER*(unsigned int)xdist;                                   C:\Hannibal Code1.1\user_routines.c
001ae2   6e1d     MOVWF     0x1d,0x0                                                                                        
001ae4   6a1e     CLRF      0x1e,0x0                                                                                        
001ae6   0e06     MOVLW     0x6                                                                                             
001ae8   cfdb     MOVFF     0xfdb,0x22                                                                                      
001aea   f022                                                                                                               
001aec   0e07     MOVLW     0x7                                                                                             
001aee   cfdb     MOVFF     0xfdb,0x23                                                                                      
001af0   f023                                                                                                               
001af2   ece3     CALL      0x2fc6,0x0                                                                                      
001af4   f017                                                                                                               
001af6   0e08     MOVLW     0x8                                                                                             
001af8   c01b     MOVFF     0x1b,0xfdb                                                                                      
001afa   ffdb                                                                                                               
001afc   0e09     MOVLW     0x9                                                                                             
001afe   c01c     MOVFF     0x1c,0xfdb                                                                                      
001b00   ffdb                                                                                                               
001b02   0e64     MOVLW     0x64           		int2=int1/(unsigned int)100;                                                   C:\Hannibal Code1.1\user_routines.c
001b04   6e2b     MOVWF     0x2b,0x0                                                                                        
001b06   6a2c     CLRF      0x2c,0x0                                                                                        
001b08   0e08     MOVLW     0x8                                                                                             
001b0a   cfdb     MOVFF     0xfdb,0x1d                                                                                      
001b0c   f01d                                                                                                               
001b0e   0e09     MOVLW     0x9                                                                                             
001b10   cfdb     MOVFF     0xfdb,0x1e                                                                                      
001b12   f01e                                                                                                               
001b14   c02b     MOVFF     0x2b,0x22                                                                                       
001b16   f022                                                                                                               
001b18   c02c     MOVFF     0x2c,0x23                                                                                       
001b1a   f023                                                                                                               
001b1c   ece4     CALL      0x43c8,0x0                                                                                      
001b1e   f021                                                                                                               
001b20   0e0a     MOVLW     0xa                                                                                             
001b22   c01d     MOVFF     0x1d,0xfdb                                                                                      
001b24   ffdb                                                                                                               
001b26   0e0b     MOVLW     0xb                                                                                             
001b28   c01e     MOVFF     0x1e,0xfdb                                                                                      
001b2a   ffdb                                                                                                               
001b2c   0e7f     MOVLW     0x7f           		int3=int2+(unsigned int)127;                                                   C:\Hannibal Code1.1\user_routines.c
001b2e   6ee7     MOVWF     0xe7,0x0                                                                                        
001b30   0e0a     MOVLW     0xa                                                                                             
001b32   cfdb     MOVFF     0xfdb,0x2b                                                                                      
001b34   f02b                                                                                                               
001b36   0e0b     MOVLW     0xb                                                                                             
001b38   cfdb     MOVFF     0xfdb,0x2c                                                                                      
001b3a   f02c                                                                                                               
001b3c   50e7     MOVF      0xe7,0x0,0x0                                                                                    
001b3e   262b     ADDWF     0x2b,0x1,0x0                                                                                    
001b40   0e00     MOVLW     0x0                                                                                             
001b42   222c     ADDWFC    0x2c,0x1,0x0                                                                                    
001b44   0e0c     MOVLW     0xc                                                                                             
001b46   c02b     MOVFF     0x2b,0xfdb                                                                                      
001b48   ffdb                                                                                                               
001b4a   0e0d     MOVLW     0xd                                                                                             
001b4c   c02c     MOVFF     0x2c,0xfdb                                                                                      
001b4e   ffdb                                                                                                               
                                                                                                                            C:\Hannibal Code1.1\user_routines.c
001b50   0101     MOVLB     0x1            		if(debug_cycle) printf("int1: %d\n",int1);                                     C:\Hannibal Code1.1\user_routines.c
001b52   5108     MOVF      0x8,0x0,0x1                                                                                     
001b54   e010     BZ        0x1b76                                                                                          
001b56   0e08     MOVLW     0x8                                                                                             
001b58   cfdb     MOVFF     0xfdb,0xfe6                                                                                     
001b5a   ffe6                                                                                                               
001b5c   0e09     MOVLW     0x9                                                                                             
001b5e   cfdb     MOVFF     0xfdb,0xfe6                                                                                     
001b60   ffe6                                                                                                               
001b62   0ebe     MOVLW     0xbe                                                                                            
001b64   6ee6     MOVWF     0xe6,0x0                                                                                        
001b66   0e40     MOVLW     0x40                                                                                            
001b68   6ee6     MOVWF     0xe6,0x0                                                                                        
001b6a   ec35     CALL      0x146a,0x0                                                                                      
001b6c   f00a                                                                                                               
001b6e   52e5     MOVF      0xe5,0x1,0x0                                                                                    
001b70   52e5     MOVF      0xe5,0x1,0x0                                                                                    
001b72   52e5     MOVF      0xe5,0x1,0x0                                                                                    
001b74   52e5     MOVF      0xe5,0x1,0x0                                                                                    
001b76   0101     MOVLB     0x1            		if(debug_cycle) printf("int2: %d\n",int2);                                     C:\Hannibal Code1.1\user_routines.c
001b78   5108     MOVF      0x8,0x0,0x1                                                                                     
001b7a   e010     BZ        0x1b9c                                                                                          
001b7c   0e0a     MOVLW     0xa                                                                                             
001b7e   cfdb     MOVFF     0xfdb,0xfe6                                                                                     
001b80   ffe6                                                                                                               
001b82   0e0b     MOVLW     0xb                                                                                             
001b84   cfdb     MOVFF     0xfdb,0xfe6                                                                                     
001b86   ffe6                                                                                                               
001b88   0eb4     MOVLW     0xb4                                                                                            
001b8a   6ee6     MOVWF     0xe6,0x0                                                                                        
001b8c   0e40     MOVLW     0x40                                                                                            
001b8e   6ee6     MOVWF     0xe6,0x0                                                                                        
001b90   ec35     CALL      0x146a,0x0                                                                                      
001b92   f00a                                                                                                               
001b94   52e5     MOVF      0xe5,0x1,0x0                                                                                    
001b96   52e5     MOVF      0xe5,0x1,0x0                                                                                    
001b98   52e5     MOVF      0xe5,0x1,0x0                                                                                    
001b9a   52e5     MOVF      0xe5,0x1,0x0                                                                                    
001b9c   0101     MOVLB     0x1            		if(debug_cycle) printf("int3: %d\n",int3);                                     C:\Hannibal Code1.1\user_routines.c
001b9e   5108     MOVF      0x8,0x0,0x1                                                                                     
001ba0   e010     BZ        0x1bc2                                                                                          
001ba2   0e0c     MOVLW     0xc                                                                                             
001ba4   cfdb     MOVFF     0xfdb,0xfe6                                                                                     
001ba6   ffe6                                                                                                               
001ba8   0e0d     MOVLW     0xd                                                                                             
001baa   cfdb     MOVFF     0xfdb,0xfe6                                                                                     
001bac   ffe6                                                                                                               
001bae   0eaa     MOVLW     0xaa                                                                                            
001bb0   6ee6     MOVWF     0xe6,0x0                                                                                        
001bb2   0e40     MOVLW     0x40                                                                                            
001bb4   6ee6     MOVWF     0xe6,0x0                                                                                        
001bb6   ec35     CALL      0x146a,0x0                                                                                      
001bb8   f00a                                                                                                               
001bba   52e5     MOVF      0xe5,0x1,0x0                                                                                    
001bbc   52e5     MOVF      0xe5,0x1,0x0                                                                                    
001bbe   52e5     MOVF      0xe5,0x1,0x0                                                                                    
001bc0   52e5     MOVF      0xe5,0x1,0x0                                                                                    
                                                                                                                            C:\Hannibal Code1.1\user_routines.c
001bc2   0e0c     MOVLW     0xc            		x=int3;                                                                        C:\Hannibal Code1.1\user_routines.c
001bc4   cfdb     MOVFF     0xfdb,0xfde                                                                                     
001bc6   ffde                                                                                                               
001bc8   cfdb     MOVFF     0xfdb,0xfdd                                                                                     
001bca   ffdd                                                                                                               
                                           	}                                                                               C:\Hannibal Code1.1\user_routines.c
                                           	                                                                                C:\Hannibal Code1.1\user_routines.c
001bcc   cfde     MOVFF     0xfde,0xfe6    	x=quadMod(x);                                                                   C:\Hannibal Code1.1\user_routines.c
001bce   ffe6                                                                                                               
001bd0   cfdd     MOVFF     0xfdd,0xfe6                                                                                     
001bd2   ffe6                                                                                                               
001bd4   d905     RCALL     0x1de0                                                                                          
001bd6   52e5     MOVF      0xe5,0x1,0x0                                                                                    
001bd8   52e5     MOVF      0xe5,0x1,0x0                                                                                    
001bda   cff3     MOVFF     0xff3,0xfde                                                                                     
001bdc   ffde                                                                                                               
001bde   cff4     MOVFF     0xff4,0xfdd                                                                                     
001be0   ffdd                                                                                                               
                                                                                                                            C:\Hannibal Code1.1\user_routines.c
                                           	//if((x<142) && (x>102)) x=127;                                                 C:\Hannibal Code1.1\user_routines.c
                                           	//if((y<142) && (y>102)) y=127;                                                 C:\Hannibal Code1.1\user_routines.c
                                                                                                                            C:\Hannibal Code1.1\user_routines.c
                                           	//if(debug_cycle) printf("Xo:	%d	Yo:	%d\n",(int)p1_x_old,(int)p1_y_old);        C:\Hannibal Code1.1\user_routines.c
                                           	//if(debug_cycle) printf("Xb4:	%d	Yb4:	%d\n",(int)x,(int)y);                    C:\Hannibal Code1.1\user_routines.c
                                                                                                                            C:\Hannibal Code1.1\user_routines.c
001be2   0e02     MOVLW     0x2            	y=p1_y_old+(ACCCOEFF*(2000+y-p1_y_old)/100) - constk;                           C:\Hannibal Code1.1\user_routines.c
001be4   cfdb     MOVFF     0xfdb,0x33                                                                                      
001be6   f033                                                                                                               
001be8   0e03     MOVLW     0x3                                                                                             
001bea   cfdb     MOVFF     0xfdb,0x34                                                                                      
001bec   f034                                                                                                               
001bee   0ed0     MOVLW     0xd0                                                                                            
001bf0   2633     ADDWF     0x33,0x1,0x0                                                                                    
001bf2   0e07     MOVLW     0x7                                                                                             
001bf4   2234     ADDWFC    0x34,0x1,0x0                                                                                    
001bf6   0101     MOVLB     0x1                                                                                             
001bf8   5101     MOVF      0x1,0x0,0x1                                                                                     
001bfa   6e35     MOVWF     0x35,0x0                                                                                        
001bfc   6a36     CLRF      0x36,0x0                                                                                        
001bfe   5035     MOVF      0x35,0x0,0x0                                                                                    
001c00   5c33     SUBWF     0x33,0x0,0x0                                                                                    
001c02   6e31     MOVWF     0x31,0x0                                                                                        
001c04   5036     MOVF      0x36,0x0,0x0                                                                                    
001c06   5834     SUBWFB    0x34,0x0,0x0                                                                                    
001c08   6e32     MOVWF     0x32,0x0                                                                                        
001c0a   0e19     MOVLW     0x19                                                                                            
001c0c   6e1d     MOVWF     0x1d,0x0                                                                                        
001c0e   6a1e     CLRF      0x1e,0x0                                                                                        
001c10   c031     MOVFF     0x31,0x22                                                                                       
001c12   f022                                                                                                               
001c14   c032     MOVFF     0x32,0x23                                                                                       
001c16   f023                                                                                                               
001c18   ece3     CALL      0x2fc6,0x0                                                                                      
001c1a   f017                                                                                                               
001c1c   c01b     MOVFF     0x1b,0x2f                                                                                       
001c1e   f02f                                                                                                               
001c20   c01c     MOVFF     0x1c,0x30                                                                                       
001c22   f030                                                                                                               
001c24   0e64     MOVLW     0x64                                                                                            
001c26   6e22     MOVWF     0x22,0x0                                                                                        
001c28   6a23     CLRF      0x23,0x0                                                                                        
001c2a   c02f     MOVFF     0x2f,0x1d                                                                                       
001c2c   f01d                                                                                                               
001c2e   c030     MOVFF     0x30,0x1e                                                                                       
001c30   f01e                                                                                                               
001c32   ece4     CALL      0x43c8,0x0                                                                                      
001c34   f021                                                                                                               
001c36   c01d     MOVFF     0x1d,0x2f                                                                                       
001c38   f02f                                                                                                               
001c3a   c01e     MOVFF     0x1e,0x30                                                                                       
001c3c   f030                                                                                                               
001c3e   0101     MOVLB     0x1                                                                                             
001c40   5101     MOVF      0x1,0x0,0x1                                                                                     
001c42   0100     MOVLB     0x0                                                                                             
001c44   6b2e     CLRF      0x2e,0x1                                                                                        
001c46   242f     ADDWF     0x2f,0x0,0x0                                                                                    
001c48   6f2d     MOVWF     0x2d,0x1                                                                                        
001c4a   5030     MOVF      0x30,0x0,0x0                                                                                    
001c4c   232e     ADDWFC    0x2e,0x1,0x1                                                                                    
001c4e   0e04     MOVLW     0x4                                                                                             
001c50   50db     MOVF      0xdb,0x0,0x0                                                                                    
001c52   5c2d     SUBWF     0x2d,0x0,0x0                                                                                    
001c54   6e2b     MOVWF     0x2b,0x0                                                                                        
001c56   0e05     MOVLW     0x5                                                                                             
001c58   50db     MOVF      0xdb,0x0,0x0                                                                                    
001c5a   582e     SUBWFB    0x2e,0x0,0x0                                                                                    
001c5c   6e2c     MOVWF     0x2c,0x0                                                                                        
001c5e   0e02     MOVLW     0x2                                                                                             
001c60   c02b     MOVFF     0x2b,0xfdb                                                                                      
001c62   ffdb                                                                                                               
001c64   0e03     MOVLW     0x3                                                                                             
001c66   c02c     MOVFF     0x2c,0xfdb                                                                                      
001c68   ffdb                                                                                                               
001c6a   cfde     MOVFF     0xfde,0x33     	x=p1_x_old+(ACCCOEFF*(2000+x-p1_x_old)/100) - constk;                           C:\Hannibal Code1.1\user_routines.c
001c6c   f033                                                                                                               
001c6e   cfdd     MOVFF     0xfdd,0x34                                                                                      
001c70   f034                                                                                                               
001c72   0ed0     MOVLW     0xd0                                                                                            
001c74   2633     ADDWF     0x33,0x1,0x0                                                                                    
001c76   0e07     MOVLW     0x7                                                                                             
001c78   2234     ADDWFC    0x34,0x1,0x0                                                                                    
001c7a   0101     MOVLB     0x1                                                                                             
001c7c   5100     MOVF      0x0,0x0,0x1                                                                                     
001c7e   6e35     MOVWF     0x35,0x0                                                                                        
001c80   6a36     CLRF      0x36,0x0                                                                                        
001c82   5035     MOVF      0x35,0x0,0x0                                                                                    
001c84   5c33     SUBWF     0x33,0x0,0x0                                                                                    
001c86   6e31     MOVWF     0x31,0x0                                                                                        
001c88   5036     MOVF      0x36,0x0,0x0                                                                                    
001c8a   5834     SUBWFB    0x34,0x0,0x0                                                                                    
001c8c   6e32     MOVWF     0x32,0x0                                                                                        
001c8e   0e19     MOVLW     0x19                                                                                            
001c90   6e1d     MOVWF     0x1d,0x0                                                                                        
001c92   6a1e     CLRF      0x1e,0x0                                                                                        
001c94   c031     MOVFF     0x31,0x22                                                                                       
001c96   f022                                                                                                               
001c98   c032     MOVFF     0x32,0x23                                                                                       
001c9a   f023                                                                                                               
001c9c   ece3     CALL      0x2fc6,0x0                                                                                      
001c9e   f017                                                                                                               
001ca0   c01b     MOVFF     0x1b,0x2f                                                                                       
001ca2   f02f                                                                                                               
001ca4   c01c     MOVFF     0x1c,0x30                                                                                       
001ca6   f030                                                                                                               
001ca8   0e64     MOVLW     0x64                                                                                            
001caa   6e22     MOVWF     0x22,0x0                                                                                        
001cac   6a23     CLRF      0x23,0x0                                                                                        
001cae   c02f     MOVFF     0x2f,0x1d                                                                                       
001cb0   f01d                                                                                                               
001cb2   c030     MOVFF     0x30,0x1e                                                                                       
001cb4   f01e                                                                                                               
001cb6   ece4     CALL      0x43c8,0x0                                                                                      
001cb8   f021                                                                                                               
001cba   c01d     MOVFF     0x1d,0x2f                                                                                       
001cbc   f02f                                                                                                               
001cbe   c01e     MOVFF     0x1e,0x30                                                                                       
001cc0   f030                                                                                                               
001cc2   0101     MOVLB     0x1                                                                                             
001cc4   5100     MOVF      0x0,0x0,0x1                                                                                     
001cc6   0100     MOVLB     0x0                                                                                             
001cc8   6b2e     CLRF      0x2e,0x1                                                                                        
001cca   242f     ADDWF     0x2f,0x0,0x0                                                                                    
001ccc   6f2d     MOVWF     0x2d,0x1                                                                                        
001cce   5030     MOVF      0x30,0x0,0x0                                                                                    
001cd0   232e     ADDWFC    0x2e,0x1,0x1                                                                                    
001cd2   0e04     MOVLW     0x4                                                                                             
001cd4   50db     MOVF      0xdb,0x0,0x0                                                                                    
001cd6   5c2d     SUBWF     0x2d,0x0,0x0                                                                                    
001cd8   6e2b     MOVWF     0x2b,0x0                                                                                        
001cda   0e05     MOVLW     0x5                                                                                             
001cdc   50db     MOVF      0xdb,0x0,0x0                                                                                    
001cde   582e     SUBWFB    0x2e,0x0,0x0                                                                                    
001ce0   6e2c     MOVWF     0x2c,0x0                                                                                        
001ce2   c02b     MOVFF     0x2b,0xfde                                                                                      
001ce4   ffde                                                                                                               
001ce6   c02c     MOVFF     0x2c,0xfdd                                                                                      
001ce8   ffdd                                                                                                               
                                                                                                                            C:\Hannibal Code1.1\user_routines.c
                                           	//if(debug_cycle) printf("Xa:	%d	Ya:	%d\n",(int)x,(int)y);                      C:\Hannibal Code1.1\user_routines.c
001cea   0e02     MOVLW     0x2            	p1_y_old=y;	                                                                    C:\Hannibal Code1.1\user_routines.c
001cec   cfdb     MOVFF     0xfdb,0x101                                                                                     
001cee   f101                                                                                                               
001cf0   cfdf     MOVFF     0xfdf,0x100    	p1_x_old=x;                                                                     C:\Hannibal Code1.1\user_routines.c
001cf2   f100                                                                                                               
                                                                                                                            C:\Hannibal Code1.1\user_routines.c
                                               //if(debug_cycle) printf("X1: %d  Y1: %d",(int)x,(int)y);                    C:\Hannibal Code1.1\user_routines.c
                                                                                                                            C:\Hannibal Code1.1\user_routines.c
                                               // remove the deadband of from 124..132                                      C:\Hannibal Code1.1\user_routines.c
001cf4   cfd9     MOVFF     0xfd9,0xfe6        recalc_for_deadband(&x);                                                     C:\Hannibal Code1.1\user_routines.c
001cf6   ffe6                                                                                                               
001cf8   cfda     MOVFF     0xfda,0xfe6                                                                                     
001cfa   ffe6                                                                                                               
001cfc   d821     RCALL     0x1d40                                                                                          
001cfe   52e5     MOVF      0xe5,0x1,0x0                                                                                    
001d00   52e5     MOVF      0xe5,0x1,0x0                                                                                    
001d02   50d9     MOVF      0xd9,0x0,0x0       recalc_for_deadband(&y);                                                     C:\Hannibal Code1.1\user_routines.c
001d04   0f02     ADDLW     0x2                                                                                             
001d06   6ee6     MOVWF     0xe6,0x0                                                                                        
001d08   cfda     MOVFF     0xfda,0xfe6                                                                                     
001d0a   ffe6                                                                                                               
001d0c   d819     RCALL     0x1d40                                                                                          
001d0e   52e5     MOVF      0xe5,0x1,0x0                                                                                    
001d10   52e5     MOVF      0xe5,0x1,0x0                                                                                    
                                                                                                                            C:\Hannibal Code1.1\user_routines.c
                                               //if(debug_cycle) printf("  X2: %d  Y2: %d\n",(int)x,(int)y);                C:\Hannibal Code1.1\user_routines.c
                                                                                                                            C:\Hannibal Code1.1\user_routines.c
001d12   0efd     MOVLW     0xfd           	*p1_x_un=x;                                                                     C:\Hannibal Code1.1\user_routines.c
001d14   cfdb     MOVFF     0xfdb,0xfe9                                                                                     
001d16   ffe9                                                                                                               
001d18   0efe     MOVLW     0xfe                                                                                            
001d1a   cfdb     MOVFF     0xfdb,0xfea                                                                                     
001d1c   ffea                                                                                                               
001d1e   cfdf     MOVFF     0xfdf,0xfef                                                                                     
001d20   ffef                                                                                                               
001d22   0efb     MOVLW     0xfb           	*p1_y_un=y;                                                                     C:\Hannibal Code1.1\user_routines.c
001d24   cfdb     MOVFF     0xfdb,0xfe9                                                                                     
001d26   ffe9                                                                                                               
001d28   0efc     MOVLW     0xfc                                                                                            
001d2a   cfdb     MOVFF     0xfdb,0xfea                                                                                     
001d2c   ffea                                                                                                               
001d2e   0e02     MOVLW     0x2                                                                                             
001d30   cfdb     MOVFF     0xfdb,0xfef                                                                                     
001d32   ffef                                                                                                               
001d34   cfd9     MOVFF     0xfd9,0xfe1    }                                                                                C:\Hannibal Code1.1\user_routines.c
001d36   ffe1                                                                                                               
001d38   52e5     MOVF      0xe5,0x1,0x0                                                                                    
001d3a   cfe7     MOVFF     0xfe7,0xfd9                                                                                     
001d3c   ffd9                                                                                                               
001d3e   0012     RETURN    0x0                                                                                             
                                                                                                                            C:\Hannibal Code1.1\user_routines.c
                                           #define HALF_DEADBAND 8                                                          C:\Hannibal Code1.1\user_routines.c
                                                                                                                            C:\Hannibal Code1.1\user_routines.c
001d40   cfd9     MOVFF     0xfd9,0xfe6    void recalc_for_deadband(unsigned int *n)                                        C:\Hannibal Code1.1\user_routines.c
001d42   ffe6                                                                                                               
001d44   cfe1     MOVFF     0xfe1,0xfd9                                                                                     
001d46   ffd9                                                                                                               
001d48   0e02     MOVLW     0x2                                                                                             
001d4a   26e1     ADDWF     0xe1,0x1,0x0                                                                                    
                                           {                                                                                C:\Hannibal Code1.1\user_routines.c
001d4c   0efd     MOVLW     0xfd               unsigned int v = *n;                                                         C:\Hannibal Code1.1\user_routines.c
001d4e   cfdb     MOVFF     0xfdb,0xfe9                                                                                     
001d50   ffe9                                                                                                               
001d52   0efe     MOVLW     0xfe                                                                                            
001d54   cfdb     MOVFF     0xfdb,0xfea                                                                                     
001d56   ffea                                                                                                               
001d58   cfee     MOVFF     0xfee,0xfde                                                                                     
001d5a   ffde                                                                                                               
001d5c   cfed     MOVFF     0xfed,0xfdd                                                                                     
001d5e   ffdd                                                                                                               
                                                                                                                            C:\Hannibal Code1.1\user_routines.c
                                              //if (debug_cycle) printf("v => %d\n", (unsigned int)v );                     C:\Hannibal Code1.1\user_routines.c
                                                                                                                            C:\Hannibal Code1.1\user_routines.c
001d60   cfde     MOVFF     0xfde,0x2b         if (v < (unsigned int)(127-HALF_DEADBAND))                                   C:\Hannibal Code1.1\user_routines.c
001d62   f02b                                                                                                               
001d64   cfdd     MOVFF     0xfdd,0x2c                                                                                      
001d66   f02c                                                                                                               
001d68   0e77     MOVLW     0x77                                                                                            
001d6a   5c2b     SUBWF     0x2b,0x0,0x0                                                                                    
001d6c   0e00     MOVLW     0x0                                                                                             
001d6e   582c     SUBWFB    0x2c,0x0,0x0                                                                                    
001d70   e20d     BC        0x1d8c                                                                                          
                                               {                                                                            C:\Hannibal Code1.1\user_routines.c
                                                  //if (debug_cycle) printf("A\n");                                         C:\Hannibal Code1.1\user_routines.c
001d72   cfde     MOVFF     0xfde,0x2b            v = v + HALF_DEADBAND;                                                    C:\Hannibal Code1.1\user_routines.c
001d74   f02b                                                                                                               
001d76   cfdd     MOVFF     0xfdd,0x2c                                                                                      
001d78   f02c                                                                                                               
001d7a   0e08     MOVLW     0x8                                                                                             
001d7c   262b     ADDWF     0x2b,0x1,0x0                                                                                    
001d7e   0e00     MOVLW     0x0                                                                                             
001d80   222c     ADDWFC    0x2c,0x1,0x0                                                                                    
001d82   c02b     MOVFF     0x2b,0xfde                                                                                      
001d84   ffde                                                                                                               
001d86   c02c     MOVFF     0x2c,0xfdd                                                                                      
001d88   ffdd                                                                                                               
                                               }                                                                            C:\Hannibal Code1.1\user_routines.c
001d8a   d01a     BRA       0x1dc0             else if (v > (unsigned int)((int)127+HALF_DEADBAND))                         C:\Hannibal Code1.1\user_routines.c
001d8c   cfd9     MOVFF     0xfd9,0xfe9                                                                                     
001d8e   ffe9                                                                                                               
001d90   cfda     MOVFF     0xfda,0xfea                                                                                     
001d92   ffea                                                                                                               
001d94   0e87     MOVLW     0x87                                                                                            
001d96   80d8     BSF       0xd8,0x0,0x0                                                                                    
001d98   54ee     SUBFWB    0xee,0x0,0x0                                                                                    
001d9a   0e00     MOVLW     0x0                                                                                             
001d9c   54ed     SUBFWB    0xed,0x0,0x0                                                                                    
001d9e   e20d     BC        0x1dba                                                                                          
                                               {                                                                            C:\Hannibal Code1.1\user_routines.c
                                                  //if (debug_cycle) printf("B\n");                                         C:\Hannibal Code1.1\user_routines.c
001da0   cfde     MOVFF     0xfde,0x2b            v = v - HALF_DEADBAND;                                                    C:\Hannibal Code1.1\user_routines.c
001da2   f02b                                                                                                               
001da4   cfdd     MOVFF     0xfdd,0x2c                                                                                      
001da6   f02c                                                                                                               
001da8   0e08     MOVLW     0x8                                                                                             
001daa   5e2b     SUBWF     0x2b,0x1,0x0                                                                                    
001dac   0e00     MOVLW     0x0                                                                                             
001dae   5a2c     SUBWFB    0x2c,0x1,0x0                                                                                    
001db0   c02b     MOVFF     0x2b,0xfde                                                                                      
001db2   ffde                                                                                                               
001db4   c02c     MOVFF     0x2c,0xfdd                                                                                      
001db6   ffdd                                                                                                               
                                               }                                                                            C:\Hannibal Code1.1\user_routines.c
001db8   d003     BRA       0x1dc0             else                                                                         C:\Hannibal Code1.1\user_routines.c
                                               {                                                                            C:\Hannibal Code1.1\user_routines.c
001dba   0e7f     MOVLW     0x7f           		v = 127;                                                                       C:\Hannibal Code1.1\user_routines.c
001dbc   6ede     MOVWF     0xde,0x0                                                                                        
001dbe   6add     CLRF      0xdd,0x0                                                                                        
                                               }                                                                            C:\Hannibal Code1.1\user_routines.c
                                                                                                                            C:\Hannibal Code1.1\user_routines.c
001dc0   0efd     MOVLW     0xfd               *n = v;                                                                      C:\Hannibal Code1.1\user_routines.c
001dc2   cfdb     MOVFF     0xfdb,0xfe9                                                                                     
001dc4   ffe9                                                                                                               
001dc6   0efe     MOVLW     0xfe                                                                                            
001dc8   cfdb     MOVFF     0xfdb,0xfea                                                                                     
001dca   ffea                                                                                                               
001dcc   cfde     MOVFF     0xfde,0xfee                                                                                     
001dce   ffee                                                                                                               
001dd0   cfdd     MOVFF     0xfdd,0xfed                                                                                     
001dd2   ffed                                                                                                               
001dd4   cfd9     MOVFF     0xfd9,0xfe1    }                                                                                C:\Hannibal Code1.1\user_routines.c
001dd6   ffe1                                                                                                               
001dd8   52e5     MOVF      0xe5,0x1,0x0                                                                                    
001dda   cfe7     MOVFF     0xfe7,0xfd9                                                                                     
001ddc   ffd9                                                                                                               
001dde   0012     RETURN    0x0                                                                                             
                                           //------------------------------------------------------------------------------- C:\Hannibal Code1.1\user_routines.c
001de0   cfd9     MOVFF     0xfd9,0xfe6    unsigned int quadMod(unsigned int x)                                             C:\Hannibal Code1.1\user_routines.c
001de2   ffe6                                                                                                               
001de4   cfe1     MOVFF     0xfe1,0xfd9                                                                                     
001de6   ffd9                                                                                                               
001de8   0e0e     MOVLW     0xe                                                                                             
001dea   26e1     ADDWF     0xe1,0x1,0x0                                                                                    
                                           {                                                                                C:\Hannibal Code1.1\user_routines.c
001dec   0efd     MOVLW     0xfd           	long temp1=x-127L;                                                              C:\Hannibal Code1.1\user_routines.c
001dee   cfdb     MOVFF     0xfdb,0x2b                                                                                      
001df0   f02b                                                                                                               
001df2   0efe     MOVLW     0xfe                                                                                            
001df4   cfdb     MOVFF     0xfdb,0x2c                                                                                      
001df6   f02c                                                                                                               
001df8   6a2d     CLRF      0x2d,0x0                                                                                        
001dfa   6a2e     CLRF      0x2e,0x0                                                                                        
001dfc   0e7f     MOVLW     0x7f                                                                                            
001dfe   5e2b     SUBWF     0x2b,0x1,0x0                                                                                    
001e00   0e00     MOVLW     0x0                                                                                             
001e02   5a2c     SUBWFB    0x2c,0x1,0x0                                                                                    
001e04   5a2d     SUBWFB    0x2d,0x1,0x0                                                                                    
001e06   5a2e     SUBWFB    0x2e,0x1,0x0                                                                                    
001e08   c02b     MOVFF     0x2b,0xfdf                                                                                      
001e0a   ffdf                                                                                                               
001e0c   0e01     MOVLW     0x1                                                                                             
001e0e   c02c     MOVFF     0x2c,0xfdb                                                                                      
001e10   ffdb                                                                                                               
001e12   0e02     MOVLW     0x2                                                                                             
001e14   c02d     MOVFF     0x2d,0xfdb                                                                                      
001e16   ffdb                                                                                                               
001e18   0e03     MOVLW     0x3                                                                                             
001e1a   c02e     MOVFF     0x2e,0xfdb                                                                                      
001e1c   ffdb                                                                                                               
001e1e   cfd9     MOVFF     0xfd9,0xfe9    	long temp2=temp1*temp1;                                                         C:\Hannibal Code1.1\user_routines.c
001e20   ffe9                                                                                                               
001e22   cfda     MOVFF     0xfda,0xfea                                                                                     
001e24   ffea                                                                                                               
001e26   cfee     MOVFF     0xfee,0x2b                                                                                      
001e28   f02b                                                                                                               
001e2a   cfee     MOVFF     0xfee,0x2c                                                                                      
001e2c   f02c                                                                                                               
001e2e   cfee     MOVFF     0xfee,0x2d                                                                                      
001e30   f02d                                                                                                               
001e32   cfef     MOVFF     0xfef,0x2e                                                                                      
001e34   f02e                                                                                                               
001e36   c02b     MOVFF     0x2b,0x1b                                                                                       
001e38   f01b                                                                                                               
001e3a   c02c     MOVFF     0x2c,0x1c                                                                                       
001e3c   f01c                                                                                                               
001e3e   c02d     MOVFF     0x2d,0x1d                                                                                       
001e40   f01d                                                                                                               
001e42   c02e     MOVFF     0x2e,0x1e                                                                                       
001e44   f01e                                                                                                               
001e46   cfdf     MOVFF     0xfdf,0x20                                                                                      
001e48   f020                                                                                                               
001e4a   0e01     MOVLW     0x1                                                                                             
001e4c   cfdb     MOVFF     0xfdb,0x21                                                                                      
001e4e   f021                                                                                                               
001e50   0e02     MOVLW     0x2                                                                                             
001e52   cfdb     MOVFF     0xfdb,0x22                                                                                      
001e54   f022                                                                                                               
001e56   0e03     MOVLW     0x3                                                                                             
001e58   cfdb     MOVFF     0xfdb,0x23                                                                                      
001e5a   f023                                                                                                               
001e5c   ecc4     CALL      0x4188,0x0                                                                                      
001e5e   f020                                                                                                               
001e60   0e04     MOVLW     0x4                                                                                             
001e62   c017     MOVFF     0x17,0xfdb                                                                                      
001e64   ffdb                                                                                                               
001e66   0e05     MOVLW     0x5                                                                                             
001e68   c018     MOVFF     0x18,0xfdb                                                                                      
001e6a   ffdb                                                                                                               
001e6c   0e06     MOVLW     0x6                                                                                             
001e6e   c019     MOVFF     0x19,0xfdb                                                                                      
001e70   ffdb                                                                                                               
001e72   0e07     MOVLW     0x7                                                                                             
001e74   c01a     MOVFF     0x1a,0xfdb                                                                                      
001e76   ffdb                                                                                                               
001e78   0e04     MOVLW     0x4            	long temp3=temp2/127L;                                                          C:\Hannibal Code1.1\user_routines.c
001e7a   cfdb     MOVFF     0xfdb,0x1b                                                                                      
001e7c   f01b                                                                                                               
001e7e   0e05     MOVLW     0x5                                                                                             
001e80   cfdb     MOVFF     0xfdb,0x1c                                                                                      
001e82   f01c                                                                                                               
001e84   0e06     MOVLW     0x6                                                                                             
001e86   cfdb     MOVFF     0xfdb,0x1d                                                                                      
001e88   f01d                                                                                                               
001e8a   0e07     MOVLW     0x7                                                                                             
001e8c   cfdb     MOVFF     0xfdb,0x1e                                                                                      
001e8e   f01e                                                                                                               
001e90   0e7f     MOVLW     0x7f                                                                                            
001e92   6e20     MOVWF     0x20,0x0                                                                                        
001e94   6a21     CLRF      0x21,0x0                                                                                        
001e96   6a22     CLRF      0x22,0x0                                                                                        
001e98   6a23     CLRF      0x23,0x0                                                                                        
001e9a   ec82     CALL      0x2f04,0x0                                                                                      
001e9c   f017                                                                                                               
001e9e   0e08     MOVLW     0x8                                                                                             
001ea0   c01b     MOVFF     0x1b,0xfdb                                                                                      
001ea2   ffdb                                                                                                               
001ea4   0e09     MOVLW     0x9                                                                                             
001ea6   c01c     MOVFF     0x1c,0xfdb                                                                                      
001ea8   ffdb                                                                                                               
001eaa   0e0a     MOVLW     0xa                                                                                             
001eac   c01d     MOVFF     0x1d,0xfdb                                                                                      
001eae   ffdb                                                                                                               
001eb0   0e0b     MOVLW     0xb                                                                                             
001eb2   c01e     MOVFF     0x1e,0xfdb                                                                                      
001eb4   ffdb                                                                                                               
001eb6   0e7f     MOVLW     0x7f           	unsigned int temp4=255-((unsigned int)(temp3+127L));                            C:\Hannibal Code1.1\user_routines.c
001eb8   6e2d     MOVWF     0x2d,0x0                                                                                        
001eba   6a2e     CLRF      0x2e,0x0                                                                                        
001ebc   6a2f     CLRF      0x2f,0x0                                                                                        
001ebe   6a30     CLRF      0x30,0x0                                                                                        
001ec0   50d9     MOVF      0xd9,0x0,0x0                                                                                    
001ec2   0f08     ADDLW     0x8                                                                                             
001ec4   6ee9     MOVWF     0xe9,0x0                                                                                        
001ec6   cfda     MOVFF     0xfda,0xfea                                                                                     
001ec8   ffea                                                                                                               
001eca   50ee     MOVF      0xee,0x0,0x0                                                                                    
001ecc   262d     ADDWF     0x2d,0x1,0x0                                                                                    
001ece   50ee     MOVF      0xee,0x0,0x0                                                                                    
001ed0   222e     ADDWFC    0x2e,0x1,0x0                                                                                    
001ed2   50ee     MOVF      0xee,0x0,0x0                                                                                    
001ed4   222f     ADDWFC    0x2f,0x1,0x0                                                                                    
001ed6   50ee     MOVF      0xee,0x0,0x0                                                                                    
001ed8   2230     ADDWFC    0x30,0x1,0x0                                                                                    
001eda   c02d     MOVFF     0x2d,0x2b                                                                                       
001edc   f02b                                                                                                               
001ede   c02e     MOVFF     0x2e,0x2c                                                                                       
001ee0   f02c                                                                                                               
001ee2   0eff     MOVLW     0xff                                                                                            
001ee4   80d8     BSF       0xd8,0x0,0x0                                                                                    
001ee6   562b     SUBFWB    0x2b,0x1,0x0                                                                                    
001ee8   0e00     MOVLW     0x0                                                                                             
001eea   562c     SUBFWB    0x2c,0x1,0x0                                                                                    
001eec   0e0c     MOVLW     0xc                                                                                             
001eee   c02b     MOVFF     0x2b,0xfdb                                                                                      
001ef0   ffdb                                                                                                               
001ef2   0e0d     MOVLW     0xd                                                                                             
001ef4   c02c     MOVFF     0x2c,0xfdb                                                                                      
001ef6   ffdb                                                                                                               
001ef8   0efd     MOVLW     0xfd           	if(x<127) temp4=255-temp4;                                                      C:\Hannibal Code1.1\user_routines.c
001efa   cfdb     MOVFF     0xfdb,0x2b                                                                                      
001efc   f02b                                                                                                               
001efe   0efe     MOVLW     0xfe                                                                                            
001f00   cfdb     MOVFF     0xfdb,0x2c                                                                                      
001f02   f02c                                                                                                               
001f04   0e7f     MOVLW     0x7f                                                                                            
001f06   5c2b     SUBWF     0x2b,0x0,0x0                                                                                    
001f08   0e00     MOVLW     0x0                                                                                             
001f0a   582c     SUBWFB    0x2c,0x0,0x0                                                                                    
001f0c   e211     BC        0x1f30                                                                                          
001f0e   0e0c     MOVLW     0xc                                                                                             
001f10   cfdb     MOVFF     0xfdb,0x2b                                                                                      
001f12   f02b                                                                                                               
001f14   0e0d     MOVLW     0xd                                                                                             
001f16   cfdb     MOVFF     0xfdb,0x2c                                                                                      
001f18   f02c                                                                                                               
001f1a   0eff     MOVLW     0xff                                                                                            
001f1c   80d8     BSF       0xd8,0x0,0x0                                                                                    
001f1e   562b     SUBFWB    0x2b,0x1,0x0                                                                                    
001f20   0e00     MOVLW     0x0                                                                                             
001f22   562c     SUBFWB    0x2c,0x1,0x0                                                                                    
001f24   0e0c     MOVLW     0xc                                                                                             
001f26   c02b     MOVFF     0x2b,0xfdb                                                                                      
001f28   ffdb                                                                                                               
001f2a   0e0d     MOVLW     0xd                                                                                             
001f2c   c02c     MOVFF     0x2c,0xfdb                                                                                      
001f2e   ffdb                                                                                                               
001f30   0e0c     MOVLW     0xc            	return(temp4);                                                                  C:\Hannibal Code1.1\user_routines.c
001f32   cfdb     MOVFF     0xfdb,0x2b                                                                                      
001f34   f02b                                                                                                               
001f36   0e0d     MOVLW     0xd                                                                                             
001f38   cfdb     MOVFF     0xfdb,0x2c                                                                                      
001f3a   f02c                                                                                                               
001f3c   c02b     MOVFF     0x2b,0xff3                                                                                      
001f3e   fff3                                                                                                               
001f40   c02c     MOVFF     0x2c,0xff4                                                                                      
001f42   fff4                                                                                                               
001f44   d000     BRA       0x1f46                                                                                          
001f46   cfd9     MOVFF     0xfd9,0xfe1    }                                                                                C:\Hannibal Code1.1\user_routines.c
001f48   ffe1                                                                                                               
001f4a   52e5     MOVF      0xe5,0x1,0x0                                                                                    
001f4c   cfe7     MOVFF     0xfe7,0xfd9                                                                                     
001f4e   ffd9                                                                                                               
001f50   0012     RETURN    0x0                                                                                             
                                           //------------------------------------------------------------------------------- C:\Hannibal Code1.1\user_routines.c
                                           /******************************************************************************* C:\Hannibal Code1.1\user_routines.c
                                           * FUNCTION NAME: motorModifier                                                   C:\Hannibal Code1.1\user_routines.c
                                           * PURPOSE:       This is a modifier for the given motor speed to make the stick  C:\Hannibal Code1.1\user_routines.c
                                           *				 or less sensitive as desired                                               C:\Hannibal Code1.1\user_routines.c
                                           * CALLED FROM:   this file                                                       C:\Hannibal Code1.1\user_routines.c
                                           * ARGUMENTS:                                                                     C:\Hannibal Code1.1\user_routines.c
                                           *     Argument				Type    		IO	Description                                       C:\Hannibal Code1.1\user_routines.c
                                           *     --------				-----------		--	-----------                                    C:\Hannibal Code1.1\user_routines.c
                                           *     unModified			unsiged char	I	---	                                           C:\Hannibal Code1.1\user_routines.c
                                           * RETURNS:       void                                                            C:\Hannibal Code1.1\user_routines.c
                                           *******************************************************************************/ C:\Hannibal Code1.1\user_routines.c
001f52   cfd9     MOVFF     0xfd9,0xfe6    unsigned char motorModifier(unsigned char unModified)                            C:\Hannibal Code1.1\user_routines.c
001f54   ffe6                                                                                                               
001f56   cfe1     MOVFF     0xfe1,0xfd9                                                                                     
001f58   ffd9                                                                                                               
                                           {                                                                                C:\Hannibal Code1.1\user_routines.c
001f5a   0efe     MOVLW     0xfe           	return(unModified);												//linear                                         C:\Hannibal Code1.1\user_routines.c
001f5c   50db     MOVF      0xdb,0x0,0x0                                                                                    
001f5e   d000     BRA       0x1f60                                                                                          
                                           	                                                                                C:\Hannibal Code1.1\user_routines.c
                                           	/*long temp1=unModified-127L;                                                   C:\Hannibal Code1.1\user_routines.c
                                           	long temp2=temp1*temp1;                                                         C:\Hannibal Code1.1\user_routines.c
                                           	long temp3=temp2/127L;                                                          C:\Hannibal Code1.1\user_routines.c
                                           	unsigned char temp4=255-((unsigned char)(temp3+127L));                          C:\Hannibal Code1.1\user_routines.c
                                           	if(unModified<127) temp4=255-temp4;                                             C:\Hannibal Code1.1\user_routines.c
                                           	//return(temp4);*/                                                              C:\Hannibal Code1.1\user_routines.c
                                                                                                                            C:\Hannibal Code1.1\user_routines.c
                                           	/*long temp1=unModified-127L;//(int)(((float)unModified-127.0)*((float)unModified-127.0)*((float)unModified-127.0))/16129L; C:\Hannibal Code1.1\user_routines.c
                                           	long temp2=temp1*temp1*temp1;                                                   C:\Hannibal Code1.1\user_routines.c
                                           	long temp3=temp2/16129L;                                                        C:\Hannibal Code1.1\user_routines.c
                                           	//return(255-((unsigned char) (temp3+127L)));	//cubic*/                         C:\Hannibal Code1.1\user_routines.c
001f60   52e5     MOVF      0xe5,0x1,0x0   }                                                                                C:\Hannibal Code1.1\user_routines.c
001f62   cfe7     MOVFF     0xfe7,0xfd9                                                                                     
001f64   ffd9                                                                                                               
001f66   0012     RETURN    0x0                                                                                             
                                           //---------------------------------------------------------------------------------- C:\Hannibal Code1.1\user_routines.c
                                           /*void diffLimit(unsigned char* motorL,unsigned char* motorR)                    C:\Hannibal Code1.1\user_routines.c
                                           {                                                                                C:\Hannibal Code1.1\user_routines.c
                                           	switch(*motorL>*motorR)                                                         C:\Hannibal Code1.1\user_routines.c
                                           	{                                                                               C:\Hannibal Code1.1\user_routines.c
                                           		case 0: if(*motorR-*motorL>MAXDIFF)                                            C:\Hannibal Code1.1\user_routines.c
                                           				{                                                                            C:\Hannibal Code1.1\user_routines.c
                                           					if(*motorR>=127 && *motorL+MAXDIFF<127)                                     C:\Hannibal Code1.1\user_routines.c
                                           					{                                                                           C:\Hannibal Code1.1\user_routines.c
                                           						*motorR=*motorR-MAXDIFF/2;                                                 C:\Hannibal Code1.1\user_routines.c
                                           						*motorL=*motorL+MAXDIFF/2;                                                 C:\Hannibal Code1.1\user_routines.c
                                           					}                                                                           C:\Hannibal Code1.1\user_routines.c
                                           					else                                                                        C:\Hannibal Code1.1\user_routines.c
                                           					{                                                                           C:\Hannibal Code1.1\user_routines.c
                                           						*motorR=*motorL+MAXDIFF;                                                   C:\Hannibal Code1.1\user_routines.c
                                           					}                                                                           C:\Hannibal Code1.1\user_routines.c
                                           				}                                                                            C:\Hannibal Code1.1\user_routines.c
                                           				break;                                                                       C:\Hannibal Code1.1\user_routines.c
                                           		case 1:                                                                        C:\Hannibal Code1.1\user_routines.c
                                           				if(*motorL-*motorR>MAXDIFF)                                                  C:\Hannibal Code1.1\user_routines.c
                                           				{                                                                            C:\Hannibal Code1.1\user_routines.c
                                           					if(*motorL>=127 && *motorR+MAXDIFF<127)                                     C:\Hannibal Code1.1\user_routines.c
                                           					{                                                                           C:\Hannibal Code1.1\user_routines.c
                                           						*motorL=*motorL-MAXDIFF/2;                                                 C:\Hannibal Code1.1\user_routines.c
                                           						*motorR=*motorR+MAXDIFF/2;                                                 C:\Hannibal Code1.1\user_routines.c
                                           					}                                                                           C:\Hannibal Code1.1\user_routines.c
                                           					else                                                                        C:\Hannibal Code1.1\user_routines.c
                                           					{                                                                           C:\Hannibal Code1.1\user_routines.c
                                           						*motorL=*motorR+MAXDIFF;                                                   C:\Hannibal Code1.1\user_routines.c
                                           					}                                                                           C:\Hannibal Code1.1\user_routines.c
                                           				}                                                                            C:\Hannibal Code1.1\user_routines.c
                                           				break;                                                                       C:\Hannibal Code1.1\user_routines.c
                                           	}                                                                               C:\Hannibal Code1.1\user_routines.c
                                           }*/                                                                              C:\Hannibal Code1.1\user_routines.c
                                           /*void diffLimit(unsigned char* motorL,unsigned char* motorR)                    C:\Hannibal Code1.1\user_routines.c
                                           {                                                                                C:\Hannibal Code1.1\user_routines.c
                                           	unsigned char distL=*motorL;                                                    C:\Hannibal Code1.1\user_routines.c
                                           	unsigned char distR=*motorR;                                                    C:\Hannibal Code1.1\user_routines.c
                                                                                                                            C:\Hannibal Code1.1\user_routines.c
                                           	if(distL<127) distL=255-distL;                                                  C:\Hannibal Code1.1\user_routines.c
                                           	if(distR<127) distR=255-distR;                                                  C:\Hannibal Code1.1\user_routines.c
                                                                                                                            C:\Hannibal Code1.1\user_routines.c
                                           	distL=distL-127;                                                                C:\Hannibal Code1.1\user_routines.c
                                           	distR=distR-127;                                                                C:\Hannibal Code1.1\user_routines.c
                                                                                                                            C:\Hannibal Code1.1\user_routines.c
                                           	switch(distL>distR)                                                             C:\Hannibal Code1.1\user_routines.c
                                           	{                                                                               C:\Hannibal Code1.1\user_routines.c
                                           		case 0: if(distR-distL>MAXDIFF)                                                C:\Hannibal Code1.1\user_routines.c
                                           				{                                                                            C:\Hannibal Code1.1\user_routines.c
                                           					if(*motorR<127) *motorR=255-*motorR;                                        C:\Hannibal Code1.1\user_routines.c
                                           					*motorR=MAXDIFF+distL;                                                      C:\Hannibal Code1.1\user_routines.c
                                           				}                                                                            C:\Hannibal Code1.1\user_routines.c
                                           				break;                                                                       C:\Hannibal Code1.1\user_routines.c
                                           		case 1:                                                                        C:\Hannibal Code1.1\user_routines.c
                                           					if(distL-distR>MAXDIFF)                                                     C:\Hannibal Code1.1\user_routines.c
                                           					{                                                                           C:\Hannibal Code1.1\user_routines.c
                                           						if(*motorL<127) *motorL=255-*motorL;                                       C:\Hannibal Code1.1\user_routines.c
                                           						*motorL=MAXDIFF+distR;                                                     C:\Hannibal Code1.1\user_routines.c
                                           					}                                                                           C:\Hannibal Code1.1\user_routines.c
                                           				break;                                                                       C:\Hannibal Code1.1\user_routines.c
                                           	}                                                                               C:\Hannibal Code1.1\user_routines.c
                                           }*/                                                                              C:\Hannibal Code1.1\user_routines.c
                                           //---------------------------------------------------------------------------------- C:\Hannibal Code1.1\user_routines.c
                                           /*char *ulong2s(unsigned long x, char *buf)                                      C:\Hannibal Code1.1\user_routines.c
                                           {                                                                                C:\Hannibal Code1.1\user_routines.c
                                               int j = 31;                                                                  C:\Hannibal Code1.1\user_routines.c
                                               int k;                                                                       C:\Hannibal Code1.1\user_routines.c
                                                                                                                            C:\Hannibal Code1.1\user_routines.c
                                               buf[j--] = '\0';                                                             C:\Hannibal Code1.1\user_routines.c
                                           if (x != 0L) printf("true\n"); else printf("false\n");                           C:\Hannibal Code1.1\user_routines.c
                                               while((x!=0L) && (j>0))                                                      C:\Hannibal Code1.1\user_routines.c
                                               {                                                                            C:\Hannibal Code1.1\user_routines.c
                                                   k = x % 10;                                                              C:\Hannibal Code1.1\user_routines.c
                                                   buf[j] = '0' + k;                                                        C:\Hannibal Code1.1\user_routines.c
                                           printf("%s\n",buf[j]);                                                           C:\Hannibal Code1.1\user_routines.c
                                                   j--;                                                                     C:\Hannibal Code1.1\user_routines.c
                                                   x = x / 10;                                                              C:\Hannibal Code1.1\user_routines.c
                                               }                                                                            C:\Hannibal Code1.1\user_routines.c
                                               return &buf[j+1];                                                            C:\Hannibal Code1.1\user_routines.c
                                           }*/                                                                              C:\Hannibal Code1.1\user_routines.c
                                                                                                                            C:\Hannibal Code1.1\user_routines.c
                                           /*void longprint(long x){                                                        C:\Hannibal Code1.1\user_routines.c
                                           	int a,b,c,d,e,f,g,h,i,j;                                                        C:\Hannibal Code1.1\user_routines.c
                                                                                                                            C:\Hannibal Code1.1\user_routines.c
                                           	if(x < 0L){                                                                     C:\Hannibal Code1.1\user_routines.c
                                           		x*=-1L;                                                                        C:\Hannibal Code1.1\user_routines.c
                                           		printf("-");                                                                   C:\Hannibal Code1.1\user_routines.c
                                           	}                                                                               C:\Hannibal Code1.1\user_routines.c
                                           	a=(int)((float)x / 1000000000.0);                                               C:\Hannibal Code1.1\user_routines.c
                                           	x-=(long)a*1000000000L;                                                         C:\Hannibal Code1.1\user_routines.c
                                           	b=(int)((float)x / 100000000.0);                                                C:\Hannibal Code1.1\user_routines.c
                                           	x-=(long)b*100000000L;                                                          C:\Hannibal Code1.1\user_routines.c
                                           	c=(int)((float)x / 10000000.0);                                                 C:\Hannibal Code1.1\user_routines.c
                                           	x-=(long)c*10000000L;                                                           C:\Hannibal Code1.1\user_routines.c
                                           	d=(int)((float)x / 1000000.0);                                                  C:\Hannibal Code1.1\user_routines.c
                                           	x-=(long)d*1000000L;                                                            C:\Hannibal Code1.1\user_routines.c
                                           	e=(int)((float)x / 100000.0);                                                   C:\Hannibal Code1.1\user_routines.c
                                           	x-=(long)e*100000L;                                                             C:\Hannibal Code1.1\user_routines.c
                                           	f=(int)((float)x / 10000.0);                                                    C:\Hannibal Code1.1\user_routines.c
                                           	x-=(long)f*10000L;                                                              C:\Hannibal Code1.1\user_routines.c
                                           	g=(int)((float)x / 1000.0);                                                     C:\Hannibal Code1.1\user_routines.c
                                           	x-=(long)g*1000L;                                                               C:\Hannibal Code1.1\user_routines.c
                                           	h=(int)((float)x / 100.0);                                                      C:\Hannibal Code1.1\user_routines.c
                                           	x-=(long)h*100L;                                                                C:\Hannibal Code1.1\user_routines.c
                                           	i=(int)((float)x / 10.0);                                                       C:\Hannibal Code1.1\user_routines.c
                                           	x-=(long)i*10L;                                                                 C:\Hannibal Code1.1\user_routines.c
                                           	j=(int)x;                                                                       C:\Hannibal Code1.1\user_routines.c
                                                                                                                            C:\Hannibal Code1.1\user_routines.c
                                           	printf("%d%d%d%d%d%d%d%d%d%d\n",a,b,c,d,e,f,g,h,i,j);                           C:\Hannibal Code1.1\user_routines.c
                                           }*/                                                                              C:\Hannibal Code1.1\user_routines.c
                                           //----------------------------------------------------------------------------------- C:\Hannibal Code1.1\user_routines.c
                                           void relayControl(void)                                                          C:\Hannibal Code1.1\user_routines.c
                                           {                                                                                C:\Hannibal Code1.1\user_routines.c
                                           //-----------Compressor Code--------------                                       C:\Hannibal Code1.1\user_routines.c
001f68   b481     BTFSC     0x81,0x2,0x0   	if(!rc_dig_in01)                                                                C:\Hannibal Code1.1\user_routines.c
001f6a   d003     BRA       0x1f72                                                                                          
                                           	{                                                                               C:\Hannibal Code1.1\user_routines.c
001f6c   8a8c     BSF       0x8c,0x5,0x0   		relay6_fwd=1;                                                                  C:\Hannibal Code1.1\user_routines.c
001f6e   9a8d     BCF       0x8d,0x5,0x0   		relay6_rev=0;	                                                                 C:\Hannibal Code1.1\user_routines.c
                                           	}                                                                               C:\Hannibal Code1.1\user_routines.c
001f70   d002     BRA       0x1f76         	else                                                                            C:\Hannibal Code1.1\user_routines.c
                                           	{                                                                               C:\Hannibal Code1.1\user_routines.c
001f72   9a8c     BCF       0x8c,0x5,0x0   		relay6_fwd=0;                                                                  C:\Hannibal Code1.1\user_routines.c
001f74   9a8d     BCF       0x8d,0x5,0x0   		relay6_rev=0;                                                                  C:\Hannibal Code1.1\user_routines.c
                                           	}                                                                               C:\Hannibal Code1.1\user_routines.c
001f76   0101     MOVLB     0x1            	if(debug_cycle)printf("dig1: %d",(int)rc_dig_in01);                             C:\Hannibal Code1.1\user_routines.c
001f78   5108     MOVF      0x8,0x0,0x1                                                                                     
001f7a   e010     BZ        0x1f9c                                                                                          
001f7c   5081     MOVF      0x81,0x0,0x0                                                                                    
001f7e   0b04     ANDLW     0x4                                                                                             
001f80   e001     BZ        0x1f84                                                                                          
001f82   0e01     MOVLW     0x1                                                                                             
001f84   6ee6     MOVWF     0xe6,0x0                                                                                        
001f86   6ae6     CLRF      0xe6,0x0                                                                                        
001f88   0ea1     MOVLW     0xa1                                                                                            
001f8a   6ee6     MOVWF     0xe6,0x0                                                                                        
001f8c   0e40     MOVLW     0x40                                                                                            
001f8e   6ee6     MOVWF     0xe6,0x0                                                                                        
001f90   ec35     CALL      0x146a,0x0                                                                                      
001f92   f00a                                                                                                               
001f94   52e5     MOVF      0xe5,0x1,0x0                                                                                    
001f96   52e5     MOVF      0xe5,0x1,0x0                                                                                    
001f98   52e5     MOVF      0xe5,0x1,0x0                                                                                    
001f9a   52e5     MOVF      0xe5,0x1,0x0                                                                                    
                                           //-----------Button Handler---------------                                       C:\Hannibal Code1.1\user_routines.c
001f9c   0107     MOVLB     0x7            	if(p1_sw_trig)                                                                  C:\Hannibal Code1.1\user_routines.c
001f9e   a17a     BTFSS     0x7a,0x0,0x1                                                                                    
001fa0   d010     BRA       0x1fc2                                                                                          
                                           	{                                                                               C:\Hannibal Code1.1\user_routines.c
                                           		//printf("P1 Trig\n");                                                         C:\Hannibal Code1.1\user_routines.c
001fa2   0e02     MOVLW     0x2            		if(casterToggle<2)                                                             C:\Hannibal Code1.1\user_routines.c
001fa4   0101     MOVLB     0x1                                                                                             
001fa6   5d03     SUBWF     0x3,0x0,0x1                                                                                     
001fa8   e20b     BC        0x1fc0                                                                                          
                                           		{                                                                              C:\Hannibal Code1.1\user_routines.c
001faa   5103     MOVF      0x3,0x0,0x1    			if(!casterToggle)                                                             C:\Hannibal Code1.1\user_routines.c
001fac   e105     BNZ       0x1fb8                                                                                          
                                           			{                                                                             C:\Hannibal Code1.1\user_routines.c
001fae   868c     BSF       0x8c,0x3,0x0   				relay4_fwd=1;                                                                C:\Hannibal Code1.1\user_routines.c
001fb0   968d     BCF       0x8d,0x3,0x0   				relay4_rev=0;                                                                C:\Hannibal Code1.1\user_routines.c
001fb2   0e03     MOVLW     0x3            				casterToggle=3;                                                              C:\Hannibal Code1.1\user_routines.c
001fb4   6f03     MOVWF     0x3,0x1                                                                                         
                                           			}                                                                             C:\Hannibal Code1.1\user_routines.c
001fb6   d004     BRA       0x1fc0         			else                                                                          C:\Hannibal Code1.1\user_routines.c
                                           			{                                                                             C:\Hannibal Code1.1\user_routines.c
001fb8   968c     BCF       0x8c,0x3,0x0   				relay4_fwd=0;                                                                C:\Hannibal Code1.1\user_routines.c
001fba   868d     BSF       0x8d,0x3,0x0   				relay4_rev=1;                                                                C:\Hannibal Code1.1\user_routines.c
001fbc   0e02     MOVLW     0x2            				casterToggle=2;                                                              C:\Hannibal Code1.1\user_routines.c
001fbe   6f03     MOVWF     0x3,0x1                                                                                         
                                           			}                                                                             C:\Hannibal Code1.1\user_routines.c
                                           		}                                                                              C:\Hannibal Code1.1\user_routines.c
                                           		                                                                               C:\Hannibal Code1.1\user_routines.c
                                           	}                                                                               C:\Hannibal Code1.1\user_routines.c
001fc0   d007     BRA       0x1fd0         	else                                                                            C:\Hannibal Code1.1\user_routines.c
                                           	{                                                                               C:\Hannibal Code1.1\user_routines.c
001fc2   0101     MOVLB     0x1            		if(casterToggle>1)casterToggle=casterToggle-2;                                 C:\Hannibal Code1.1\user_routines.c
001fc4   5103     MOVF      0x3,0x0,0x1                                                                                     
001fc6   0801     SUBLW     0x1                                                                                             
001fc8   e203     BC        0x1fd0                                                                                          
001fca   0e02     MOVLW     0x2                                                                                             
001fcc   5d03     SUBWF     0x3,0x0,0x1                                                                                     
001fce   6f03     MOVWF     0x3,0x1                                                                                         
                                           	}                                                                               C:\Hannibal Code1.1\user_routines.c
                                           	                                                                                C:\Hannibal Code1.1\user_routines.c
001fd0   0107     MOVLB     0x7            	if(p1_sw_top)                                                                   C:\Hannibal Code1.1\user_routines.c
001fd2   a37a     BTFSS     0x7a,0x1,0x1                                                                                    
001fd4   d000     BRA       0x1fd6                                                                                          
                                           	{                                                                               C:\Hannibal Code1.1\user_routines.c
                                           		//printf("P1 Top\n");                                                          C:\Hannibal Code1.1\user_routines.c
                                           	}                                                                               C:\Hannibal Code1.1\user_routines.c
                                                                                                                            C:\Hannibal Code1.1\user_routines.c
001fd6   a57a     BTFSS     0x7a,0x2,0x1   	if(p1_sw_aux1)                                                                  C:\Hannibal Code1.1\user_routines.c
001fd8   d000     BRA       0x1fda                                                                                          
                                           	{                                                                               C:\Hannibal Code1.1\user_routines.c
                                           		//printf("P1 Aux1\n");                                                         C:\Hannibal Code1.1\user_routines.c
                                           	}                                                                               C:\Hannibal Code1.1\user_routines.c
                                                                                                                            C:\Hannibal Code1.1\user_routines.c
001fda   a77a     BTFSS     0x7a,0x3,0x1   	if(p1_sw_aux2)                                                                  C:\Hannibal Code1.1\user_routines.c
001fdc   d000     BRA       0x1fde                                                                                          
                                           	{                                                                               C:\Hannibal Code1.1\user_routines.c
                                           		//printf("P1 Aux2\n");                                                         C:\Hannibal Code1.1\user_routines.c
                                           	}                                                                               C:\Hannibal Code1.1\user_routines.c
                                           /*                                                                               C:\Hannibal Code1.1\user_routines.c
                                           	HATCommand Reference                                                            C:\Hannibal Code1.1\user_routines.c
                                           	0-Center                                                                        C:\Hannibal Code1.1\user_routines.c
                                           	1-Top                                                                           C:\Hannibal Code1.1\user_routines.c
                                           	2-Right                                                                         C:\Hannibal Code1.1\user_routines.c
                                           	3-Down-Right                                                                    C:\Hannibal Code1.1\user_routines.c
                                           	4-Down                                                                          C:\Hannibal Code1.1\user_routines.c
                                           	5-Down-Left                                                                     C:\Hannibal Code1.1\user_routines.c
                                           	6-Left                                                                          C:\Hannibal Code1.1\user_routines.c
                                           */                                                                               C:\Hannibal Code1.1\user_routines.c
001fde   5186     MOVF      0x86,0x0,0x1   	if(p1_wheel>40 && p1_wheel<50)		//HAT Center                                    C:\Hannibal Code1.1\user_routines.c
001fe0   0828     SUBLW     0x28                                                                                            
001fe2   e205     BC        0x1fee                                                                                          
001fe4   0e32     MOVLW     0x32                                                                                            
001fe6   5d86     SUBWF     0x86,0x0,0x1                                                                                    
001fe8   e202     BC        0x1fee                                                                                          
                                           	{                                                                               C:\Hannibal Code1.1\user_routines.c
001fea   0101     MOVLB     0x1            		HATCommand=0;                                                                  C:\Hannibal Code1.1\user_routines.c
001fec   6b02     CLRF      0x2,0x1                                                                                         
                                           	}                                                                               C:\Hannibal Code1.1\user_routines.c
                                           	                                                                                C:\Hannibal Code1.1\user_routines.c
001fee   0107     MOVLB     0x7            	if(p1_wheel>250 && p1_wheel<260)		//HAT Top Row                                 C:\Hannibal Code1.1\user_routines.c
001ff0   5186     MOVF      0x86,0x0,0x1                                                                                    
001ff2   6e2b     MOVWF     0x2b,0x0                                                                                        
001ff4   6a2c     CLRF      0x2c,0x0                                                                                        
001ff6   502c     MOVF      0x2c,0x0,0x0                                                                                    
001ff8   0a00     XORLW     0x0                                                                                             
001ffa   aee8     BTFSS     0xe8,0x7,0x0                                                                                    
001ffc   d002     BRA       0x2002                                                                                          
001ffe   342c     RLCF      0x2c,0x0,0x0                                                                                    
002000   d005     BRA       0x200c                                                                                          
002002   0efa     MOVLW     0xfa                                                                                            
002004   80d8     BSF       0xd8,0x0,0x0                                                                                    
002006   542b     SUBFWB    0x2b,0x0,0x0                                                                                    
002008   0e00     MOVLW     0x0                                                                                             
00200a   542c     SUBFWB    0x2c,0x0,0x0                                                                                    
00200c   e217     BC        0x203c                                                                                          
00200e   5186     MOVF      0x86,0x0,0x1                                                                                    
002010   6e2d     MOVWF     0x2d,0x0                                                                                        
002012   6a2e     CLRF      0x2e,0x0                                                                                        
002014   502e     MOVF      0x2e,0x0,0x0                                                                                    
002016   0a01     XORLW     0x1                                                                                             
002018   aee8     BTFSS     0xe8,0x7,0x0                                                                                    
00201a   d002     BRA       0x2020                                                                                          
00201c   90d8     BCF       0xd8,0x0,0x0                                                                                    
00201e   d004     BRA       0x2028                                                                                          
002020   0e04     MOVLW     0x4                                                                                             
002022   5c2d     SUBWF     0x2d,0x0,0x0                                                                                    
002024   0e01     MOVLW     0x1                                                                                             
002026   582e     SUBWFB    0x2e,0x0,0x0                                                                                    
002028   e209     BC        0x203c                                                                                          
                                           	{                                                                               C:\Hannibal Code1.1\user_routines.c
00202a   0101     MOVLB     0x1            		if(HATCommand!=1)                                                              C:\Hannibal Code1.1\user_routines.c
00202c   0502     DECF      0x2,0x0,0x1                                                                                     
00202e   e004     BZ        0x2038                                                                                          
                                           		{                                                                              C:\Hannibal Code1.1\user_routines.c
                                           			//printf("P1 HAT Top\n");                                                     C:\Hannibal Code1.1\user_routines.c
002030   828c     BSF       0x8c,0x1,0x0   			relay2_fwd=1;                                                                 C:\Hannibal Code1.1\user_routines.c
002032   928d     BCF       0x8d,0x1,0x0   			relay2_rev=0;                                                                 C:\Hannibal Code1.1\user_routines.c
002034   848c     BSF       0x8c,0x2,0x0   			relay3_fwd=1;                                                                 C:\Hannibal Code1.1\user_routines.c
002036   948d     BCF       0x8d,0x2,0x0   			relay3_rev=0;                                                                 C:\Hannibal Code1.1\user_routines.c
                                           		}                                                                              C:\Hannibal Code1.1\user_routines.c
002038   0e01     MOVLW     0x1            		HATCommand=1;                                                                  C:\Hannibal Code1.1\user_routines.c
00203a   6f02     MOVWF     0x2,0x1                                                                                         
                                           	}                                                                               C:\Hannibal Code1.1\user_routines.c
                                           	                                                                                C:\Hannibal Code1.1\user_routines.c
00203c   0107     MOVLB     0x7            	if(p1_wheel>90 && p1_wheel<100)		//HAT Left                                     C:\Hannibal Code1.1\user_routines.c
00203e   5186     MOVF      0x86,0x0,0x1                                                                                    
002040   085a     SUBLW     0x5a                                                                                            
002042   e210     BC        0x2064                                                                                          
002044   0e64     MOVLW     0x64                                                                                            
002046   5d86     SUBWF     0x86,0x0,0x1                                                                                    
002048   e20d     BC        0x2064                                                                                          
                                           	{                                                                               C:\Hannibal Code1.1\user_routines.c
00204a   0e06     MOVLW     0x6            		if(HATCommand!=6)                                                              C:\Hannibal Code1.1\user_routines.c
00204c   0101     MOVLB     0x1                                                                                             
00204e   5d02     SUBWF     0x2,0x0,0x1                                                                                     
002050   e007     BZ        0x2060                                                                                          
                                           		{                                                                              C:\Hannibal Code1.1\user_routines.c
                                           			//printf("P1 HAT Left\n");                                                    C:\Hannibal Code1.1\user_routines.c
002052   b28c     BTFSC     0x8c,0x1,0x0   			if(relay2_fwd==0)                                                             C:\Hannibal Code1.1\user_routines.c
002054   d003     BRA       0x205c                                                                                          
                                           			{                                                                             C:\Hannibal Code1.1\user_routines.c
002056   828c     BSF       0x8c,0x1,0x0   				relay2_fwd=1;                                                                C:\Hannibal Code1.1\user_routines.c
002058   928d     BCF       0x8d,0x1,0x0   				relay2_rev=0;                                                                C:\Hannibal Code1.1\user_routines.c
                                           			}	                                                                            C:\Hannibal Code1.1\user_routines.c
00205a   d002     BRA       0x2060         			else                                                                          C:\Hannibal Code1.1\user_routines.c
                                           			{                                                                             C:\Hannibal Code1.1\user_routines.c
00205c   928c     BCF       0x8c,0x1,0x0   				relay2_fwd=0;                                                                C:\Hannibal Code1.1\user_routines.c
00205e   828d     BSF       0x8d,0x1,0x0   				relay2_rev=1;                                                                C:\Hannibal Code1.1\user_routines.c
                                           			}                                                                             C:\Hannibal Code1.1\user_routines.c
                                           		}                                                                              C:\Hannibal Code1.1\user_routines.c
002060   0e06     MOVLW     0x6            		HATCommand=6;                                                                  C:\Hannibal Code1.1\user_routines.c
002062   6f02     MOVWF     0x2,0x1                                                                                         
                                           	}                                                                               C:\Hannibal Code1.1\user_routines.c
                                           	                                                                                C:\Hannibal Code1.1\user_routines.c
002064   0107     MOVLB     0x7            	if(p1_wheel>190 && p1_wheel<209)		//HAT Right                                   C:\Hannibal Code1.1\user_routines.c
002066   5186     MOVF      0x86,0x0,0x1                                                                                    
002068   6e2b     MOVWF     0x2b,0x0                                                                                        
00206a   6a2c     CLRF      0x2c,0x0                                                                                        
00206c   502c     MOVF      0x2c,0x0,0x0                                                                                    
00206e   0a00     XORLW     0x0                                                                                             
002070   aee8     BTFSS     0xe8,0x7,0x0                                                                                    
002072   d002     BRA       0x2078                                                                                          
002074   342c     RLCF      0x2c,0x0,0x0                                                                                    
002076   d005     BRA       0x2082                                                                                          
002078   0ebe     MOVLW     0xbe                                                                                            
00207a   80d8     BSF       0xd8,0x0,0x0                                                                                    
00207c   542b     SUBFWB    0x2b,0x0,0x0                                                                                    
00207e   0e00     MOVLW     0x0                                                                                             
002080   542c     SUBFWB    0x2c,0x0,0x0                                                                                    
002082   e21b     BC        0x20ba                                                                                          
002084   5186     MOVF      0x86,0x0,0x1                                                                                    
002086   6e2d     MOVWF     0x2d,0x0                                                                                        
002088   6a2e     CLRF      0x2e,0x0                                                                                        
00208a   502e     MOVF      0x2e,0x0,0x0                                                                                    
00208c   0a00     XORLW     0x0                                                                                             
00208e   aee8     BTFSS     0xe8,0x7,0x0                                                                                    
002090   d002     BRA       0x2096                                                                                          
002092   90d8     BCF       0xd8,0x0,0x0                                                                                    
002094   d004     BRA       0x209e                                                                                          
002096   0ed1     MOVLW     0xd1                                                                                            
002098   5c2d     SUBWF     0x2d,0x0,0x0                                                                                    
00209a   0e00     MOVLW     0x0                                                                                             
00209c   582e     SUBWFB    0x2e,0x0,0x0                                                                                    
00209e   e20d     BC        0x20ba                                                                                          
                                           	{                                                                               C:\Hannibal Code1.1\user_routines.c
0020a0   0e02     MOVLW     0x2            		if(HATCommand!=2)                                                              C:\Hannibal Code1.1\user_routines.c
0020a2   0101     MOVLB     0x1                                                                                             
0020a4   5d02     SUBWF     0x2,0x0,0x1                                                                                     
0020a6   e007     BZ        0x20b6                                                                                          
                                           		{                                                                              C:\Hannibal Code1.1\user_routines.c
                                           			//printf("P1 HAT Right\n");                                                   C:\Hannibal Code1.1\user_routines.c
0020a8   b48c     BTFSC     0x8c,0x2,0x0   			if(relay3_fwd==0)                                                             C:\Hannibal Code1.1\user_routines.c
0020aa   d003     BRA       0x20b2                                                                                          
                                           			{                                                                             C:\Hannibal Code1.1\user_routines.c
0020ac   848c     BSF       0x8c,0x2,0x0   				relay3_fwd=1;                                                                C:\Hannibal Code1.1\user_routines.c
0020ae   948d     BCF       0x8d,0x2,0x0   				relay3_rev=0;                                                                C:\Hannibal Code1.1\user_routines.c
                                           			}                                                                             C:\Hannibal Code1.1\user_routines.c
0020b0   d002     BRA       0x20b6         			else                                                                          C:\Hannibal Code1.1\user_routines.c
                                           			{                                                                             C:\Hannibal Code1.1\user_routines.c
0020b2   948c     BCF       0x8c,0x2,0x0   				relay3_fwd=0;                                                                C:\Hannibal Code1.1\user_routines.c
0020b4   948d     BCF       0x8d,0x2,0x0   				relay3_rev=0;                                                                C:\Hannibal Code1.1\user_routines.c
                                           			}                                                                             C:\Hannibal Code1.1\user_routines.c
                                           		}                                                                              C:\Hannibal Code1.1\user_routines.c
0020b6   0e02     MOVLW     0x2            		HATCommand=2;                                                                  C:\Hannibal Code1.1\user_routines.c
0020b8   6f02     MOVWF     0x2,0x1                                                                                         
                                           	}                                                                               C:\Hannibal Code1.1\user_routines.c
                                           	                                                                                C:\Hannibal Code1.1\user_routines.c
0020ba   0107     MOVLB     0x7            	if(p1_wheel>140 && p1_wheel<160)		//HAT Down                                    C:\Hannibal Code1.1\user_routines.c
0020bc   5186     MOVF      0x86,0x0,0x1                                                                                    
0020be   6e2b     MOVWF     0x2b,0x0                                                                                        
0020c0   6a2c     CLRF      0x2c,0x0                                                                                        
0020c2   502c     MOVF      0x2c,0x0,0x0                                                                                    
0020c4   0a00     XORLW     0x0                                                                                             
0020c6   aee8     BTFSS     0xe8,0x7,0x0                                                                                    
0020c8   d002     BRA       0x20ce                                                                                          
0020ca   342c     RLCF      0x2c,0x0,0x0                                                                                    
0020cc   d005     BRA       0x20d8                                                                                          
0020ce   0e8c     MOVLW     0x8c                                                                                            
0020d0   80d8     BSF       0xd8,0x0,0x0                                                                                    
0020d2   542b     SUBFWB    0x2b,0x0,0x0                                                                                    
0020d4   0e00     MOVLW     0x0                                                                                             
0020d6   542c     SUBFWB    0x2c,0x0,0x0                                                                                    
0020d8   e218     BC        0x210a                                                                                          
0020da   5186     MOVF      0x86,0x0,0x1                                                                                    
0020dc   6e2d     MOVWF     0x2d,0x0                                                                                        
0020de   6a2e     CLRF      0x2e,0x0                                                                                        
0020e0   502e     MOVF      0x2e,0x0,0x0                                                                                    
0020e2   0a00     XORLW     0x0                                                                                             
0020e4   aee8     BTFSS     0xe8,0x7,0x0                                                                                    
0020e6   d002     BRA       0x20ec                                                                                          
0020e8   90d8     BCF       0xd8,0x0,0x0                                                                                    
0020ea   d004     BRA       0x20f4                                                                                          
0020ec   0ea0     MOVLW     0xa0                                                                                            
0020ee   5c2d     SUBWF     0x2d,0x0,0x0                                                                                    
0020f0   0e00     MOVLW     0x0                                                                                             
0020f2   582e     SUBWFB    0x2e,0x0,0x0                                                                                    
0020f4   e20a     BC        0x210a                                                                                          
                                           	{	                                                                              C:\Hannibal Code1.1\user_routines.c
0020f6   0e04     MOVLW     0x4            		if(HATCommand!=4)                                                              C:\Hannibal Code1.1\user_routines.c
0020f8   0101     MOVLB     0x1                                                                                             
0020fa   5d02     SUBWF     0x2,0x0,0x1                                                                                     
0020fc   e004     BZ        0x2106                                                                                          
                                           		{                                                                              C:\Hannibal Code1.1\user_routines.c
                                           			//printf("P1 HAT Down\n");                                                    C:\Hannibal Code1.1\user_routines.c
0020fe   928c     BCF       0x8c,0x1,0x0   			relay2_fwd=0;                                                                 C:\Hannibal Code1.1\user_routines.c
002100   828d     BSF       0x8d,0x1,0x0   			relay2_rev=1;                                                                 C:\Hannibal Code1.1\user_routines.c
002102   948c     BCF       0x8c,0x2,0x0   			relay3_fwd=0;                                                                 C:\Hannibal Code1.1\user_routines.c
002104   948d     BCF       0x8d,0x2,0x0   			relay3_rev=0;                                                                 C:\Hannibal Code1.1\user_routines.c
                                           		}                                                                              C:\Hannibal Code1.1\user_routines.c
002106   0e04     MOVLW     0x4            		HATCommand=4;                                                                  C:\Hannibal Code1.1\user_routines.c
002108   6f02     MOVWF     0x2,0x1                                                                                         
                                           	}                                                                               C:\Hannibal Code1.1\user_routines.c
                                           	                                                                                C:\Hannibal Code1.1\user_routines.c
00210a   0107     MOVLB     0x7            	if(p1_wheel>160 && p1_wheel<170)		//HAT Down-Left                               C:\Hannibal Code1.1\user_routines.c
00210c   5186     MOVF      0x86,0x0,0x1                                                                                    
00210e   6e2b     MOVWF     0x2b,0x0                                                                                        
002110   6a2c     CLRF      0x2c,0x0                                                                                        
002112   502c     MOVF      0x2c,0x0,0x0                                                                                    
002114   0a00     XORLW     0x0                                                                                             
002116   aee8     BTFSS     0xe8,0x7,0x0                                                                                    
002118   d002     BRA       0x211e                                                                                          
00211a   342c     RLCF      0x2c,0x0,0x0                                                                                    
00211c   d005     BRA       0x2128                                                                                          
00211e   0ea0     MOVLW     0xa0                                                                                            
002120   80d8     BSF       0xd8,0x0,0x0                                                                                    
002122   542b     SUBFWB    0x2b,0x0,0x0                                                                                    
002124   0e00     MOVLW     0x0                                                                                             
002126   542c     SUBFWB    0x2c,0x0,0x0                                                                                    
002128   e214     BC        0x2152                                                                                          
00212a   5186     MOVF      0x86,0x0,0x1                                                                                    
00212c   6e2d     MOVWF     0x2d,0x0                                                                                        
00212e   6a2e     CLRF      0x2e,0x0                                                                                        
002130   502e     MOVF      0x2e,0x0,0x0                                                                                    
002132   0a00     XORLW     0x0                                                                                             
002134   aee8     BTFSS     0xe8,0x7,0x0                                                                                    
002136   d002     BRA       0x213c                                                                                          
002138   90d8     BCF       0xd8,0x0,0x0                                                                                    
00213a   d004     BRA       0x2144                                                                                          
00213c   0eaa     MOVLW     0xaa                                                                                            
00213e   5c2d     SUBWF     0x2d,0x0,0x0                                                                                    
002140   0e00     MOVLW     0x0                                                                                             
002142   582e     SUBWFB    0x2e,0x0,0x0                                                                                    
002144   e206     BC        0x2152                                                                                          
                                           	{                                                                               C:\Hannibal Code1.1\user_routines.c
002146   0e05     MOVLW     0x5            		if(HATCommand!=5)                                                              C:\Hannibal Code1.1\user_routines.c
002148   0101     MOVLB     0x1                                                                                             
00214a   5d02     SUBWF     0x2,0x0,0x1                                                                                     
00214c   e000     BZ        0x214e                                                                                          
                                           		{                                                                              C:\Hannibal Code1.1\user_routines.c
                                           			//printf("P1 HAT Down-Left\n");                                               C:\Hannibal Code1.1\user_routines.c
                                           		}                                                                              C:\Hannibal Code1.1\user_routines.c
00214e   0e05     MOVLW     0x5            		HATCommand=5;                                                                  C:\Hannibal Code1.1\user_routines.c
002150   6f02     MOVWF     0x2,0x1                                                                                         
                                           	}                                                                               C:\Hannibal Code1.1\user_routines.c
                                           	                                                                                C:\Hannibal Code1.1\user_routines.c
002152   0107     MOVLB     0x7            	if(p1_wheel>210 && p1_wheel<215)		//HAT Down-Right                              C:\Hannibal Code1.1\user_routines.c
002154   5186     MOVF      0x86,0x0,0x1                                                                                    
002156   6e2b     MOVWF     0x2b,0x0                                                                                        
002158   6a2c     CLRF      0x2c,0x0                                                                                        
00215a   502c     MOVF      0x2c,0x0,0x0                                                                                    
00215c   0a00     XORLW     0x0                                                                                             
00215e   aee8     BTFSS     0xe8,0x7,0x0                                                                                    
002160   d002     BRA       0x2166                                                                                          
002162   342c     RLCF      0x2c,0x0,0x0                                                                                    
002164   d005     BRA       0x2170                                                                                          
002166   0ed2     MOVLW     0xd2                                                                                            
002168   80d8     BSF       0xd8,0x0,0x0                                                                                    
00216a   542b     SUBFWB    0x2b,0x0,0x0                                                                                    
00216c   0e00     MOVLW     0x0                                                                                             
00216e   542c     SUBFWB    0x2c,0x0,0x0                                                                                    
002170   e214     BC        0x219a                                                                                          
002172   5186     MOVF      0x86,0x0,0x1                                                                                    
002174   6e2d     MOVWF     0x2d,0x0                                                                                        
002176   6a2e     CLRF      0x2e,0x0                                                                                        
002178   502e     MOVF      0x2e,0x0,0x0                                                                                    
00217a   0a00     XORLW     0x0                                                                                             
00217c   aee8     BTFSS     0xe8,0x7,0x0                                                                                    
00217e   d002     BRA       0x2184                                                                                          
002180   90d8     BCF       0xd8,0x0,0x0                                                                                    
002182   d004     BRA       0x218c                                                                                          
002184   0ed7     MOVLW     0xd7                                                                                            
002186   5c2d     SUBWF     0x2d,0x0,0x0                                                                                    
002188   0e00     MOVLW     0x0                                                                                             
00218a   582e     SUBWFB    0x2e,0x0,0x0                                                                                    
00218c   e206     BC        0x219a                                                                                          
                                           	{                                                                               C:\Hannibal Code1.1\user_routines.c
00218e   0e03     MOVLW     0x3            		if(HATCommand!=3)                                                              C:\Hannibal Code1.1\user_routines.c
002190   0101     MOVLB     0x1                                                                                             
002192   5d02     SUBWF     0x2,0x0,0x1                                                                                     
002194   e000     BZ        0x2196                                                                                          
                                           		{                                                                              C:\Hannibal Code1.1\user_routines.c
                                           			//printf("P1 HAT Down-Right\n");                                              C:\Hannibal Code1.1\user_routines.c
                                           		}                                                                              C:\Hannibal Code1.1\user_routines.c
002196   0e03     MOVLW     0x3            		HATCommand=3;                                                                  C:\Hannibal Code1.1\user_routines.c
002198   6f02     MOVWF     0x2,0x1                                                                                         
                                           	}                                                                               C:\Hannibal Code1.1\user_routines.c
                                                                                                                            C:\Hannibal Code1.1\user_routines.c
00219a   0107     MOVLB     0x7            	if(p2_x>140)                                                                    C:\Hannibal Code1.1\user_routines.c
00219c   5183     MOVF      0x83,0x0,0x1                                                                                    
00219e   6e2b     MOVWF     0x2b,0x0                                                                                        
0021a0   6a2c     CLRF      0x2c,0x0                                                                                        
0021a2   502c     MOVF      0x2c,0x0,0x0                                                                                    
0021a4   0a00     XORLW     0x0                                                                                             
0021a6   aee8     BTFSS     0xe8,0x7,0x0                                                                                    
0021a8   d002     BRA       0x21ae                                                                                          
0021aa   342c     RLCF      0x2c,0x0,0x0                                                                                    
0021ac   d005     BRA       0x21b8                                                                                          
0021ae   0e8c     MOVLW     0x8c                                                                                            
0021b0   80d8     BSF       0xd8,0x0,0x0                                                                                    
0021b2   542b     SUBFWB    0x2b,0x0,0x0                                                                                    
0021b4   0e00     MOVLW     0x0                                                                                             
0021b6   542c     SUBFWB    0x2c,0x0,0x0                                                                                    
0021b8   e203     BC        0x21c0                                                                                          
                                           	{                                                                               C:\Hannibal Code1.1\user_routines.c
                                           		//printf("P2 X\n");                                                            C:\Hannibal Code1.1\user_routines.c
0021ba   908c     BCF       0x8c,0x0,0x0   		relay1_fwd=0;                                                                  C:\Hannibal Code1.1\user_routines.c
0021bc   908d     BCF       0x8d,0x0,0x0   		relay1_rev=0;                                                                  C:\Hannibal Code1.1\user_routines.c
                                           	}                                                                               C:\Hannibal Code1.1\user_routines.c
0021be   d002     BRA       0x21c4         	else                                                                            C:\Hannibal Code1.1\user_routines.c
                                           	{                                                                               C:\Hannibal Code1.1\user_routines.c
0021c0   808c     BSF       0x8c,0x0,0x0   		relay1_fwd=1;                                                                  C:\Hannibal Code1.1\user_routines.c
0021c2   908d     BCF       0x8d,0x0,0x0   		relay1_rev=0;                                                                  C:\Hannibal Code1.1\user_routines.c
                                           	}                                                                               C:\Hannibal Code1.1\user_routines.c
                                           	                                                                                C:\Hannibal Code1.1\user_routines.c
0021c4   517f     MOVF      0x7f,0x0,0x1   	if(p2_y>140)                                                                    C:\Hannibal Code1.1\user_routines.c
0021c6   6e2b     MOVWF     0x2b,0x0                                                                                        
0021c8   6a2c     CLRF      0x2c,0x0                                                                                        
0021ca   502c     MOVF      0x2c,0x0,0x0                                                                                    
0021cc   0a00     XORLW     0x0                                                                                             
0021ce   aee8     BTFSS     0xe8,0x7,0x0                                                                                    
0021d0   d002     BRA       0x21d6                                                                                          
0021d2   342c     RLCF      0x2c,0x0,0x0                                                                                    
0021d4   d005     BRA       0x21e0                                                                                          
0021d6   0e8c     MOVLW     0x8c                                                                                            
0021d8   80d8     BSF       0xd8,0x0,0x0                                                                                    
0021da   542b     SUBFWB    0x2b,0x0,0x0                                                                                    
0021dc   0e00     MOVLW     0x0                                                                                             
0021de   542c     SUBFWB    0x2c,0x0,0x0                                                                                    
0021e0   e200     BC        0x21e2                                                                                          
                                           	{                                                                               C:\Hannibal Code1.1\user_routines.c
                                           		//printf("P2 Y\n");                                                            C:\Hannibal Code1.1\user_routines.c
                                           	}                                                                               C:\Hannibal Code1.1\user_routines.c
                                                                                                                            C:\Hannibal Code1.1\user_routines.c
0021e2   5187     MOVF      0x87,0x0,0x1   	if(p2_wheel>140)                                                                C:\Hannibal Code1.1\user_routines.c
0021e4   6e2b     MOVWF     0x2b,0x0                                                                                        
0021e6   6a2c     CLRF      0x2c,0x0                                                                                        
0021e8   502c     MOVF      0x2c,0x0,0x0                                                                                    
0021ea   0a00     XORLW     0x0                                                                                             
0021ec   aee8     BTFSS     0xe8,0x7,0x0                                                                                    
0021ee   d002     BRA       0x21f4                                                                                          
0021f0   342c     RLCF      0x2c,0x0,0x0                                                                                    
0021f2   d005     BRA       0x21fe                                                                                          
0021f4   0e8c     MOVLW     0x8c                                                                                            
0021f6   80d8     BSF       0xd8,0x0,0x0                                                                                    
0021f8   542b     SUBFWB    0x2b,0x0,0x0                                                                                    
0021fa   0e00     MOVLW     0x0                                                                                             
0021fc   542c     SUBFWB    0x2c,0x0,0x0                                                                                    
0021fe   e203     BC        0x2206                                                                                          
                                           	{                                                                               C:\Hannibal Code1.1\user_routines.c
                                           		//printf("P2 Wheel\n");                                                        C:\Hannibal Code1.1\user_routines.c
002200   888c     BSF       0x8c,0x4,0x0   		relay5_fwd=1;                                                                  C:\Hannibal Code1.1\user_routines.c
002202   988d     BCF       0x8d,0x4,0x0   		relay5_rev=0;                                                                  C:\Hannibal Code1.1\user_routines.c
                                           	}                                                                               C:\Hannibal Code1.1\user_routines.c
002204   d002     BRA       0x220a         	else                                                                            C:\Hannibal Code1.1\user_routines.c
                                           	{                                                                               C:\Hannibal Code1.1\user_routines.c
002206   988c     BCF       0x8c,0x4,0x0   		relay5_fwd=0;                                                                  C:\Hannibal Code1.1\user_routines.c
002208   988d     BCF       0x8d,0x4,0x0   		relay5_rev=0;                                                                  C:\Hannibal Code1.1\user_routines.c
                                           	}                                                                               C:\Hannibal Code1.1\user_routines.c
                                           	                                                                                C:\Hannibal Code1.1\user_routines.c
00220a   518b     MOVF      0x8b,0x0,0x1   	if(p2_aux>140)                                                                  C:\Hannibal Code1.1\user_routines.c
00220c   6e2b     MOVWF     0x2b,0x0                                                                                        
00220e   6a2c     CLRF      0x2c,0x0                                                                                        
002210   502c     MOVF      0x2c,0x0,0x0                                                                                    
002212   0a00     XORLW     0x0                                                                                             
002214   aee8     BTFSS     0xe8,0x7,0x0                                                                                    
002216   d002     BRA       0x221c                                                                                          
002218   342c     RLCF      0x2c,0x0,0x0                                                                                    
00221a   d005     BRA       0x2226                                                                                          
00221c   0e8c     MOVLW     0x8c                                                                                            
00221e   80d8     BSF       0xd8,0x0,0x0                                                                                    
002220   542b     SUBFWB    0x2b,0x0,0x0                                                                                    
002222   0e00     MOVLW     0x0                                                                                             
002224   542c     SUBFWB    0x2c,0x0,0x0                                                                                    
002226   e200     BC        0x2228                                                                                          
                                           	{                                                                               C:\Hannibal Code1.1\user_routines.c
                                           		//printf("P2 Aux\n");                                                          C:\Hannibal Code1.1\user_routines.c
                                           	}                                                                               C:\Hannibal Code1.1\user_routines.c
                                                                                                                            C:\Hannibal Code1.1\user_routines.c
002228   a17b     BTFSS     0x7b,0x0,0x1   	if(p2_sw_trig)                                                                  C:\Hannibal Code1.1\user_routines.c
00222a   d000     BRA       0x222c                                                                                          
                                           	{                                                                               C:\Hannibal Code1.1\user_routines.c
                                           		//printf("P2 Trig\n");                                                         C:\Hannibal Code1.1\user_routines.c
                                           	}                                                                               C:\Hannibal Code1.1\user_routines.c
                                           	                                                                                C:\Hannibal Code1.1\user_routines.c
00222c   a37b     BTFSS     0x7b,0x1,0x1   	if(p2_sw_top)                                                                   C:\Hannibal Code1.1\user_routines.c
00222e   d025     BRA       0x227a                                                                                          
                                           	{                                                                               C:\Hannibal Code1.1\user_routines.c
                                           		//printf("P2 Top\n");                                                          C:\Hannibal Code1.1\user_routines.c
002230   b77b     BTFSC     0x7b,0x3,0x1   		if(!p2_sw_aux2)                                                                C:\Hannibal Code1.1\user_routines.c
002232   d01f     BRA       0x2272                                                                                          
                                           		{                                                                              C:\Hannibal Code1.1\user_routines.c
002234   808c     BSF       0x8c,0x0,0x0   			relay1_fwd=1;                                                                 C:\Hannibal Code1.1\user_routines.c
002236   908d     BCF       0x8d,0x0,0x0   			relay1_rev=0;                                                                 C:\Hannibal Code1.1\user_routines.c
002238   0107     MOVLB     0x7            			pwm01=0;                                                                      C:\Hannibal Code1.1\user_routines.c
00223a   6b5c     CLRF      0x5c,0x1                                                                                        
00223c   0101     MOVLB     0x1            			if(debug_cycle) printf("Current: %d",(int)Get_Analog_Value(rc_ana_in02));     C:\Hannibal Code1.1\user_routines.c
00223e   5108     MOVF      0x8,0x0,0x1                                                                                     
002240   e017     BZ        0x2270                                                                                          
002242   0e8f     MOVLW     0x8f                                                                                            
002244   6ee6     MOVWF     0xe6,0x0                                                                                        
002246   ecac     CALL      0x3d58,0x0                                                                                      
002248   f01e                                                                                                               
00224a   52e5     MOVF      0xe5,0x1,0x0                                                                                    
00224c   cff3     MOVFF     0xff3,0x2b                                                                                      
00224e   f02b                                                                                                               
002250   cff4     MOVFF     0xff4,0x2c                                                                                      
002252   f02c                                                                                                               
002254   c02b     MOVFF     0x2b,0xfe6                                                                                      
002256   ffe6                                                                                                               
002258   c02c     MOVFF     0x2c,0xfe6                                                                                      
00225a   ffe6                                                                                                               
00225c   0e95     MOVLW     0x95                                                                                            
00225e   6ee6     MOVWF     0xe6,0x0                                                                                        
002260   0e40     MOVLW     0x40                                                                                            
002262   6ee6     MOVWF     0xe6,0x0                                                                                        
002264   ec35     CALL      0x146a,0x0                                                                                      
002266   f00a                                                                                                               
002268   52e5     MOVF      0xe5,0x1,0x0                                                                                    
00226a   52e5     MOVF      0xe5,0x1,0x0                                                                                    
00226c   52e5     MOVF      0xe5,0x1,0x0                                                                                    
00226e   52e5     MOVF      0xe5,0x1,0x0                                                                                    
                                           		}                                                                              C:\Hannibal Code1.1\user_routines.c
002270   d003     BRA       0x2278         		else                                                                           C:\Hannibal Code1.1\user_routines.c
                                           		{                                                                              C:\Hannibal Code1.1\user_routines.c
002272   0107     MOVLB     0x7            			pwm01=127;                                                                    C:\Hannibal Code1.1\user_routines.c
002274   0e7f     MOVLW     0x7f                                                                                            
002276   6f5c     MOVWF     0x5c,0x1                                                                                        
                                           		}                                                                              C:\Hannibal Code1.1\user_routines.c
                                           	}                                                                               C:\Hannibal Code1.1\user_routines.c
002278   d005     BRA       0x2284         	else                                                                            C:\Hannibal Code1.1\user_routines.c
                                           	{                                                                               C:\Hannibal Code1.1\user_routines.c
00227a   b77b     BTFSC     0x7b,0x3,0x1   		if(!p2_sw_aux2)                                                                C:\Hannibal Code1.1\user_routines.c
00227c   d003     BRA       0x2284                                                                                          
                                           		{                                                                              C:\Hannibal Code1.1\user_routines.c
00227e   0107     MOVLB     0x7            			pwm01=127;                                                                    C:\Hannibal Code1.1\user_routines.c
002280   0e7f     MOVLW     0x7f                                                                                            
002282   6f5c     MOVWF     0x5c,0x1                                                                                        
                                           		}                                                                              C:\Hannibal Code1.1\user_routines.c
                                           	}                                                                               C:\Hannibal Code1.1\user_routines.c
                                                                                                                            C:\Hannibal Code1.1\user_routines.c
002284   0107     MOVLB     0x7            	if(p2_sw_aux1)                                                                  C:\Hannibal Code1.1\user_routines.c
002286   a57b     BTFSS     0x7b,0x2,0x1                                                                                    
002288   d000     BRA       0x228a                                                                                          
                                           	{                                                                               C:\Hannibal Code1.1\user_routines.c
                                           		//printf("P2 Aux1\n");                                                         C:\Hannibal Code1.1\user_routines.c
                                           	}                                                                               C:\Hannibal Code1.1\user_routines.c
                                           	                                                                                C:\Hannibal Code1.1\user_routines.c
00228a   a77b     BTFSS     0x7b,0x3,0x1   	if(p2_sw_aux2)                                                                  C:\Hannibal Code1.1\user_routines.c
00228c   d026     BRA       0x22da                                                                                          
                                           	{                                                                               C:\Hannibal Code1.1\user_routines.c
                                           		//printf("P2 Aux2\n");                                                         C:\Hannibal Code1.1\user_routines.c
00228e   b37b     BTFSC     0x7b,0x1,0x1   		if(!p2_sw_top)                                                                 C:\Hannibal Code1.1\user_routines.c
002290   d020     BRA       0x22d2                                                                                          
                                           		{                                                                              C:\Hannibal Code1.1\user_routines.c
002292   808c     BSF       0x8c,0x0,0x0   			relay1_fwd=1;                                                                 C:\Hannibal Code1.1\user_routines.c
002294   908d     BCF       0x8d,0x0,0x0   			relay1_rev=0;                                                                 C:\Hannibal Code1.1\user_routines.c
002296   0107     MOVLB     0x7            			pwm01=254;                                                                    C:\Hannibal Code1.1\user_routines.c
002298   0efe     MOVLW     0xfe                                                                                            
00229a   6f5c     MOVWF     0x5c,0x1                                                                                        
00229c   0101     MOVLB     0x1            			if(debug_cycle) printf("Current: %d",(int)Get_Analog_Value(rc_ana_in02));     C:\Hannibal Code1.1\user_routines.c
00229e   5108     MOVF      0x8,0x0,0x1                                                                                     
0022a0   e017     BZ        0x22d0                                                                                          
0022a2   0e8f     MOVLW     0x8f                                                                                            
0022a4   6ee6     MOVWF     0xe6,0x0                                                                                        
0022a6   ecac     CALL      0x3d58,0x0                                                                                      
0022a8   f01e                                                                                                               
0022aa   52e5     MOVF      0xe5,0x1,0x0                                                                                    
0022ac   cff3     MOVFF     0xff3,0x2b                                                                                      
0022ae   f02b                                                                                                               
0022b0   cff4     MOVFF     0xff4,0x2c                                                                                      
0022b2   f02c                                                                                                               
0022b4   c02b     MOVFF     0x2b,0xfe6                                                                                      
0022b6   ffe6                                                                                                               
0022b8   c02c     MOVFF     0x2c,0xfe6                                                                                      
0022ba   ffe6                                                                                                               
0022bc   0e95     MOVLW     0x95                                                                                            
0022be   6ee6     MOVWF     0xe6,0x0                                                                                        
0022c0   0e40     MOVLW     0x40                                                                                            
0022c2   6ee6     MOVWF     0xe6,0x0                                                                                        
0022c4   ec35     CALL      0x146a,0x0                                                                                      
0022c6   f00a                                                                                                               
0022c8   52e5     MOVF      0xe5,0x1,0x0                                                                                    
0022ca   52e5     MOVF      0xe5,0x1,0x0                                                                                    
0022cc   52e5     MOVF      0xe5,0x1,0x0                                                                                    
0022ce   52e5     MOVF      0xe5,0x1,0x0                                                                                    
                                           		}                                                                              C:\Hannibal Code1.1\user_routines.c
0022d0   d003     BRA       0x22d8         		else                                                                           C:\Hannibal Code1.1\user_routines.c
                                           		{                                                                              C:\Hannibal Code1.1\user_routines.c
0022d2   0107     MOVLB     0x7            			pwm01=127;                                                                    C:\Hannibal Code1.1\user_routines.c
0022d4   0e7f     MOVLW     0x7f                                                                                            
0022d6   6f5c     MOVWF     0x5c,0x1                                                                                        
                                           		}                                                                              C:\Hannibal Code1.1\user_routines.c
                                           	}                                                                               C:\Hannibal Code1.1\user_routines.c
0022d8   d005     BRA       0x22e4         	else                                                                            C:\Hannibal Code1.1\user_routines.c
                                           	{                                                                               C:\Hannibal Code1.1\user_routines.c
0022da   b37b     BTFSC     0x7b,0x1,0x1   		if(!p2_sw_top)                                                                 C:\Hannibal Code1.1\user_routines.c
0022dc   d003     BRA       0x22e4                                                                                          
                                           		{                                                                              C:\Hannibal Code1.1\user_routines.c
0022de   0107     MOVLB     0x7            			pwm01=127;                                                                    C:\Hannibal Code1.1\user_routines.c
0022e0   0e7f     MOVLW     0x7f                                                                                            
0022e2   6f5c     MOVWF     0x5c,0x1                                                                                        
                                           		}                                                                              C:\Hannibal Code1.1\user_routines.c
                                           	}                                                                               C:\Hannibal Code1.1\user_routines.c
0022e4   0012     RETURN    0x0            }                                                                                C:\Hannibal Code1.1\user_routines.c
                                           //----------------------------------------------------------------------------------- C:\Hannibal Code1.1\user_routines.c
                                           void relayInit(void)                                                             C:\Hannibal Code1.1\user_routines.c
                                           {                                                                                C:\Hannibal Code1.1\user_routines.c
0022e6   808c     BSF       0x8c,0x0,0x0   	relay1_fwd=1;		//Spool Pin                                                      C:\Hannibal Code1.1\user_routines.c
0022e8   908d     BCF       0x8d,0x0,0x0   	relay1_rev=0;                                                                   C:\Hannibal Code1.1\user_routines.c
0022ea   928c     BCF       0x8c,0x1,0x0   	relay2_fwd=0;		//Left Wing                                                      C:\Hannibal Code1.1\user_routines.c
0022ec   828d     BSF       0x8d,0x1,0x0   	relay2_rev=1;                                                                   C:\Hannibal Code1.1\user_routines.c
0022ee   948c     BCF       0x8c,0x2,0x0   	relay3_fwd=0;		//Right Wing                                                     C:\Hannibal Code1.1\user_routines.c
0022f0   948d     BCF       0x8d,0x2,0x0   	relay3_rev=0;                                                                   C:\Hannibal Code1.1\user_routines.c
0022f2   968c     BCF       0x8c,0x3,0x0   	relay4_fwd=0;		//Caster                                                         C:\Hannibal Code1.1\user_routines.c
0022f4   868d     BSF       0x8d,0x3,0x0   	relay4_rev=1;                                                                   C:\Hannibal Code1.1\user_routines.c
0022f6   988c     BCF       0x8c,0x4,0x0   	relay5_fwd=0;		//10pt Knocker                                                   C:\Hannibal Code1.1\user_routines.c
0022f8   988d     BCF       0x8d,0x4,0x0   	relay5_rev=0;                                                                   C:\Hannibal Code1.1\user_routines.c
0022fa   9a8c     BCF       0x8c,0x5,0x0   	relay6_fwd=0;		//Compressor                                                     C:\Hannibal Code1.1\user_routines.c
0022fc   9a8d     BCF       0x8d,0x5,0x0   	relay6_rev=0;                                                                   C:\Hannibal Code1.1\user_routines.c
0022fe   0012     RETURN    0x0            }                                                                                C:\Hannibal Code1.1\user_routines.c
                                           //------------------------------------------------------------------------------------ C:\Hannibal Code1.1\user_routines.c
002300   cfd9     MOVFF     0xfd9,0xfe6    void encoderMod(void)                                                            C:\Hannibal Code1.1\user_routines.c
002302   ffe6                                                                                                               
002304   cfe1     MOVFF     0xfe1,0xfd9                                                                                     
002306   ffd9                                                                                                               
002308   0e06     MOVLW     0x6                                                                                             
00230a   26e1     ADDWF     0xe1,0x1,0x0                                                                                    
                                           {                                                                                C:\Hannibal Code1.1\user_routines.c
00230c   c7e6     MOVFF     0x7e6,0xfde    	unsigned int count=(unsigned int)(Wheel_Clock);                                 C:\Hannibal Code1.1\user_routines.c
00230e   ffde                                                                                                               
002310   c7e7     MOVFF     0x7e7,0xfdd                                                                                     
002312   ffdd                                                                                                               
002314   c7ec     MOVFF     0x7ec,0x22     	unsigned int per_l=count/wheel_l_count;                                         C:\Hannibal Code1.1\user_routines.c
002316   f022                                                                                                               
002318   c7ed     MOVFF     0x7ed,0x23                                                                                      
00231a   f023                                                                                                               
00231c   cfde     MOVFF     0xfde,0x1d                                                                                      
00231e   f01d                                                                                                               
002320   cfdd     MOVFF     0xfdd,0x1e                                                                                      
002322   f01e                                                                                                               
002324   ece4     CALL      0x43c8,0x0                                                                                      
002326   f021                                                                                                               
002328   0e02     MOVLW     0x2                                                                                             
00232a   c01d     MOVFF     0x1d,0xfdb                                                                                      
00232c   ffdb                                                                                                               
00232e   0e03     MOVLW     0x3                                                                                             
002330   c01e     MOVFF     0x1e,0xfdb                                                                                      
002332   ffdb                                                                                                               
002334   c7ea     MOVFF     0x7ea,0x22     	unsigned int per_r=count/wheel_r_count;                                         C:\Hannibal Code1.1\user_routines.c
002336   f022                                                                                                               
002338   c7eb     MOVFF     0x7eb,0x23                                                                                      
00233a   f023                                                                                                               
00233c   cfde     MOVFF     0xfde,0x1d                                                                                      
00233e   f01d                                                                                                               
002340   cfdd     MOVFF     0xfdd,0x1e                                                                                      
002342   f01e                                                                                                               
002344   ece4     CALL      0x43c8,0x0                                                                                      
002346   f021                                                                                                               
002348   0e04     MOVLW     0x4                                                                                             
00234a   c01d     MOVFF     0x1d,0xfdb                                                                                      
00234c   ffdb                                                                                                               
00234e   0e05     MOVLW     0x5                                                                                             
002350   c01e     MOVFF     0x1e,0xfdb                                                                                      
002352   ffdb                                                                                                               
002354   0107     MOVLB     0x7            	Wheel_Clock=0;                                                                  C:\Hannibal Code1.1\user_routines.c
002356   6be6     CLRF      0xe6,0x1                                                                                        
002358   6be7     CLRF      0xe7,0x1                                                                                        
00235a   6be8     CLRF      0xe8,0x1                                                                                        
00235c   6be9     CLRF      0xe9,0x1                                                                                        
00235e   0e00     MOVLW     0x0            	wheel_l_count=wheel_r_count=0;                                                  C:\Hannibal Code1.1\user_routines.c
002360   0107     MOVLB     0x7                                                                                             
002362   6fea     MOVWF     0xea,0x1                                                                                        
002364   6beb     CLRF      0xeb,0x1                                                                                        
002366   0107     MOVLB     0x7                                                                                             
002368   6fec     MOVWF     0xec,0x1                                                                                        
00236a   6bed     CLRF      0xed,0x1                                                                                        
00236c   cfd9     MOVFF     0xfd9,0xfe1    }                                                                                C:\Hannibal Code1.1\user_routines.c
00236e   ffe1                                                                                                               
002370   52e5     MOVF      0xe5,0x1,0x0                                                                                    
002372   cfe7     MOVFF     0xfe7,0xfd9                                                                                     
002374   ffd9                                                                                                               
002376   0012     RETURN    0x0                                                                                             
                                           /******************************************************************************* C:\Hannibal Code1.1\user_routines.c
                                           * FUNCTION NAME: User_Initialization                                             C:\Hannibal Code1.1\user_routines.c
                                           * PURPOSE:       This routine is called first (and only once) in the Main function.   C:\Hannibal Code1.1\user_routines.c
                                           *                You may modify and add to this function.                        C:\Hannibal Code1.1\user_routines.c
                                           * CALLED FROM:   main.c                                                          C:\Hannibal Code1.1\user_routines.c
                                           * ARGUMENTS:     none                                                            C:\Hannibal Code1.1\user_routines.c
                                           * RETURNS:       void                                                            C:\Hannibal Code1.1\user_routines.c
                                           *******************************************************************************/ C:\Hannibal Code1.1\user_routines.c
002378   cfd9     MOVFF     0xfd9,0xfe6    void User_Initialization (void)                                                  C:\Hannibal Code1.1\user_routines.c
00237a   ffe6                                                                                                               
00237c   cfe1     MOVFF     0xfe1,0xfd9                                                                                     
00237e   ffd9                                                                                                               
002380   0e02     MOVLW     0x2                                                                                             
002382   26e1     ADDWF     0xe1,0x1,0x0                                                                                    
                                           {                                                                                C:\Hannibal Code1.1\user_routines.c
002384   0e72     MOVLW     0x72             rom const	char *strptr = "IFI User Processor Initialized ...";                 C:\Hannibal Code1.1\user_routines.c
002386   6ede     MOVWF     0xde,0x0                                                                                        
002388   0e40     MOVLW     0x40                                                                                            
00238a   6edd     MOVWF     0xdd,0x0                                                                                        
                                                                                                                            C:\Hannibal Code1.1\user_routines.c
00238c   0ef0     MOVLW     0xf0             Set_Number_of_Analog_Channels(SIXTEEN_ANALOG);    /* DO NOT CHANGE! */         C:\Hannibal Code1.1\user_routines.c
00238e   6ee6     MOVWF     0xe6,0x0                                                                                        
002390   eca1     CALL      0x3d42,0x0                                                                                      
002392   f01e                                                                                                               
002394   52e5     MOVF      0xe5,0x1,0x0                                                                                    
                                                                                                                            C:\Hannibal Code1.1\user_routines.c
                                           /* FIRST: Set up the I/O pins you want to use as digital INPUTS. */              C:\Hannibal Code1.1\user_routines.c
002396   8a93     BSF       0x93,0x5,0x0     digital_io_01 = digital_io_02 = digital_io_03 = digital_io_04 = INPUT;         C:\Hannibal Code1.1\user_routines.c
002398   8893     BSF       0x93,0x4,0x0                                                                                    
00239a   8693     BSF       0x93,0x3,0x0                                                                                    
00239c   8493     BSF       0x93,0x2,0x0                                                                                    
00239e   8299     BSF       0x99,0x1,0x0     digital_io_05 = digital_io_06 = digital_io_07 = digital_io_08 = INPUT;         C:\Hannibal Code1.1\user_routines.c
0023a0   8099     BSF       0x99,0x0,0x0                                                                                    
0023a2   8e93     BSF       0x93,0x7,0x0                                                                                    
0023a4   8c93     BSF       0x93,0x6,0x0                                                                                    
0023a6   849a     BSF       0x9a,0x2,0x0     digital_io_09 = digital_io_10 = digital_io_11 = digital_io_12 = INPUT;         C:\Hannibal Code1.1\user_routines.c
0023a8   829a     BSF       0x9a,0x1,0x0                                                                                    
0023aa   8699     BSF       0x99,0x3,0x0                                                                                    
0023ac   8499     BSF       0x99,0x2,0x0                                                                                    
0023ae   8a9a     BSF       0x9a,0x5,0x0     digital_io_13 = digital_io_14 = digital_io_15 = digital_io_16 = INPUT;         C:\Hannibal Code1.1\user_routines.c
0023b0   889a     BSF       0x9a,0x4,0x0                                                                                    
0023b2   8094     BSF       0x94,0x0,0x0                                                                                    
0023b4   869a     BSF       0x9a,0x3,0x0                                                                                    
0023b6   8e9a     BSF       0x9a,0x7,0x0     digital_io_18 = INPUT;  /* Used for pneumatic pressure switch. */              C:\Hannibal Code1.1\user_routines.c
                                               /*                                                                           C:\Hannibal Code1.1\user_routines.c
                                                Note: digital_io_01 = digital_io_02 = ... digital_io_04 = INPUT;            C:\Hannibal Code1.1\user_routines.c
                                                      is the same as the following:                                         C:\Hannibal Code1.1\user_routines.c
                                                                                                                            C:\Hannibal Code1.1\user_routines.c
                                                      digital_io_01 = INPUT;                                                C:\Hannibal Code1.1\user_routines.c
                                                      digital_io_02 = INPUT;                                                C:\Hannibal Code1.1\user_routines.c
                                                      ...                                                                   C:\Hannibal Code1.1\user_routines.c
                                                      digital_io_04 = INPUT;                                                C:\Hannibal Code1.1\user_routines.c
                                               */                                                                           C:\Hannibal Code1.1\user_routines.c
                                                                                                                            C:\Hannibal Code1.1\user_routines.c
                                           /* SECOND: Set up the I/O pins you want to use as digital OUTPUTS. */            C:\Hannibal Code1.1\user_routines.c
0023b8   9c9a     BCF       0x9a,0x6,0x0     digital_io_17 = OUTPUT;    /* Example - Not used in Default Code. */           C:\Hannibal Code1.1\user_routines.c
                                                                                                                            C:\Hannibal Code1.1\user_routines.c
                                           /* THIRD: Initialize the values on the digital outputs. */                       C:\Hannibal Code1.1\user_routines.c
0023ba   9c91     BCF       0x91,0x6,0x0     rc_dig_out17 = 0;                                                              C:\Hannibal Code1.1\user_routines.c
                                                                                                                            C:\Hannibal Code1.1\user_routines.c
                                           /* FOURTH: Set your initial PWM values.  Neutral is 127. */                      C:\Hannibal Code1.1\user_routines.c
0023bc   0107     MOVLB     0x7              pwm01 = pwm02 = pwm03 = pwm04 = pwm05 = pwm06 = pwm07 = pwm08 = 127;           C:\Hannibal Code1.1\user_routines.c
0023be   0e7f     MOVLW     0x7f                                                                                            
0023c0   6f63     MOVWF     0x63,0x1                                                                                        
0023c2   c763     MOVFF     0x763,0x762                                                                                     
0023c4   f762                                                                                                               
0023c6   c763     MOVFF     0x763,0x761                                                                                     
0023c8   f761                                                                                                               
0023ca   c763     MOVFF     0x763,0x760                                                                                     
0023cc   f760                                                                                                               
0023ce   c763     MOVFF     0x763,0x75f                                                                                     
0023d0   f75f                                                                                                               
0023d2   c763     MOVFF     0x763,0x75e                                                                                     
0023d4   f75e                                                                                                               
0023d6   c763     MOVFF     0x763,0x75d                                                                                     
0023d8   f75d                                                                                                               
0023da   c763     MOVFF     0x763,0x75c                                                                                     
0023dc   f75c                                                                                                               
0023de   6f6b     MOVWF     0x6b,0x1         pwm09 = pwm10 = pwm11 = pwm12 = pwm13 = pwm14 = pwm15 = pwm16 = 127;           C:\Hannibal Code1.1\user_routines.c
0023e0   c76b     MOVFF     0x76b,0x76a                                                                                     
0023e2   f76a                                                                                                               
0023e4   c76b     MOVFF     0x76b,0x769                                                                                     
0023e6   f769                                                                                                               
0023e8   c76b     MOVFF     0x76b,0x768                                                                                     
0023ea   f768                                                                                                               
0023ec   c76b     MOVFF     0x76b,0x767                                                                                     
0023ee   f767                                                                                                               
0023f0   c76b     MOVFF     0x76b,0x766                                                                                     
0023f2   f766                                                                                                               
0023f4   c76b     MOVFF     0x76b,0x765                                                                                     
0023f6   f765                                                                                                               
0023f8   c76b     MOVFF     0x76b,0x764                                                                                     
0023fa   f764                                                                                                               
                                                                                                                            C:\Hannibal Code1.1\user_routines.c
                                           /* FIFTH: Set your PWM output types for PWM OUTPUTS 13-16.                       C:\Hannibal Code1.1\user_routines.c
                                             /*   Choose from these parameters for PWM 13-16 respectively:               */ C:\Hannibal Code1.1\user_routines.c
                                             /*     IFI_PWM  - Standard IFI PWM output generated with Generate_Pwms(...) */ C:\Hannibal Code1.1\user_routines.c
                                             /*     USER_CCP - User can use PWM pin as digital I/O or CCP pin.           */ C:\Hannibal Code1.1\user_routines.c
0023fc   0e00     MOVLW     0x0              Setup_PWM_Output_Type(IFI_PWM,IFI_PWM,IFI_PWM,IFI_PWM);                        C:\Hannibal Code1.1\user_routines.c
0023fe   6ee6     MOVWF     0xe6,0x0                                                                                        
002400   6ae6     CLRF      0xe6,0x0                                                                                        
002402   6ee6     MOVWF     0xe6,0x0                                                                                        
002404   6ae6     CLRF      0xe6,0x0                                                                                        
002406   6ee6     MOVWF     0xe6,0x0                                                                                        
002408   6ae6     CLRF      0xe6,0x0                                                                                        
00240a   6ee6     MOVWF     0xe6,0x0                                                                                        
00240c   6ae6     CLRF      0xe6,0x0                                                                                        
00240e   ecda     CALL      0x39b4,0x0                                                                                      
002410   f01c                                                                                                               
002412   6ef5     MOVWF     0xf5,0x0                                                                                        
002414   0e08     MOVLW     0x8                                                                                             
002416   5ee1     SUBWF     0xe1,0x1,0x0                                                                                    
002418   50f5     MOVF      0xf5,0x0,0x0                                                                                    
                                                                                                                            C:\Hannibal Code1.1\user_routines.c
                                             /*                                                                             C:\Hannibal Code1.1\user_routines.c
                                                Example: The following would generate a 40KHz PWM with a 50% duty cycle on the CCP2 pin: C:\Hannibal Code1.1\user_routines.c
                                                                                                                            C:\Hannibal Code1.1\user_routines.c
                                                    CCP2CON = 0x3C;                                                         C:\Hannibal Code1.1\user_routines.c
                                                    PR2 = 0xF9;                                                             C:\Hannibal Code1.1\user_routines.c
                                                    CCPR2L = 0x7F;                                                          C:\Hannibal Code1.1\user_routines.c
                                                    T2CON = 0;                                                              C:\Hannibal Code1.1\user_routines.c
                                                    T2CONbits.TMR2ON = 1;                                                   C:\Hannibal Code1.1\user_routines.c
                                                                                                                            C:\Hannibal Code1.1\user_routines.c
                                                    Setup_PWM_Output_Type(USER_CCP,IFI_PWM,IFI_PWM,IFI_PWM);                C:\Hannibal Code1.1\user_routines.c
                                             */                                                                             C:\Hannibal Code1.1\user_routines.c
                                                                                                                            C:\Hannibal Code1.1\user_routines.c
                                             /* Add any other initialization code here. */                                  C:\Hannibal Code1.1\user_routines.c
                                                                                                                            C:\Hannibal Code1.1\user_routines.c
00241a   df65     RCALL     0x22e6           relayInit();                                                                   C:\Hannibal Code1.1\user_routines.c
                                           	                                                                                C:\Hannibal Code1.1\user_routines.c
00241c   ec93     CALL      0x3d26,0x0       Initialize_Serial_Comms();                                                     C:\Hannibal Code1.1\user_routines.c
00241e   f01e                                                                                                               
                                                                                                                            C:\Hannibal Code1.1\user_routines.c
002420   ec91     CALL      0x3f22,0x0       Initialize_Receiver();                                                         C:\Hannibal Code1.1\user_routines.c
002422   f01f                                                                                                               
                                                                                                                            C:\Hannibal Code1.1\user_routines.c
002424   0e58     MOVLW     0x58             Putdata(&txdata);             /* DO NOT CHANGE! */                             C:\Hannibal Code1.1\user_routines.c
002426   6ee6     MOVWF     0xe6,0x0                                                                                        
002428   0e07     MOVLW     0x7                                                                                             
00242a   6ee6     MOVWF     0xe6,0x0                                                                                        
00242c   ec90     CALL      0x3920,0x0                                                                                      
00242e   f01c                                                                                                               
002430   52e5     MOVF      0xe5,0x1,0x0                                                                                    
002432   52e5     MOVF      0xe5,0x1,0x0                                                                                    
                                                                                                                            C:\Hannibal Code1.1\user_routines.c
002434   cfde     MOVFF     0xfde,0xfe6      printf("%s\n", strptr);       /* Optional - Print initialization message. */   C:\Hannibal Code1.1\user_routines.c
002436   ffe6                                                                                                               
002438   cfdd     MOVFF     0xfdd,0xfe6                                                                                     
00243a   ffe6                                                                                                               
00243c   0e6e     MOVLW     0x6e                                                                                            
00243e   6ee6     MOVWF     0xe6,0x0                                                                                        
002440   0e40     MOVLW     0x40                                                                                            
002442   6ee6     MOVWF     0xe6,0x0                                                                                        
002444   ec35     CALL      0x146a,0x0                                                                                      
002446   f00a                                                                                                               
002448   52e5     MOVF      0xe5,0x1,0x0                                                                                    
00244a   52e5     MOVF      0xe5,0x1,0x0                                                                                    
00244c   52e5     MOVF      0xe5,0x1,0x0                                                                                    
00244e   52e5     MOVF      0xe5,0x1,0x0                                                                                    
                                                                                                                            C:\Hannibal Code1.1\user_routines.c
002450   ecf5     CALL      0x37ea,0x0       User_Proc_Is_Ready();         /* DO NOT CHANGE! - last line of User_Initialization */ C:\Hannibal Code1.1\user_routines.c
002452   f01b                                                                                                               
002454   cfd9     MOVFF     0xfd9,0xfe1    }                                                                                C:\Hannibal Code1.1\user_routines.c
002456   ffe1                                                                                                               
002458   52e5     MOVF      0xe5,0x1,0x0                                                                                    
00245a   cfe7     MOVFF     0xfe7,0xfd9                                                                                     
00245c   ffd9                                                                                                               
00245e   0012     RETURN    0x0                                                                                             
                                                                                                                            C:\Hannibal Code1.1\user_routines.c
                                           /******************************************************************************* C:\Hannibal Code1.1\user_routines.c
                                           * FUNCTION NAME: Process_Data_From_Master_uP                                     C:\Hannibal Code1.1\user_routines.c
                                           * PURPOSE:       Executes every 26.2ms when it gets new data from the master     C:\Hannibal Code1.1\user_routines.c
                                           *                microprocessor.                                                 C:\Hannibal Code1.1\user_routines.c
                                           * CALLED FROM:   main.c                                                          C:\Hannibal Code1.1\user_routines.c
                                           * ARGUMENTS:     none                                                            C:\Hannibal Code1.1\user_routines.c
                                           * RETURNS:       void                                                            C:\Hannibal Code1.1\user_routines.c
                                           *******************************************************************************/ C:\Hannibal Code1.1\user_routines.c
                                           void Process_Data_From_Master_uP(void)                                           C:\Hannibal Code1.1\user_routines.c
                                           {                                                                                C:\Hannibal Code1.1\user_routines.c
002460   0e78     MOVLW     0x78             Getdata(&rxdata);   /* Get fresh data from the master microprocessor. */       C:\Hannibal Code1.1\user_routines.c
002462   6ee6     MOVWF     0xe6,0x0                                                                                        
002464   0e07     MOVLW     0x7                                                                                             
002466   6ee6     MOVWF     0xe6,0x0                                                                                        
002468   ec56     CALL      0x38ac,0x0                                                                                      
00246a   f01c                                                                                                               
00246c   52e5     MOVF      0xe5,0x1,0x0                                                                                    
00246e   52e5     MOVF      0xe5,0x1,0x0                                                                                    
002470   0107     MOVLB     0x7              if(!autonomous_mode) Disable_Receiver();                                       C:\Hannibal Code1.1\user_routines.c
002472   bd79     BTFSC     0x79,0x6,0x1                                                                                    
002474   d002     BRA       0x247a                                                                                          
002476   ecad     CALL      0x3f5a,0x0                                                                                      
002478   f01f                                                                                                               
                                                                                                                            C:\Hannibal Code1.1\user_routines.c
00247a   0101     MOVLB     0x1              counter++;                                                                     C:\Hannibal Code1.1\user_routines.c
00247c   2b04     INCF      0x4,0x1,0x1                                                                                     
00247e   0e00     MOVLW     0x0                                                                                             
002480   2305     ADDWFC    0x5,0x1,0x1                                                                                     
002482   2306     ADDWFC    0x6,0x1,0x1                                                                                     
002484   2307     ADDWFC    0x7,0x1,0x1                                                                                     
002486   c104     MOVFF     0x104,0x2b       if ((counter&0xf)==0)                                                          C:\Hannibal Code1.1\user_routines.c
002488   f02b                                                                                                               
00248a   c105     MOVFF     0x105,0x2c                                                                                      
00248c   f02c                                                                                                               
00248e   c106     MOVFF     0x106,0x2d                                                                                      
002490   f02d                                                                                                               
002492   c107     MOVFF     0x107,0x2e                                                                                      
002494   f02e                                                                                                               
002496   0e0f     MOVLW     0xf                                                                                             
002498   162b     ANDWF     0x2b,0x1,0x0                                                                                    
00249a   6a2c     CLRF      0x2c,0x0                                                                                        
00249c   6a2d     CLRF      0x2d,0x0                                                                                        
00249e   6a2e     CLRF      0x2e,0x0                                                                                        
0024a0   502b     MOVF      0x2b,0x0,0x0                                                                                    
0024a2   102c     IORWF     0x2c,0x0,0x0                                                                                    
0024a4   102d     IORWF     0x2d,0x0,0x0                                                                                    
0024a6   102e     IORWF     0x2e,0x0,0x0                                                                                    
0024a8   e10b     BNZ       0x24c0                                                                                          
                                             {                                                                              C:\Hannibal Code1.1\user_routines.c
0024aa   0e01     MOVLW     0x1            	debug_cycle = 1;                                                                C:\Hannibal Code1.1\user_routines.c
0024ac   6f08     MOVWF     0x8,0x1                                                                                         
0024ae   0e60     MOVLW     0x60               printf("\n-----------\n");                                                   C:\Hannibal Code1.1\user_routines.c
0024b0   6ee6     MOVWF     0xe6,0x0                                                                                        
0024b2   0e40     MOVLW     0x40                                                                                            
0024b4   6ee6     MOVWF     0xe6,0x0                                                                                        
0024b6   ec35     CALL      0x146a,0x0                                                                                      
0024b8   f00a                                                                                                               
0024ba   52e5     MOVF      0xe5,0x1,0x0                                                                                    
0024bc   52e5     MOVF      0xe5,0x1,0x0                                                                                    
                                             }                                                                              C:\Hannibal Code1.1\user_routines.c
0024be   d001     BRA       0x24c2           else                                                                           C:\Hannibal Code1.1\user_routines.c
0024c0   6b08     CLRF      0x8,0x1        	debug_cycle = 0;                                                                C:\Hannibal Code1.1\user_routines.c
                                                                                                                            C:\Hannibal Code1.1\user_routines.c
                                             //if(debug_cycle) printf("X: %d  Y: %d\n",(int)p1_x,(int)p1_y);                C:\Hannibal Code1.1\user_routines.c
0024c2   0101     MOVLB     0x1              if(debug_cycle) printf("Dist from front: %d\n",(int)Get_Analog_Value(rc_ana_in01)); C:\Hannibal Code1.1\user_routines.c
0024c4   5108     MOVF      0x8,0x0,0x1                                                                                     
0024c6   e017     BZ        0x24f6                                                                                          
0024c8   0e87     MOVLW     0x87                                                                                            
0024ca   6ee6     MOVWF     0xe6,0x0                                                                                        
0024cc   ecac     CALL      0x3d58,0x0                                                                                      
0024ce   f01e                                                                                                               
0024d0   52e5     MOVF      0xe5,0x1,0x0                                                                                    
0024d2   cff3     MOVFF     0xff3,0x2b                                                                                      
0024d4   f02b                                                                                                               
0024d6   cff4     MOVFF     0xff4,0x2c                                                                                      
0024d8   f02c                                                                                                               
0024da   c02b     MOVFF     0x2b,0xfe6                                                                                      
0024dc   ffe6                                                                                                               
0024de   c02c     MOVFF     0x2c,0xfe6                                                                                      
0024e0   ffe6                                                                                                               
0024e2   0e4b     MOVLW     0x4b                                                                                            
0024e4   6ee6     MOVWF     0xe6,0x0                                                                                        
0024e6   0e40     MOVLW     0x40                                                                                            
0024e8   6ee6     MOVWF     0xe6,0x0                                                                                        
0024ea   ec35     CALL      0x146a,0x0                                                                                      
0024ec   f00a                                                                                                               
0024ee   52e5     MOVF      0xe5,0x1,0x0                                                                                    
0024f0   52e5     MOVF      0xe5,0x1,0x0                                                                                    
0024f2   52e5     MOVF      0xe5,0x1,0x0                                                                                    
0024f4   52e5     MOVF      0xe5,0x1,0x0                                                                                    
                                                                                                                            C:\Hannibal Code1.1\user_routines.c
0024f6   d843     RCALL     0x257e           Default_Routine();  /* Optional.  See below. */                                C:\Hannibal Code1.1\user_routines.c
                                                                                                                            C:\Hannibal Code1.1\user_routines.c
                                           #if 0                                                                            C:\Hannibal Code1.1\user_routines.c
                                           {                                                                                C:\Hannibal Code1.1\user_routines.c
                                             extern unsigned int had_int4;                                                  C:\Hannibal Code1.1\user_routines.c
                                             extern unsigned int had_int5;                                                  C:\Hannibal Code1.1\user_routines.c
                                             if(debug_cycle) printf("had_int4 => %d\n", (int)had_int4);                     C:\Hannibal Code1.1\user_routines.c
                                             if(debug_cycle) printf("had_int5 => %d\n", (int)had_int5);                     C:\Hannibal Code1.1\user_routines.c
                                           }                                                                                C:\Hannibal Code1.1\user_routines.c
                                           #endif                                                                           C:\Hannibal Code1.1\user_routines.c
                                                                                                                            C:\Hannibal Code1.1\user_routines.c
0024f8   dd37     RCALL     0x1f68           relayControl();                                                                C:\Hannibal Code1.1\user_routines.c
                                                                                                                            C:\Hannibal Code1.1\user_routines.c
0024fa   c104     MOVFF     0x104,0x2b       if(counter%3==0 && counter==0)                                                 C:\Hannibal Code1.1\user_routines.c
0024fc   f02b                                                                                                               
0024fe   c105     MOVFF     0x105,0x2c                                                                                      
002500   f02c                                                                                                               
002502   c106     MOVFF     0x106,0x2d                                                                                      
002504   f02d                                                                                                               
002506   c107     MOVFF     0x107,0x2e                                                                                      
002508   f02e                                                                                                               
00250a   0e03     MOVLW     0x3                                                                                             
00250c   6e20     MOVWF     0x20,0x0                                                                                        
00250e   6a21     CLRF      0x21,0x0                                                                                        
002510   6a22     CLRF      0x22,0x0                                                                                        
002512   6a23     CLRF      0x23,0x0                                                                                        
002514   c02b     MOVFF     0x2b,0x1b                                                                                       
002516   f01b                                                                                                               
002518   c02c     MOVFF     0x2c,0x1c                                                                                       
00251a   f01c                                                                                                               
00251c   c02d     MOVFF     0x2d,0x1d                                                                                       
00251e   f01d                                                                                                               
002520   c02e     MOVFF     0x2e,0x1e                                                                                       
002522   f01e                                                                                                               
002524   eca7     CALL      0x434e,0x0                                                                                      
002526   f021                                                                                                               
002528   c017     MOVFF     0x17,0x2b                                                                                       
00252a   f02b                                                                                                               
00252c   c018     MOVFF     0x18,0x2c                                                                                       
00252e   f02c                                                                                                               
002530   c019     MOVFF     0x19,0x2d                                                                                       
002532   f02d                                                                                                               
002534   c01a     MOVFF     0x1a,0x2e                                                                                       
002536   f02e                                                                                                               
002538   502b     MOVF      0x2b,0x0,0x0                                                                                    
00253a   102c     IORWF     0x2c,0x0,0x0                                                                                    
00253c   102d     IORWF     0x2d,0x0,0x0                                                                                    
00253e   102e     IORWF     0x2e,0x0,0x0                                                                                    
002540   e107     BNZ       0x2550                                                                                          
002542   0101     MOVLB     0x1                                                                                             
002544   5104     MOVF      0x4,0x0,0x1                                                                                     
002546   1105     IORWF     0x5,0x0,0x1                                                                                     
002548   1106     IORWF     0x6,0x0,0x1                                                                                     
00254a   1107     IORWF     0x7,0x0,0x1                                                                                     
00254c   e101     BNZ       0x2550                                                                                          
                                             {                                                                              C:\Hannibal Code1.1\user_routines.c
00254e   ded8     RCALL     0x2300              encoderMod();                                                               C:\Hannibal Code1.1\user_routines.c
                                             }                                                                              C:\Hannibal Code1.1\user_routines.c
                                                                                                                            C:\Hannibal Code1.1\user_routines.c
002550   c76b     MOVFF     0x76b,0xfe6      Generate_Pwms(pwm13,pwm14,pwm15,pwm16);                                        C:\Hannibal Code1.1\user_routines.c
002552   ffe6                                                                                                               
002554   c76a     MOVFF     0x76a,0xfe6                                                                                     
002556   ffe6                                                                                                               
002558   c769     MOVFF     0x769,0xfe6                                                                                     
00255a   ffe6                                                                                                               
00255c   c768     MOVFF     0x768,0xfe6                                                                                     
00255e   ffe6                                                                                                               
002560   ec15     CALL      0x3e2a,0x0                                                                                      
002562   f01f                                                                                                               
002564   52e5     MOVF      0xe5,0x1,0x0                                                                                    
002566   52e5     MOVF      0xe5,0x1,0x0                                                                                    
002568   52e5     MOVF      0xe5,0x1,0x0                                                                                    
00256a   52e5     MOVF      0xe5,0x1,0x0                                                                                    
                                                                                                                            C:\Hannibal Code1.1\user_routines.c
00256c   0e58     MOVLW     0x58             Putdata(&txdata);             /* DO NOT CHANGE! */                             C:\Hannibal Code1.1\user_routines.c
00256e   6ee6     MOVWF     0xe6,0x0                                                                                        
002570   0e07     MOVLW     0x7                                                                                             
002572   6ee6     MOVWF     0xe6,0x0                                                                                        
002574   ec90     CALL      0x3920,0x0                                                                                      
002576   f01c                                                                                                               
002578   52e5     MOVF      0xe5,0x1,0x0                                                                                    
00257a   52e5     MOVF      0xe5,0x1,0x0                                                                                    
00257c   0012     RETURN    0x0            }                                                                                C:\Hannibal Code1.1\user_routines.c
                                                                                                                            C:\Hannibal Code1.1\user_routines.c
                                           /******************************************************************************* C:\Hannibal Code1.1\user_routines.c
                                           * FUNCTION NAME: Default_Routine                                                 C:\Hannibal Code1.1\user_routines.c
                                           * PURPOSE:       Performs the default mappings of inputs to outputs for the      C:\Hannibal Code1.1\user_routines.c
                                           *                Robot Controller.                                               C:\Hannibal Code1.1\user_routines.c
                                           * CALLED FROM:   this file, Process_Data_From_Master_uP routine                  C:\Hannibal Code1.1\user_routines.c
                                           * ARGUMENTS:     none                                                            C:\Hannibal Code1.1\user_routines.c
                                           * RETURNS:       void                                                            C:\Hannibal Code1.1\user_routines.c
                                           *******************************************************************************/ C:\Hannibal Code1.1\user_routines.c
                                           void Default_Routine(void)                                                       C:\Hannibal Code1.1\user_routines.c
                                           {                                                                                C:\Hannibal Code1.1\user_routines.c
                                            /*---------- 1 Joystick Drive ----------------------------------------------    C:\Hannibal Code1.1\user_routines.c
                                             *--------------------------------------------------------------------------    C:\Hannibal Code1.1\user_routines.c
                                             *  This code mixes the Y and X axis on Port 1 to allow one joystick drive.     C:\Hannibal Code1.1\user_routines.c
                                             *  Joystick forward  = Robot forward                                           C:\Hannibal Code1.1\user_routines.c
                                             *  Joystick backward = Robot backward                                          C:\Hannibal Code1.1\user_routines.c
                                             *  Joystick right    = Robot rotates right                                     C:\Hannibal Code1.1\user_routines.c
                                             *  Joystick left     = Robot rotates left                                      C:\Hannibal Code1.1\user_routines.c
                                             *  Connect the right drive motors to PWM13 and/or PWM14 on the RC.             C:\Hannibal Code1.1\user_routines.c
                                             *  Connect the left  drive motors to PWM15 and/or PWM16 on the RC.             C:\Hannibal Code1.1\user_routines.c
                                             */                                                                             C:\Hannibal Code1.1\user_routines.c
00257e   0e7e     MOVLW     0x7e              inputModifier(&p1_x,&p1_y);                                                   C:\Hannibal Code1.1\user_routines.c
002580   6ee6     MOVWF     0xe6,0x0                                                                                        
002582   0e07     MOVLW     0x7                                                                                             
002584   6ee6     MOVWF     0xe6,0x0                                                                                        
002586   0e82     MOVLW     0x82                                                                                            
002588   6ee6     MOVWF     0xe6,0x0                                                                                        
00258a   0e07     MOVLW     0x7                                                                                             
00258c   6ee6     MOVWF     0xe6,0x0                                                                                        
00258e   ecea     CALL      0x19d4,0x0                                                                                      
002590   f00c                                                                                                               
002592   52e5     MOVF      0xe5,0x1,0x0                                                                                    
002594   52e5     MOVF      0xe5,0x1,0x0                                                                                    
002596   52e5     MOVF      0xe5,0x1,0x0                                                                                    
002598   52e5     MOVF      0xe5,0x1,0x0                                                                                    
00259a   0101     MOVLB     0x1               if(debug_cycle)printf("Xo: %d	Yo: %d\n",(int)p1_x,(int)p1_y);                 C:\Hannibal Code1.1\user_routines.c
00259c   5108     MOVF      0x8,0x0,0x1                                                                                     
00259e   e011     BZ        0x25c2                                                                                          
0025a0   0107     MOVLB     0x7                                                                                             
0025a2   517e     MOVF      0x7e,0x0,0x1                                                                                    
0025a4   6ee6     MOVWF     0xe6,0x0                                                                                        
0025a6   6ae6     CLRF      0xe6,0x0                                                                                        
0025a8   5182     MOVF      0x82,0x0,0x1                                                                                    
0025aa   6ee6     MOVWF     0xe6,0x0                                                                                        
0025ac   6ae6     CLRF      0xe6,0x0                                                                                        
0025ae   0e3c     MOVLW     0x3c                                                                                            
0025b0   6ee6     MOVWF     0xe6,0x0                                                                                        
0025b2   0e40     MOVLW     0x40                                                                                            
0025b4   6ee6     MOVWF     0xe6,0x0                                                                                        
0025b6   ec35     CALL      0x146a,0x0                                                                                      
0025b8   f00a                                                                                                               
0025ba   6ef5     MOVWF     0xf5,0x0                                                                                        
0025bc   0e06     MOVLW     0x6                                                                                             
0025be   5ee1     SUBWF     0xe1,0x1,0x0                                                                                    
0025c0   50f5     MOVF      0xf5,0x0,0x0                                                                                    
0025c2   0107     MOVLB     0x7               pwm16 = pwm15 = motorModifier(Limit_Mix(2000 + p1_x + p1_y - 127));           C:\Hannibal Code1.1\user_routines.c
0025c4   5182     MOVF      0x82,0x0,0x1                                                                                    
0025c6   6a2e     CLRF      0x2e,0x0                                                                                        
0025c8   0fd0     ADDLW     0xd0                                                                                            
0025ca   6e2d     MOVWF     0x2d,0x0                                                                                        
0025cc   0e07     MOVLW     0x7                                                                                             
0025ce   222e     ADDWFC    0x2e,0x1,0x0                                                                                    
0025d0   517e     MOVF      0x7e,0x0,0x1                                                                                    
0025d2   0100     MOVLB     0x0                                                                                             
0025d4   242d     ADDWF     0x2d,0x0,0x0                                                                                    
0025d6   6f2b     MOVWF     0x2b,0x1                                                                                        
0025d8   0e00     MOVLW     0x0                                                                                             
0025da   202e     ADDWFC    0x2e,0x0,0x0                                                                                    
0025dc   6f2c     MOVWF     0x2c,0x1                                                                                        
0025de   0e7f     MOVLW     0x7f                                                                                            
0025e0   5e2b     SUBWF     0x2b,0x1,0x0                                                                                    
0025e2   0e00     MOVLW     0x0                                                                                             
0025e4   5a2c     SUBWFB    0x2c,0x1,0x0                                                                                    
0025e6   c02b     MOVFF     0x2b,0xfe6                                                                                      
0025e8   ffe6                                                                                                               
0025ea   c02c     MOVFF     0x2c,0xfe6                                                                                      
0025ec   ffe6                                                                                                               
0025ee   eca3     CALL      0x1946,0x0                                                                                      
0025f0   f00c                                                                                                               
0025f2   52e5     MOVF      0xe5,0x1,0x0                                                                                    
0025f4   52e5     MOVF      0xe5,0x1,0x0                                                                                    
0025f6   6ee6     MOVWF     0xe6,0x0                                                                                        
0025f8   dcac     RCALL     0x1f52                                                                                          
0025fa   52e5     MOVF      0xe5,0x1,0x0                                                                                    
0025fc   0107     MOVLB     0x7                                                                                             
0025fe   6f6a     MOVWF     0x6a,0x1                                                                                        
002600   6f6b     MOVWF     0x6b,0x1                                                                                        
002602   0107     MOVLB     0x7               pwm14 = pwm13 = motorModifier(Limit_Mix(2000 + p1_x - p1_y + 127));           C:\Hannibal Code1.1\user_routines.c
002604   5182     MOVF      0x82,0x0,0x1                                                                                    
002606   6a2e     CLRF      0x2e,0x0                                                                                        
002608   0fd0     ADDLW     0xd0                                                                                            
00260a   6e2d     MOVWF     0x2d,0x0                                                                                        
00260c   0e07     MOVLW     0x7                                                                                             
00260e   222e     ADDWFC    0x2e,0x1,0x0                                                                                    
002610   517e     MOVF      0x7e,0x0,0x1                                                                                    
002612   6e2f     MOVWF     0x2f,0x0                                                                                        
002614   6a30     CLRF      0x30,0x0                                                                                        
002616   502f     MOVF      0x2f,0x0,0x0                                                                                    
002618   5c2d     SUBWF     0x2d,0x0,0x0                                                                                    
00261a   6e2b     MOVWF     0x2b,0x0                                                                                        
00261c   5030     MOVF      0x30,0x0,0x0                                                                                    
00261e   582e     SUBWFB    0x2e,0x0,0x0                                                                                    
002620   6e2c     MOVWF     0x2c,0x0                                                                                        
002622   0e7f     MOVLW     0x7f                                                                                            
002624   262b     ADDWF     0x2b,0x1,0x0                                                                                    
002626   0e00     MOVLW     0x0                                                                                             
002628   222c     ADDWFC    0x2c,0x1,0x0                                                                                    
00262a   c02b     MOVFF     0x2b,0xfe6                                                                                      
00262c   ffe6                                                                                                               
00262e   c02c     MOVFF     0x2c,0xfe6                                                                                      
002630   ffe6                                                                                                               
002632   eca3     CALL      0x1946,0x0                                                                                      
002634   f00c                                                                                                               
002636   52e5     MOVF      0xe5,0x1,0x0                                                                                    
002638   52e5     MOVF      0xe5,0x1,0x0                                                                                    
00263a   6ee6     MOVWF     0xe6,0x0                                                                                        
00263c   dc8a     RCALL     0x1f52                                                                                          
00263e   52e5     MOVF      0xe5,0x1,0x0                                                                                    
002640   0107     MOVLB     0x7                                                                                             
002642   6f68     MOVWF     0x68,0x1                                                                                        
002644   6f69     MOVWF     0x69,0x1                                                                                        
                                                                                                                            C:\Hannibal Code1.1\user_routines.c
002646   5169     MOVF      0x69,0x0,0x1      pwm13=pwm14=255-pwm14;                                                        C:\Hannibal Code1.1\user_routines.c
002648   6e2b     MOVWF     0x2b,0x0                                                                                        
00264a   6a2c     CLRF      0x2c,0x0                                                                                        
00264c   0eff     MOVLW     0xff                                                                                            
00264e   80d8     BSF       0xd8,0x0,0x0                                                                                    
002650   562b     SUBFWB    0x2b,0x1,0x0                                                                                    
002652   0e00     MOVLW     0x0                                                                                             
002654   562c     SUBFWB    0x2c,0x1,0x0                                                                                    
002656   c02b     MOVFF     0x2b,0x769                                                                                      
002658   f769                                                                                                               
00265a   c02b     MOVFF     0x2b,0x768                                                                                      
00265c   f768                                                                                                               
                                                                                                                            C:\Hannibal Code1.1\user_routines.c
                                              //if(debug_cycle)printf("X: %d	Y: %d\n",(int)p1_x,(int)p1_y);                 C:\Hannibal Code1.1\user_routines.c
                                              //if(debug_cycle)printf("Left: %d	Right: %d\n",(int)pwm01,(int)pwm02);        C:\Hannibal Code1.1\user_routines.c
                                                                                                                            C:\Hannibal Code1.1\user_routines.c
                                            /*---------- ROBOT FEEDBACK LEDs------------------------------------------------ C:\Hannibal Code1.1\user_routines.c
                                             *------------------------------------------------------------------------------ C:\Hannibal Code1.1\user_routines.c
                                             *   This section drives the "ROBOT FEEDBACK" lights on the Operator Interface. C:\Hannibal Code1.1\user_routines.c
                                             *   The lights are green for joystick forward and red for joystick reverse.    C:\Hannibal Code1.1\user_routines.c
                                             *   Both red and green are on when the joystick is centered.  Use the          C:\Hannibal Code1.1\user_routines.c
                                             *   trim tabs on the joystick to adjust the center.                            C:\Hannibal Code1.1\user_routines.c
                                             *   These may be changed for any use that the user desires.                        C:\Hannibal Code1.1\user_routines.c
                                             */	                                                                            C:\Hannibal Code1.1\user_routines.c
                                                                                                                            C:\Hannibal Code1.1\user_routines.c
00265e   0107     MOVLB     0x7              if (user_display_mode == 0) /* User Mode is Off */                             C:\Hannibal Code1.1\user_routines.c
002660   bb79     BTFSC     0x79,0x5,0x1                                                                                    
002662   d0be     BRA       0x27e0                                                                                          
                                                                                                                            C:\Hannibal Code1.1\user_routines.c
                                             { /* Check position of Port 1 Joystick */                                      C:\Hannibal Code1.1\user_routines.c
002664   5d7e     SUBWF     0x7e,0x0,0x1       if (p1_y >= 0 && p1_y <= 56)                                                 C:\Hannibal Code1.1\user_routines.c
002666   e307     BNC       0x2676                                                                                          
002668   517e     MOVF      0x7e,0x0,0x1                                                                                    
00266a   0838     SUBLW     0x38                                                                                            
00266c   e304     BNC       0x2676                                                                                          
                                               {                     /* Joystick is in full reverse position */             C:\Hannibal Code1.1\user_routines.c
00266e   0107     MOVLB     0x7                  Pwm1_green  = 0;    /* Turn PWM1 green LED - OFF */                        C:\Hannibal Code1.1\user_routines.c
002670   9158     BCF       0x58,0x0,0x1                                                                                    
002672   8358     BSF       0x58,0x1,0x1         Pwm1_red  = 1;      /* Turn PWM1 red LED   - ON  */                        C:\Hannibal Code1.1\user_routines.c
                                               }                                                                            C:\Hannibal Code1.1\user_routines.c
002674   d03a     BRA       0x26ea             else if (p1_y >= 125 && p1_y <= 129)                                         C:\Hannibal Code1.1\user_routines.c
002676   0e7d     MOVLW     0x7d                                                                                            
002678   5d7e     SUBWF     0x7e,0x0,0x1                                                                                    
00267a   e313     BNC       0x26a2                                                                                          
00267c   517e     MOVF      0x7e,0x0,0x1                                                                                    
00267e   6e2b     MOVWF     0x2b,0x0                                                                                        
002680   6a2c     CLRF      0x2c,0x0                                                                                        
002682   502c     MOVF      0x2c,0x0,0x0                                                                                    
002684   0a00     XORLW     0x0                                                                                             
002686   aee8     BTFSS     0xe8,0x7,0x0                                                                                    
002688   d002     BRA       0x268e                                                                                          
00268a   342c     RLCF      0x2c,0x0,0x0                                                                                    
00268c   d005     BRA       0x2698                                                                                          
00268e   0e81     MOVLW     0x81                                                                                            
002690   80d8     BSF       0xd8,0x0,0x0                                                                                    
002692   542b     SUBFWB    0x2b,0x0,0x0                                                                                    
002694   0e00     MOVLW     0x0                                                                                             
002696   542c     SUBFWB    0x2c,0x0,0x0                                                                                    
002698   e304     BNC       0x26a2                                                                                          
                                               {                     /* Joystick is in neutral position */                  C:\Hannibal Code1.1\user_routines.c
00269a   0107     MOVLB     0x7                  Pwm1_green  = 1;    /* Turn PWM1 green LED - ON */                         C:\Hannibal Code1.1\user_routines.c
00269c   8158     BSF       0x58,0x0,0x1                                                                                    
00269e   8358     BSF       0x58,0x1,0x1         Pwm1_red  = 1;      /* Turn PWM1 red LED   - ON */                         C:\Hannibal Code1.1\user_routines.c
                                               }                                                                            C:\Hannibal Code1.1\user_routines.c
0026a0   d024     BRA       0x26ea             else if (p1_y >= 216 && p1_y <= 255)                                         C:\Hannibal Code1.1\user_routines.c
0026a2   517e     MOVF      0x7e,0x0,0x1                                                                                    
0026a4   6e2b     MOVWF     0x2b,0x0                                                                                        
0026a6   6a2c     CLRF      0x2c,0x0                                                                                        
0026a8   502c     MOVF      0x2c,0x0,0x0                                                                                    
0026aa   0a00     XORLW     0x0                                                                                             
0026ac   aee8     BTFSS     0xe8,0x7,0x0                                                                                    
0026ae   d002     BRA       0x26b4                                                                                          
0026b0   90d8     BCF       0xd8,0x0,0x0                                                                                    
0026b2   d004     BRA       0x26bc                                                                                          
0026b4   0ed8     MOVLW     0xd8                                                                                            
0026b6   5c2b     SUBWF     0x2b,0x0,0x0                                                                                    
0026b8   0e00     MOVLW     0x0                                                                                             
0026ba   582c     SUBWFB    0x2c,0x0,0x0                                                                                    
0026bc   e313     BNC       0x26e4                                                                                          
0026be   517e     MOVF      0x7e,0x0,0x1                                                                                    
0026c0   6e2d     MOVWF     0x2d,0x0                                                                                        
0026c2   6a2e     CLRF      0x2e,0x0                                                                                        
0026c4   502e     MOVF      0x2e,0x0,0x0                                                                                    
0026c6   0a00     XORLW     0x0                                                                                             
0026c8   aee8     BTFSS     0xe8,0x7,0x0                                                                                    
0026ca   d002     BRA       0x26d0                                                                                          
0026cc   342e     RLCF      0x2e,0x0,0x0                                                                                    
0026ce   d005     BRA       0x26da                                                                                          
0026d0   0eff     MOVLW     0xff                                                                                            
0026d2   80d8     BSF       0xd8,0x0,0x0                                                                                    
0026d4   542d     SUBFWB    0x2d,0x0,0x0                                                                                    
0026d6   0e00     MOVLW     0x0                                                                                             
0026d8   542e     SUBFWB    0x2e,0x0,0x0                                                                                    
0026da   e304     BNC       0x26e4                                                                                          
                                               {                     /* Joystick is in full forward position*/              C:\Hannibal Code1.1\user_routines.c
0026dc   0107     MOVLB     0x7                  Pwm1_green  = 1;    /* Turn PWM1 green LED - ON  */                        C:\Hannibal Code1.1\user_routines.c
0026de   8158     BSF       0x58,0x0,0x1                                                                                    
0026e0   9358     BCF       0x58,0x1,0x1         Pwm1_red  = 0;      /* Turn PWM1 red LED   - OFF */                        C:\Hannibal Code1.1\user_routines.c
                                               }                                                                            C:\Hannibal Code1.1\user_routines.c
0026e2   d003     BRA       0x26ea             else                                                                         C:\Hannibal Code1.1\user_routines.c
                                               {                     /* In either forward or reverse position */            C:\Hannibal Code1.1\user_routines.c
0026e4   0107     MOVLB     0x7                  Pwm1_green  = 0;    /* Turn PWM1 green LED - OFF */                        C:\Hannibal Code1.1\user_routines.c
0026e6   9158     BCF       0x58,0x0,0x1                                                                                    
0026e8   9358     BCF       0x58,0x1,0x1         Pwm1_red  = 0;      /* Turn PWM1 red LED   - OFF */                        C:\Hannibal Code1.1\user_routines.c
                                               }  /*END Check position of Port 1 Joystick                                   C:\Hannibal Code1.1\user_routines.c
                                                                                                                            C:\Hannibal Code1.1\user_routines.c
                                               /* Check position of Port 2 Y Joystick                                       C:\Hannibal Code1.1\user_routines.c
                                                      (or Port 1 X in Single Joystick Drive Mode) */                        C:\Hannibal Code1.1\user_routines.c
0026ea   0e00     MOVLW     0x0                if (p2_y >= 0 && p2_y <= 56)                                                 C:\Hannibal Code1.1\user_routines.c
0026ec   0107     MOVLB     0x7                                                                                             
0026ee   5d7f     SUBWF     0x7f,0x0,0x1                                                                                    
0026f0   e307     BNC       0x2700                                                                                          
0026f2   517f     MOVF      0x7f,0x0,0x1                                                                                    
0026f4   0838     SUBLW     0x38                                                                                            
0026f6   e304     BNC       0x2700                                                                                          
                                               {                     /* Joystick is in full reverse position */             C:\Hannibal Code1.1\user_routines.c
0026f8   0107     MOVLB     0x7                  Pwm2_green  = 0;    /* Turn pwm2 green LED - OFF */                        C:\Hannibal Code1.1\user_routines.c
0026fa   9558     BCF       0x58,0x2,0x1                                                                                    
0026fc   8758     BSF       0x58,0x3,0x1         Pwm2_red  = 1;      /* Turn pwm2 red LED   - ON  */                        C:\Hannibal Code1.1\user_routines.c
                                               }                                                                            C:\Hannibal Code1.1\user_routines.c
0026fe   d03a     BRA       0x2774             else if (p2_y >= 125 && p2_y <= 129)                                         C:\Hannibal Code1.1\user_routines.c
002700   0e7d     MOVLW     0x7d                                                                                            
002702   5d7f     SUBWF     0x7f,0x0,0x1                                                                                    
002704   e313     BNC       0x272c                                                                                          
002706   517f     MOVF      0x7f,0x0,0x1                                                                                    
002708   6e2b     MOVWF     0x2b,0x0                                                                                        
00270a   6a2c     CLRF      0x2c,0x0                                                                                        
00270c   502c     MOVF      0x2c,0x0,0x0                                                                                    
00270e   0a00     XORLW     0x0                                                                                             
002710   aee8     BTFSS     0xe8,0x7,0x0                                                                                    
002712   d002     BRA       0x2718                                                                                          
002714   342c     RLCF      0x2c,0x0,0x0                                                                                    
002716   d005     BRA       0x2722                                                                                          
002718   0e81     MOVLW     0x81                                                                                            
00271a   80d8     BSF       0xd8,0x0,0x0                                                                                    
00271c   542b     SUBFWB    0x2b,0x0,0x0                                                                                    
00271e   0e00     MOVLW     0x0                                                                                             
002720   542c     SUBFWB    0x2c,0x0,0x0                                                                                    
002722   e304     BNC       0x272c                                                                                          
                                               {                     /* Joystick is in neutral position */                  C:\Hannibal Code1.1\user_routines.c
002724   0107     MOVLB     0x7                  Pwm2_green  = 1;    /* Turn PWM2 green LED - ON */                         C:\Hannibal Code1.1\user_routines.c
002726   8558     BSF       0x58,0x2,0x1                                                                                    
002728   8758     BSF       0x58,0x3,0x1         Pwm2_red  = 1;      /* Turn PWM2 red LED   - ON */                         C:\Hannibal Code1.1\user_routines.c
                                               }                                                                            C:\Hannibal Code1.1\user_routines.c
00272a   d024     BRA       0x2774             else if (p2_y >= 216 && p2_y <= 255)                                         C:\Hannibal Code1.1\user_routines.c
00272c   517f     MOVF      0x7f,0x0,0x1                                                                                    
00272e   6e2b     MOVWF     0x2b,0x0                                                                                        
002730   6a2c     CLRF      0x2c,0x0                                                                                        
002732   502c     MOVF      0x2c,0x0,0x0                                                                                    
002734   0a00     XORLW     0x0                                                                                             
002736   aee8     BTFSS     0xe8,0x7,0x0                                                                                    
002738   d002     BRA       0x273e                                                                                          
00273a   90d8     BCF       0xd8,0x0,0x0                                                                                    
00273c   d004     BRA       0x2746                                                                                          
00273e   0ed8     MOVLW     0xd8                                                                                            
002740   5c2b     SUBWF     0x2b,0x0,0x0                                                                                    
002742   0e00     MOVLW     0x0                                                                                             
002744   582c     SUBWFB    0x2c,0x0,0x0                                                                                    
002746   e313     BNC       0x276e                                                                                          
002748   517f     MOVF      0x7f,0x0,0x1                                                                                    
00274a   6e2d     MOVWF     0x2d,0x0                                                                                        
00274c   6a2e     CLRF      0x2e,0x0                                                                                        
00274e   502e     MOVF      0x2e,0x0,0x0                                                                                    
002750   0a00     XORLW     0x0                                                                                             
002752   aee8     BTFSS     0xe8,0x7,0x0                                                                                    
002754   d002     BRA       0x275a                                                                                          
002756   342e     RLCF      0x2e,0x0,0x0                                                                                    
002758   d005     BRA       0x2764                                                                                          
00275a   0eff     MOVLW     0xff                                                                                            
00275c   80d8     BSF       0xd8,0x0,0x0                                                                                    
00275e   542d     SUBFWB    0x2d,0x0,0x0                                                                                    
002760   0e00     MOVLW     0x0                                                                                             
002762   542e     SUBFWB    0x2e,0x0,0x0                                                                                    
002764   e304     BNC       0x276e                                                                                          
                                               {                     /* Joystick is in full forward position */             C:\Hannibal Code1.1\user_routines.c
002766   0107     MOVLB     0x7                  Pwm2_green  = 1;    /* Turn PWM2 green LED - ON  */                        C:\Hannibal Code1.1\user_routines.c
002768   8558     BSF       0x58,0x2,0x1                                                                                    
00276a   9758     BCF       0x58,0x3,0x1         Pwm2_red  = 0;      /* Turn PWM2 red LED   - OFF */                        C:\Hannibal Code1.1\user_routines.c
                                               }                                                                            C:\Hannibal Code1.1\user_routines.c
00276c   d003     BRA       0x2774             else                                                                         C:\Hannibal Code1.1\user_routines.c
                                               {                     /* In either forward or reverse position */            C:\Hannibal Code1.1\user_routines.c
00276e   0107     MOVLB     0x7                  Pwm2_green  = 0;    /* Turn PWM2 green LED - OFF */                        C:\Hannibal Code1.1\user_routines.c
002770   9558     BCF       0x58,0x2,0x1                                                                                    
002772   9758     BCF       0x58,0x3,0x1         Pwm2_red  = 0;      /* Turn PWM2 red LED   - OFF */                        C:\Hannibal Code1.1\user_routines.c
                                               }  /* END Check position of Port 2 Joystick */                               C:\Hannibal Code1.1\user_routines.c
                                                                                                                            C:\Hannibal Code1.1\user_routines.c
                                               /* This drives the Relay 1 and Relay 2 "Robot Feedback" lights on the OI. */ C:\Hannibal Code1.1\user_routines.c
002774   9b58     BCF       0x58,0x5,0x1       Relay1_green = relay1_fwd;    /* LED is ON when Relay 1 is FWD */            C:\Hannibal Code1.1\user_routines.c
002776   508c     MOVF      0x8c,0x0,0x0                                                                                    
002778   0b01     ANDLW     0x1                                                                                             
00277a   e001     BZ        0x277e                                                                                          
00277c   8b58     BSF       0x58,0x5,0x1                                                                                    
00277e   9958     BCF       0x58,0x4,0x1       Relay1_red = relay1_rev;      /* LED is ON when Relay 1 is REV */            C:\Hannibal Code1.1\user_routines.c
002780   508d     MOVF      0x8d,0x0,0x0                                                                                    
002782   0b01     ANDLW     0x1                                                                                             
002784   e001     BZ        0x2788                                                                                          
002786   8958     BSF       0x58,0x4,0x1                                                                                    
002788   9f58     BCF       0x58,0x7,0x1       Relay2_green = relay2_fwd;    /* LED is ON when Relay 2 is FWD */            C:\Hannibal Code1.1\user_routines.c
00278a   508c     MOVF      0x8c,0x0,0x0                                                                                    
00278c   0b02     ANDLW     0x2                                                                                             
00278e   e001     BZ        0x2792                                                                                          
002790   8f58     BSF       0x58,0x7,0x1                                                                                    
002792   9d58     BCF       0x58,0x6,0x1       Relay2_red = relay2_rev;      /* LED is ON when Relay 2 is REV */            C:\Hannibal Code1.1\user_routines.c
002794   508d     MOVF      0x8d,0x0,0x0                                                                                    
002796   0b02     ANDLW     0x2                                                                                             
002798   e001     BZ        0x279c                                                                                          
00279a   8d58     BSF       0x58,0x6,0x1                                                                                    
                                                                                                                            C:\Hannibal Code1.1\user_routines.c
00279c   508c     MOVF      0x8c,0x0,0x0       Switch1_LED = (int)relay4_fwd;                                               C:\Hannibal Code1.1\user_routines.c
00279e   0b08     ANDLW     0x8                                                                                             
0027a0   e001     BZ        0x27a4                                                                                          
0027a2   0e01     MOVLW     0x1                                                                                             
0027a4   0b01     ANDLW     0x1                                                                                             
0027a6   6ef3     MOVWF     0xf3,0x0                                                                                        
0027a8   0efe     MOVLW     0xfe                                                                                            
0027aa   1559     ANDWF     0x59,0x0,0x1                                                                                    
0027ac   10f3     IORWF     0xf3,0x0,0x0                                                                                    
0027ae   6f59     MOVWF     0x59,0x1                                                                                        
0027b0   508c     MOVF      0x8c,0x0,0x0       Switch2_LED = (int)relay4_fwd;                                               C:\Hannibal Code1.1\user_routines.c
0027b2   0b08     ANDLW     0x8                                                                                             
0027b4   e001     BZ        0x27b8                                                                                          
0027b6   0e01     MOVLW     0x1                                                                                             
0027b8   0b01     ANDLW     0x1                                                                                             
0027ba   6ef3     MOVWF     0xf3,0x0                                                                                        
0027bc   46f3     RLNCF     0xf3,0x1,0x0                                                                                    
0027be   0efd     MOVLW     0xfd                                                                                            
0027c0   1559     ANDWF     0x59,0x0,0x1                                                                                    
0027c2   10f3     IORWF     0xf3,0x0,0x0                                                                                    
0027c4   6f59     MOVWF     0x59,0x1                                                                                        
0027c6   508c     MOVF      0x8c,0x0,0x0       Switch3_LED = (int)relay4_fwd;                                               C:\Hannibal Code1.1\user_routines.c
0027c8   0b08     ANDLW     0x8                                                                                             
0027ca   e001     BZ        0x27ce                                                                                          
0027cc   0e01     MOVLW     0x1                                                                                             
0027ce   0b01     ANDLW     0x1                                                                                             
0027d0   6ef3     MOVWF     0xf3,0x0                                                                                        
0027d2   46f3     RLNCF     0xf3,0x1,0x0                                                                                    
0027d4   46f3     RLNCF     0xf3,0x1,0x0                                                                                    
0027d6   0efb     MOVLW     0xfb                                                                                            
0027d8   1559     ANDWF     0x59,0x0,0x1                                                                                    
0027da   10f3     IORWF     0xf3,0x0,0x0                                                                                    
0027dc   6f59     MOVWF     0x59,0x1                                                                                        
                                                                                                                            C:\Hannibal Code1.1\user_routines.c
                                             } /* (user_display_mode = 0) (User Mode is Off) */                             C:\Hannibal Code1.1\user_routines.c
                                                                                                                            C:\Hannibal Code1.1\user_routines.c
0027de   d051     BRA       0x2882           else  /* User Mode is On - displays data in OI 4-digit display*/               C:\Hannibal Code1.1\user_routines.c
                                             {                                                                              C:\Hannibal Code1.1\user_routines.c
0027e0   c78f     MOVFF     0x78f,0x1e         User_Mode_byte = backup_voltage*10; /* so that decimal doesn't get truncated. */ C:\Hannibal Code1.1\user_routines.c
0027e2   f01e                                                                                                               
0027e4   ec42     CALL      0x2884,0x0                                                                                      
0027e6   f014                                                                                                               
0027e8   c01c     MOVFF     0x1c,0x33                                                                                       
0027ea   f033                                                                                                               
0027ec   c01d     MOVFF     0x1d,0x34                                                                                       
0027ee   f034                                                                                                               
0027f0   c01e     MOVFF     0x1e,0x35                                                                                       
0027f2   f035                                                                                                               
0027f4   c01f     MOVFF     0x1f,0x36                                                                                       
0027f6   f036                                                                                                               
0027f8   0e71     MOVLW     0x71                                                                                            
0027fa   6e21     MOVWF     0x21,0x0                                                                                        
0027fc   0e3d     MOVLW     0x3d                                                                                            
0027fe   6e22     MOVWF     0x22,0x0                                                                                        
002800   0e7a     MOVLW     0x7a                                                                                            
002802   6e23     MOVWF     0x23,0x0                                                                                        
002804   0e82     MOVLW     0x82                                                                                            
002806   6e24     MOVWF     0x24,0x0                                                                                        
002808   c033     MOVFF     0x33,0x1c                                                                                       
00280a   f01c                                                                                                               
00280c   c034     MOVFF     0x34,0x1d                                                                                       
00280e   f01d                                                                                                               
002810   c035     MOVFF     0x35,0x1e                                                                                       
002812   f01e                                                                                                               
002814   c036     MOVFF     0x36,0x1f                                                                                       
002816   f01f                                                                                                               
002818   ecfe     CALL      0x2dfc,0x0                                                                                      
00281a   f016                                                                                                               
00281c   c01c     MOVFF     0x1c,0x2f                                                                                       
00281e   f02f                                                                                                               
002820   c01d     MOVFF     0x1d,0x30                                                                                       
002822   f030                                                                                                               
002824   c01e     MOVFF     0x1e,0x31                                                                                       
002826   f031                                                                                                               
002828   c01f     MOVFF     0x1f,0x32                                                                                       
00282a   f032                                                                                                               
00282c   6a21     CLRF      0x21,0x0                                                                                        
00282e   6a22     CLRF      0x22,0x0                                                                                        
002830   6a23     CLRF      0x23,0x0                                                                                        
002832   0e87     MOVLW     0x87                                                                                            
002834   6e24     MOVWF     0x24,0x0                                                                                        
002836   c02f     MOVFF     0x2f,0x1c                                                                                       
002838   f01c                                                                                                               
00283a   c030     MOVFF     0x30,0x1d                                                                                       
00283c   f01d                                                                                                               
00283e   c031     MOVFF     0x31,0x1e                                                                                       
002840   f01e                                                                                                               
002842   c032     MOVFF     0x32,0x1f                                                                                       
002844   f01f                                                                                                               
002846   ec77     CALL      0x28ee,0x0                                                                                      
002848   f014                                                                                                               
00284a   c01c     MOVFF     0x1c,0x2b                                                                                       
00284c   f02b                                                                                                               
00284e   c01d     MOVFF     0x1d,0x2c                                                                                       
002850   f02c                                                                                                               
002852   c01e     MOVFF     0x1e,0x2d                                                                                       
002854   f02d                                                                                                               
002856   c01f     MOVFF     0x1f,0x2e                                                                                       
002858   f02e                                                                                                               
00285a   6a21     CLRF      0x21,0x0                                                                                        
00285c   6a22     CLRF      0x22,0x0                                                                                        
00285e   0e20     MOVLW     0x20                                                                                            
002860   6e23     MOVWF     0x23,0x0                                                                                        
002862   0e82     MOVLW     0x82                                                                                            
002864   6e24     MOVWF     0x24,0x0                                                                                        
002866   c02b     MOVFF     0x2b,0x1c                                                                                       
002868   f01c                                                                                                               
00286a   c02c     MOVFF     0x2c,0x1d                                                                                       
00286c   f01d                                                                                                               
00286e   c02d     MOVFF     0x2d,0x1e                                                                                       
002870   f01e                                                                                                               
002872   c02e     MOVFF     0x2e,0x1f                                                                                       
002874   f01f                                                                                                               
002876   ecfe     CALL      0x2dfc,0x0                                                                                      
002878   f016                                                                                                               
00287a   ec01     CALL      0x3002,0x0                                                                                      
00287c   f018                                                                                                               
00287e   c01e     MOVFF     0x1e,0x758                                                                                      
002880   f758                                                                                                               
                                             }                                                                              C:\Hannibal Code1.1\user_routines.c
                                                                                                                            C:\Hannibal Code1.1\user_routines.c
002882   0012     RETURN    0x0            } /* END Default_Routine(); */                                                   C:\Hannibal Code1.1\user_routines.c
                                                                                                                            C:\Hannibal Code1.1\user_routines.c
                                                                                                                            C:\Hannibal Code1.1\user_routines.c
                                           /******************************************************************************/ C:\Hannibal Code1.1\user_routines.c
                                           /******************************************************************************/ C:\Hannibal Code1.1\user_routines.c
                                           /******************************************************************************/ C:\Hannibal Code1.1\user_routines.c
                                           /******************************************************************************* C:\Hannibal Code1.1\printf_lib.c
                                           * FILE NAME: printf_lib.c                                                        C:\Hannibal Code1.1\printf_lib.c
                                           *                                                                                C:\Hannibal Code1.1\printf_lib.c
                                           * DESCRIPTION:                                                                   C:\Hannibal Code1.1\printf_lib.c
                                           *  This file contains generic routines that work like the standard C I/O library. C:\Hannibal Code1.1\printf_lib.c
                                           *  These unsupported routines have been modified to work with the Microchip      C:\Hannibal Code1.1\printf_lib.c
                                           *  C compiler.  The printf routine is limited as follows:                        C:\Hannibal Code1.1\printf_lib.c
                                           *                                                                                C:\Hannibal Code1.1\printf_lib.c
                                           *  1.  Only the %s, %lx, %d, %x, %u, %X directives are parsed.  An additional %b  C:\Hannibal Code1.1\printf_lib.c
                                           *      directive is parsed for those who like to view data in binary (base 2).   C:\Hannibal Code1.1\printf_lib.c
                                           *                                                                                C:\Hannibal Code1.1\printf_lib.c
                                           *      Examples:                                                                 C:\Hannibal Code1.1\printf_lib.c
                                           *                                                                                C:\Hannibal Code1.1\printf_lib.c
                                           *            rom const char *StrPtr = "Hello world!";                            C:\Hannibal Code1.1\printf_lib.c
                                           *            int x = 15;                                                         C:\Hannibal Code1.1\printf_lib.c
                                           *            int y = 0x50;                                                       C:\Hannibal Code1.1\printf_lib.c
                                           *            long z = 0xdeadface;                                                C:\Hannibal Code1.1\printf_lib.c
                                           *                                                                                C:\Hannibal Code1.1\printf_lib.c
                                           *            printf("%s\n",StrPtr);                         will display 'Hello world!' C:\Hannibal Code1.1\printf_lib.c
                                           *                                                                                C:\Hannibal Code1.1\printf_lib.c
                                           *            printf("X = %d, Y = %x, Z = %lx\n",x,y,z);     will display 'X = 15, Y = 0x50, Z = deadface' C:\Hannibal Code1.1\printf_lib.c
                                           *                                                                                C:\Hannibal Code1.1\printf_lib.c
                                           *            printf("X = %b (base 2)\n",x);                 will display 'X = 1111 (base 2)' C:\Hannibal Code1.1\printf_lib.c
                                           *                                                                                C:\Hannibal Code1.1\printf_lib.c
                                           *            printf("X = %16b\n",x);                        will display 'X = 0000000000001111' C:\Hannibal Code1.1\printf_lib.c
                                           *                                                                                C:\Hannibal Code1.1\printf_lib.c
                                           *            printf("X = %04x\n",x);                        will display 'X = 000f' C:\Hannibal Code1.1\printf_lib.c
                                           *                                                                                C:\Hannibal Code1.1\printf_lib.c
                                           *  2.  All bytes (8 bits) or bit references (rc_dig_in01) must be type-cast to a   C:\Hannibal Code1.1\printf_lib.c
                                           *      16 bit word.  The %c directive is unsupported.                            C:\Hannibal Code1.1\printf_lib.c
                                           *                                                                                C:\Hannibal Code1.1\printf_lib.c
                                           *      Examples:                                                                 C:\Hannibal Code1.1\printf_lib.c
                                           *                                                                                C:\Hannibal Code1.1\printf_lib.c
                                           *            unsigned char byte1 = 0xfa;                                         C:\Hannibal Code1.1\printf_lib.c
                                           *            char byte2 = 25;                                                    C:\Hannibal Code1.1\printf_lib.c
                                           *                                                                                C:\Hannibal Code1.1\printf_lib.c
                                           *            printf("1st byte = %x, 2nd byte = %d\n",(int)byte1,(int)byte2);     C:\Hannibal Code1.1\printf_lib.c
                                           *                                                           will display '1st byte = fa, 2nd byte = 25 C:\Hannibal Code1.1\printf_lib.c
                                           *            if (rc_dig_in01)                                                    C:\Hannibal Code1.1\printf_lib.c
                                           *              printf("On %d\n",(int)rc_dig_in01);          will display 'On 1'  C:\Hannibal Code1.1\printf_lib.c
                                           *            else                                                                C:\Hannibal Code1.1\printf_lib.c
                                           *              printf("Off %d\n",(int)rc_dig_in01);         will display 'Off 0' C:\Hannibal Code1.1\printf_lib.c
                                           *                                                                                C:\Hannibal Code1.1\printf_lib.c
                                           *  3.  The %s directive only supports a string of 40 bytes and the format string C:\Hannibal Code1.1\printf_lib.c
                                           *      may not exceed 80 bytes.  The sprintf routine is not included.  Keep in   C:\Hannibal Code1.1\printf_lib.c
                                           *      mind that the stack size has a 256 byte limit.                            C:\Hannibal Code1.1\printf_lib.c
                                           *                                                                                C:\Hannibal Code1.1\printf_lib.c
                                           * USAGE:                                                                         C:\Hannibal Code1.1\printf_lib.c
                                           *  These library routines  may be modified to suit the needs of the user.        C:\Hannibal Code1.1\printf_lib.c
                                           *******************************************************************************/ C:\Hannibal Code1.1\printf_lib.c
                                                                                                                            C:\Hannibal Code1.1\printf_lib.c
                                           #include "ifi_default.h"                                                         C:\Hannibal Code1.1\printf_lib.c
                                           #include "printf_lib.h"                                                          C:\Hannibal Code1.1\printf_lib.c
                                           #include "ifi_utilities.h"                                                       C:\Hannibal Code1.1\printf_lib.c
                                           #include "string.h"                                                              C:\Hannibal Code1.1\printf_lib.c
                                                                                                                            C:\Hannibal Code1.1\printf_lib.c
                                           /* the following should be enough for a 32 bit word */                           C:\Hannibal Code1.1\printf_lib.c
                                           #define PRINT_BUF_LEN 20                                                         C:\Hannibal Code1.1\printf_lib.c
                                                                                                                            C:\Hannibal Code1.1\printf_lib.c
                                           extern char ifi_printfBufr[]; /* declared in ifi_utilities.c */                  C:\Hannibal Code1.1\printf_lib.c
                                           rom char *nullStr = "(null)";                                                    C:\Hannibal Code1.1\printf_lib.c
                                                                                                                            C:\Hannibal Code1.1\printf_lib.c
                                           static char print_buf[PRINT_BUF_LEN];                                            C:\Hannibal Code1.1\printf_lib.c
                                           static char scr[2];                                                              C:\Hannibal Code1.1\printf_lib.c
                                           static int  k;                                                                   C:\Hannibal Code1.1\printf_lib.c
                                                                                                                            C:\Hannibal Code1.1\printf_lib.c
                                           /******************************************************************************* C:\Hannibal Code1.1\printf_lib.c
                                           * SUBROUTINE NAME: Write_Byte_To_Uart                                            C:\Hannibal Code1.1\printf_lib.c
                                           * PURPOSE:       Writes a byte to the UART.                                      C:\Hannibal Code1.1\printf_lib.c
                                           *     Argument       Type           IO   Description                             C:\Hannibal Code1.1\printf_lib.c
                                           *     --------       -----------    --   -----------                             C:\Hannibal Code1.1\printf_lib.c
                                           *         data       int            I    data to transmit to the UART            C:\Hannibal Code1.1\printf_lib.c
                                           * RETURNS:       void                                                            C:\Hannibal Code1.1\printf_lib.c
                                           *******************************************************************************/ C:\Hannibal Code1.1\printf_lib.c
                                                                                                                            C:\Hannibal Code1.1\printf_lib.c
000904   cfd9     MOVFF     0xfd9,0xfe6    static void Write_Byte_To_Uart(int data)                                         C:\Hannibal Code1.1\printf_lib.c
000906   ffe6                                                                                                               
000908   cfe1     MOVFF     0xfe1,0xfd9                                                                                     
00090a   ffd9                                                                                                               
                                           {                                                                                C:\Hannibal Code1.1\printf_lib.c
00090c   0efd     MOVLW     0xfd             TXREG = data;  /* a carriage return */                                         C:\Hannibal Code1.1\printf_lib.c
00090e   50db     MOVF      0xdb,0x0,0x0                                                                                    
000910   6ead     MOVWF     0xad,0x0                                                                                        
000912   eca5     CALL      0x3b4a,0x0       Wait4TXEmpty();                                                                C:\Hannibal Code1.1\printf_lib.c
000914   f01d                                                                                                               
000916   52e5     MOVF      0xe5,0x1,0x0   }                                                                                C:\Hannibal Code1.1\printf_lib.c
000918   cfe7     MOVFF     0xfe7,0xfd9                                                                                     
00091a   ffd9                                                                                                               
00091c   0012     RETURN    0x0                                                                                             
                                                                                                                            C:\Hannibal Code1.1\printf_lib.c
                                           #define PAD_RIGHT 1                                                              C:\Hannibal Code1.1\printf_lib.c
                                           #define PAD_ZERO  2                                                              C:\Hannibal Code1.1\printf_lib.c
                                                                                                                            C:\Hannibal Code1.1\printf_lib.c
                                           /******************************************************************************* C:\Hannibal Code1.1\printf_lib.c
                                           * FUNCTION NAME: prints                                                          C:\Hannibal Code1.1\printf_lib.c
                                           * PURPOSE:       Pads the output stream.                                         C:\Hannibal Code1.1\printf_lib.c
                                           * RETURNS:       void                                                            C:\Hannibal Code1.1\printf_lib.c
                                           *******************************************************************************/ C:\Hannibal Code1.1\printf_lib.c
                                                                                                                            C:\Hannibal Code1.1\printf_lib.c
00091e   cfd9     MOVFF     0xfd9,0xfe6    static int prints(char *string, int width, int pad)                              C:\Hannibal Code1.1\printf_lib.c
000920   ffe6                                                                                                               
000922   cfe1     MOVFF     0xfe1,0xfd9                                                                                     
000924   ffd9                                                                                                               
000926   0e08     MOVLW     0x8                                                                                             
000928   26e1     ADDWF     0xe1,0x1,0x0                                                                                    
                                           {                                                                                C:\Hannibal Code1.1\printf_lib.c
00092a   6ade     CLRF      0xde,0x0       	register int pc = 0, padchar = ' ';                                             C:\Hannibal Code1.1\printf_lib.c
00092c   6add     CLRF      0xdd,0x0                                                                                        
00092e   0e20     MOVLW     0x20                                                                                            
000930   6ef3     MOVWF     0xf3,0x0                                                                                        
000932   0e02     MOVLW     0x2                                                                                             
000934   cff3     MOVFF     0xff3,0xfdb                                                                                     
000936   ffdb                                                                                                               
000938   0e03     MOVLW     0x3                                                                                             
00093a   6adb     CLRF      0xdb,0x0                                                                                        
                                                                                                                            C:\Hannibal Code1.1\printf_lib.c
00093c   0efb     MOVLW     0xfb           	if (width > 0) {                                                                C:\Hannibal Code1.1\printf_lib.c
00093e   cfdb     MOVFF     0xfdb,0x2b                                                                                      
000940   f02b                                                                                                               
000942   0efc     MOVLW     0xfc                                                                                            
000944   cfdb     MOVFF     0xfdb,0x2c                                                                                      
000946   f02c                                                                                                               
000948   502c     MOVF      0x2c,0x0,0x0                                                                                    
00094a   0a00     XORLW     0x0                                                                                             
00094c   aee8     BTFSS     0xe8,0x7,0x0                                                                                    
00094e   d002     BRA       0x954                                                                                           
000950   342c     RLCF      0x2c,0x0,0x0                                                                                    
000952   d005     BRA       0x95e                                                                                           
000954   0e00     MOVLW     0x0                                                                                             
000956   80d8     BSF       0xd8,0x0,0x0                                                                                    
000958   542b     SUBFWB    0x2b,0x0,0x0                                                                                    
00095a   0e00     MOVLW     0x0                                                                                             
00095c   542c     SUBFWB    0x2c,0x0,0x0                                                                                    
00095e   e25a     BC        0xa14                                                                                           
000960   0e04     MOVLW     0x4            		register int len = 0;                                                          C:\Hannibal Code1.1\printf_lib.c
000962   6adb     CLRF      0xdb,0x0                                                                                        
000964   0e05     MOVLW     0x5                                                                                             
000966   6adb     CLRF      0xdb,0x0                                                                                        
                                           		register char *ptr;                                                            C:\Hannibal Code1.1\printf_lib.c
000968   0efd     MOVLW     0xfd           		for (ptr = string; *ptr; ++ptr) ++len;                                         C:\Hannibal Code1.1\printf_lib.c
00096a   cfdb     MOVFF     0xfdb,0x1d                                                                                      
00096c   f01d                                                                                                               
00096e   0efe     MOVLW     0xfe                                                                                            
000970   cfdb     MOVFF     0xfdb,0x1e                                                                                      
000972   f01e                                                                                                               
000974   0e06     MOVLW     0x6                                                                                             
000976   c01d     MOVFF     0x1d,0xfdb                                                                                      
000978   ffdb                                                                                                               
00097a   0e07     MOVLW     0x7                                                                                             
00097c   c01e     MOVFF     0x1e,0xfdb                                                                                      
00097e   ffdb                                                                                                               
000980   0e06     MOVLW     0x6                                                                                             
000982   cfdb     MOVFF     0xfdb,0xfe9                                                                                     
000984   ffe9                                                                                                               
000986   0e07     MOVLW     0x7                                                                                             
000988   cfdb     MOVFF     0xfdb,0xfea                                                                                     
00098a   ffea                                                                                                               
00098c   50ef     MOVF      0xef,0x0,0x0                                                                                    
00098e   e00b     BZ        0x9a6                                                                                           
000990   0e04     MOVLW     0x4                                                                                             
000992   2adb     INCF      0xdb,0x1,0x0                                                                                    
000994   0e05     MOVLW     0x5                                                                                             
000996   e301     BNC       0x99a                                                                                           
000998   2adb     INCF      0xdb,0x1,0x0                                                                                    
00099a   0e06     MOVLW     0x6                                                                                             
00099c   2adb     INCF      0xdb,0x1,0x0                                                                                    
00099e   0e07     MOVLW     0x7                                                                                             
0009a0   e301     BNC       0x9a4                                                                                           
0009a2   2adb     INCF      0xdb,0x1,0x0                                                                                    
0009a4   d7ed     BRA       0x980                                                                                           
0009a6   0e04     MOVLW     0x4            		if (len >= width) width = 0;                                                   C:\Hannibal Code1.1\printf_lib.c
0009a8   cfdb     MOVFF     0xfdb,0x2b                                                                                      
0009aa   f02b                                                                                                               
0009ac   0e05     MOVLW     0x5                                                                                             
0009ae   cfdb     MOVFF     0xfdb,0x2c                                                                                      
0009b0   f02c                                                                                                               
0009b2   0efb     MOVLW     0xfb                                                                                            
0009b4   cfdb     MOVFF     0xfdb,0x2d                                                                                      
0009b6   f02d                                                                                                               
0009b8   0efc     MOVLW     0xfc                                                                                            
0009ba   cfdb     MOVFF     0xfdb,0x2e                                                                                      
0009bc   f02e                                                                                                               
0009be   502c     MOVF      0x2c,0x0,0x0                                                                                    
0009c0   182e     XORWF     0x2e,0x0,0x0                                                                                    
0009c2   aee8     BTFSS     0xe8,0x7,0x0                                                                                    
0009c4   d002     BRA       0x9ca                                                                                           
0009c6   342e     RLCF      0x2e,0x0,0x0                                                                                    
0009c8   d004     BRA       0x9d2                                                                                           
0009ca   502d     MOVF      0x2d,0x0,0x0                                                                                    
0009cc   5c2b     SUBWF     0x2b,0x0,0x0                                                                                    
0009ce   502e     MOVF      0x2e,0x0,0x0                                                                                    
0009d0   582c     SUBWFB    0x2c,0x0,0x0                                                                                    
0009d2   e305     BNC       0x9de                                                                                           
0009d4   0efb     MOVLW     0xfb                                                                                            
0009d6   6adb     CLRF      0xdb,0x0                                                                                        
0009d8   0efc     MOVLW     0xfc                                                                                            
0009da   6adb     CLRF      0xdb,0x0                                                                                        
0009dc   d010     BRA       0x9fe          		else width -= len;                                                             C:\Hannibal Code1.1\printf_lib.c
0009de   0e04     MOVLW     0x4                                                                                             
0009e0   cfdb     MOVFF     0xfdb,0x2b                                                                                      
0009e2   f02b                                                                                                               
0009e4   0e05     MOVLW     0x5                                                                                             
0009e6   cfdb     MOVFF     0xfdb,0x2c                                                                                      
0009e8   f02c                                                                                                               
0009ea   50d9     MOVF      0xd9,0x0,0x0                                                                                    
0009ec   0ffb     ADDLW     0xfb                                                                                            
0009ee   6ee9     MOVWF     0xe9,0x0                                                                                        
0009f0   0eff     MOVLW     0xff                                                                                            
0009f2   20da     ADDWFC    0xda,0x0,0x0                                                                                    
0009f4   6eea     MOVWF     0xea,0x0                                                                                        
0009f6   502b     MOVF      0x2b,0x0,0x0                                                                                    
0009f8   5eee     SUBWF     0xee,0x1,0x0                                                                                    
0009fa   502c     MOVF      0x2c,0x0,0x0                                                                                    
0009fc   5aed     SUBWFB    0xed,0x1,0x0                                                                                    
0009fe   0ef9     MOVLW     0xf9           		if (pad & PAD_ZERO) padchar = '0';                                             C:\Hannibal Code1.1\printf_lib.c
000a00   50db     MOVF      0xdb,0x0,0x0                                                                                    
000a02   0b02     ANDLW     0x2                                                                                             
000a04   e007     BZ        0xa14                                                                                           
000a06   0e30     MOVLW     0x30                                                                                            
000a08   6ef3     MOVWF     0xf3,0x0                                                                                        
000a0a   0e02     MOVLW     0x2                                                                                             
000a0c   cff3     MOVFF     0xff3,0xfdb                                                                                     
000a0e   ffdb                                                                                                               
000a10   0e03     MOVLW     0x3                                                                                             
000a12   6adb     CLRF      0xdb,0x0                                                                                        
                                           	}                                                                               C:\Hannibal Code1.1\printf_lib.c
000a14   0ef9     MOVLW     0xf9           	if (!(pad & PAD_RIGHT)) {                                                       C:\Hannibal Code1.1\printf_lib.c
000a16   50db     MOVF      0xdb,0x0,0x0                                                                                    
000a18   0b01     ANDLW     0x1                                                                                             
000a1a   e125     BNZ       0xa66                                                                                           
000a1c   0efb     MOVLW     0xfb           		for ( ; width > 0; --width) {                                                  C:\Hannibal Code1.1\printf_lib.c
000a1e   cfdb     MOVFF     0xfdb,0x2b                                                                                      
000a20   f02b                                                                                                               
000a22   0efc     MOVLW     0xfc                                                                                            
000a24   cfdb     MOVFF     0xfdb,0x2c                                                                                      
000a26   f02c                                                                                                               
000a28   502c     MOVF      0x2c,0x0,0x0                                                                                    
000a2a   0a00     XORLW     0x0                                                                                             
000a2c   aee8     BTFSS     0xe8,0x7,0x0                                                                                    
000a2e   d002     BRA       0xa34                                                                                           
000a30   342c     RLCF      0x2c,0x0,0x0                                                                                    
000a32   d005     BRA       0xa3e                                                                                           
000a34   0e00     MOVLW     0x0                                                                                             
000a36   80d8     BSF       0xd8,0x0,0x0                                                                                    
000a38   542b     SUBFWB    0x2b,0x0,0x0                                                                                    
000a3a   0e00     MOVLW     0x0                                                                                             
000a3c   542c     SUBFWB    0x2c,0x0,0x0                                                                                    
000a3e   e213     BC        0xa66                                                                                           
000a5a   0efb     MOVLW     0xfb                                                                                            
000a5c   06db     DECF      0xdb,0x1,0x0                                                                                    
000a5e   0efc     MOVLW     0xfc                                                                                            
000a60   e201     BC        0xa64                                                                                           
000a62   06db     DECF      0xdb,0x1,0x0                                                                                    
000a64   d7db     BRA       0xa1c                                                                                           
000a40   0e02     MOVLW     0x2            			Write_Byte_To_Uart (padchar);                                                 C:\Hannibal Code1.1\printf_lib.c
000a42   cfdb     MOVFF     0xfdb,0xfe6                                                                                     
000a44   ffe6                                                                                                               
000a46   0e03     MOVLW     0x3                                                                                             
000a48   cfdb     MOVFF     0xfdb,0xfe6                                                                                     
000a4a   ffe6                                                                                                               
000a4c   df5b     RCALL     0x904                                                                                           
000a4e   52e5     MOVF      0xe5,0x1,0x0                                                                                    
000a50   52e5     MOVF      0xe5,0x1,0x0                                                                                    
000a52   2adf     INCF      0xdf,0x1,0x0   			++pc;                                                                         C:\Hannibal Code1.1\printf_lib.c
000a54   0e01     MOVLW     0x1                                                                                             
000a56   e301     BNC       0xa5a                                                                                           
000a58   2adb     INCF      0xdb,0x1,0x0                                                                                    
                                           		}                                                                              C:\Hannibal Code1.1\printf_lib.c
                                           	}                                                                               C:\Hannibal Code1.1\printf_lib.c
000a66   0efd     MOVLW     0xfd           	for ( ; *string ; ++string) {                                                   C:\Hannibal Code1.1\printf_lib.c
000a68   cfdb     MOVFF     0xfdb,0xfe9                                                                                     
000a6a   ffe9                                                                                                               
000a6c   0efe     MOVLW     0xfe                                                                                            
000a6e   cfdb     MOVFF     0xfdb,0xfea                                                                                     
000a70   ffea                                                                                                               
000a72   50ef     MOVF      0xef,0x0,0x0                                                                                    
000a74   e01c     BZ        0xaae                                                                                           
000aa2   0efd     MOVLW     0xfd                                                                                            
000aa4   2adb     INCF      0xdb,0x1,0x0                                                                                    
000aa6   0efe     MOVLW     0xfe                                                                                            
000aa8   e301     BNC       0xaac                                                                                           
000aaa   2adb     INCF      0xdb,0x1,0x0                                                                                    
000aac   d7dc     BRA       0xa66                                                                                           
000a76   0efd     MOVLW     0xfd           		Write_Byte_To_Uart (*string);                                                  C:\Hannibal Code1.1\printf_lib.c
000a78   cfdb     MOVFF     0xfdb,0xfe9                                                                                     
000a7a   ffe9                                                                                                               
000a7c   0efe     MOVLW     0xfe                                                                                            
000a7e   cfdb     MOVFF     0xfdb,0xfea                                                                                     
000a80   ffea                                                                                                               
000a82   cfef     MOVFF     0xfef,0x2b                                                                                      
000a84   f02b                                                                                                               
000a86   6a2c     CLRF      0x2c,0x0                                                                                        
000a88   be2b     BTFSC     0x2b,0x7,0x0                                                                                    
000a8a   682c     SETF      0x2c,0x0                                                                                        
000a8c   c02b     MOVFF     0x2b,0xfe6                                                                                      
000a8e   ffe6                                                                                                               
000a90   c02c     MOVFF     0x2c,0xfe6                                                                                      
000a92   ffe6                                                                                                               
000a94   df37     RCALL     0x904                                                                                           
000a96   52e5     MOVF      0xe5,0x1,0x0                                                                                    
000a98   52e5     MOVF      0xe5,0x1,0x0                                                                                    
000a9a   2adf     INCF      0xdf,0x1,0x0   		++pc;                                                                          C:\Hannibal Code1.1\printf_lib.c
000a9c   0e01     MOVLW     0x1                                                                                             
000a9e   e301     BNC       0xaa2                                                                                           
000aa0   2adb     INCF      0xdb,0x1,0x0                                                                                    
                                           	}                                                                               C:\Hannibal Code1.1\printf_lib.c
000aae   0efb     MOVLW     0xfb           	for ( ; width > 0; --width) {                                                   C:\Hannibal Code1.1\printf_lib.c
000ab0   cfdb     MOVFF     0xfdb,0x2b                                                                                      
000ab2   f02b                                                                                                               
000ab4   0efc     MOVLW     0xfc                                                                                            
000ab6   cfdb     MOVFF     0xfdb,0x2c                                                                                      
000ab8   f02c                                                                                                               
000aba   502c     MOVF      0x2c,0x0,0x0                                                                                    
000abc   0a00     XORLW     0x0                                                                                             
000abe   aee8     BTFSS     0xe8,0x7,0x0                                                                                    
000ac0   d002     BRA       0xac6                                                                                           
000ac2   342c     RLCF      0x2c,0x0,0x0                                                                                    
000ac4   d005     BRA       0xad0                                                                                           
000ac6   0e00     MOVLW     0x0                                                                                             
000ac8   80d8     BSF       0xd8,0x0,0x0                                                                                    
000aca   542b     SUBFWB    0x2b,0x0,0x0                                                                                    
000acc   0e00     MOVLW     0x0                                                                                             
000ace   542c     SUBFWB    0x2c,0x0,0x0                                                                                    
000ad0   e213     BC        0xaf8                                                                                           
000aec   0efb     MOVLW     0xfb                                                                                            
000aee   06db     DECF      0xdb,0x1,0x0                                                                                    
000af0   0efc     MOVLW     0xfc                                                                                            
000af2   e201     BC        0xaf6                                                                                           
000af4   06db     DECF      0xdb,0x1,0x0                                                                                    
000af6   d7db     BRA       0xaae                                                                                           
000ad2   0e02     MOVLW     0x2            		Write_Byte_To_Uart (padchar);                                                  C:\Hannibal Code1.1\printf_lib.c
000ad4   cfdb     MOVFF     0xfdb,0xfe6                                                                                     
000ad6   ffe6                                                                                                               
000ad8   0e03     MOVLW     0x3                                                                                             
000ada   cfdb     MOVFF     0xfdb,0xfe6                                                                                     
000adc   ffe6                                                                                                               
000ade   df12     RCALL     0x904                                                                                           
000ae0   52e5     MOVF      0xe5,0x1,0x0                                                                                    
000ae2   52e5     MOVF      0xe5,0x1,0x0                                                                                    
000ae4   2adf     INCF      0xdf,0x1,0x0   		++pc;                                                                          C:\Hannibal Code1.1\printf_lib.c
000ae6   0e01     MOVLW     0x1                                                                                             
000ae8   e301     BNC       0xaec                                                                                           
000aea   2adb     INCF      0xdb,0x1,0x0                                                                                    
                                           	}                                                                               C:\Hannibal Code1.1\printf_lib.c
                                                                                                                            C:\Hannibal Code1.1\printf_lib.c
000af8   cfde     MOVFF     0xfde,0x2b     	return pc;                                                                      C:\Hannibal Code1.1\printf_lib.c
000afa   f02b                                                                                                               
000afc   cfdd     MOVFF     0xfdd,0x2c                                                                                      
000afe   f02c                                                                                                               
000b00   c02b     MOVFF     0x2b,0xff3                                                                                      
000b02   fff3                                                                                                               
000b04   c02c     MOVFF     0x2c,0xff4                                                                                      
000b06   fff4                                                                                                               
000b08   d000     BRA       0xb0a                                                                                           
000b0a   cfd9     MOVFF     0xfd9,0xfe1    }                                                                                C:\Hannibal Code1.1\printf_lib.c
000b0c   ffe1                                                                                                               
000b0e   52e5     MOVF      0xe5,0x1,0x0                                                                                    
000b10   cfe7     MOVFF     0xfe7,0xfd9                                                                                     
000b12   ffd9                                                                                                               
000b14   0012     RETURN    0x0                                                                                             
                                                                                                                            C:\Hannibal Code1.1\printf_lib.c
                                           /******************************************************************************* C:\Hannibal Code1.1\printf_lib.c
                                           * FUNCTION NAME: printi                                                          C:\Hannibal Code1.1\printf_lib.c
                                           * PURPOSE:       Converts the output stream to the proper width and base.        C:\Hannibal Code1.1\printf_lib.c
                                           * RETURNS:       void                                                            C:\Hannibal Code1.1\printf_lib.c
                                           *******************************************************************************/ C:\Hannibal Code1.1\printf_lib.c
                                                                                                                            C:\Hannibal Code1.1\printf_lib.c
000b16   cfd9     MOVFF     0xfd9,0xfe6    static int printi(int i, int b, int sg, int width, int pad, int letbase)         C:\Hannibal Code1.1\printf_lib.c
000b18   ffe6                                                                                                               
000b1a   cfe1     MOVFF     0xfe1,0xfd9                                                                                     
000b1c   ffd9                                                                                                               
000b1e   0e0a     MOVLW     0xa                                                                                             
000b20   26e1     ADDWF     0xe1,0x1,0x0                                                                                    
                                           {                                                                                C:\Hannibal Code1.1\printf_lib.c
                                           	register char *s;                                                               C:\Hannibal Code1.1\printf_lib.c
000b22   0e04     MOVLW     0x4            	register int t, neg = 0, pc = 0;                                                C:\Hannibal Code1.1\printf_lib.c
000b24   6adb     CLRF      0xdb,0x0                                                                                        
000b26   0e05     MOVLW     0x5                                                                                             
000b28   6adb     CLRF      0xdb,0x0                                                                                        
000b2a   0e06     MOVLW     0x6                                                                                             
000b2c   6adb     CLRF      0xdb,0x0                                                                                        
000b2e   0e07     MOVLW     0x7                                                                                             
000b30   6adb     CLRF      0xdb,0x0                                                                                        
000b32   0efd     MOVLW     0xfd           	register unsigned int u = i;                                                    C:\Hannibal Code1.1\printf_lib.c
000b34   cfdb     MOVFF     0xfdb,0x1d                                                                                      
000b36   f01d                                                                                                               
000b38   0efe     MOVLW     0xfe                                                                                            
000b3a   cfdb     MOVFF     0xfdb,0x1e                                                                                      
000b3c   f01e                                                                                                               
000b3e   0e08     MOVLW     0x8                                                                                             
000b40   c01d     MOVFF     0x1d,0xfdb                                                                                      
000b42   ffdb                                                                                                               
000b44   0e09     MOVLW     0x9                                                                                             
000b46   c01e     MOVFF     0x1e,0xfdb                                                                                      
000b48   ffdb                                                                                                               
                                                                                                                            C:\Hannibal Code1.1\printf_lib.c
000b4a   0107     MOVLB     0x7               print_buf[0] = 0xBE;                                                          C:\Hannibal Code1.1\printf_lib.c
000b4c   0ebe     MOVLW     0xbe                                                                                            
000b4e   6fb5     MOVWF     0xb5,0x1                                                                                        
000b50   0eef     MOVLW     0xef              print_buf[PRINT_BUF_LEN] = 0xEF;                                              C:\Hannibal Code1.1\printf_lib.c
000b52   6fc9     MOVWF     0xc9,0x1                                                                                        
000b54   50d9     MOVF      0xd9,0x0,0x0   	if (i == 0) {                                                                   C:\Hannibal Code1.1\printf_lib.c
000b56   0ffd     ADDLW     0xfd                                                                                            
000b58   6ee9     MOVWF     0xe9,0x0                                                                                        
000b5a   0eff     MOVLW     0xff                                                                                            
000b5c   20da     ADDWFC    0xda,0x0,0x0                                                                                    
000b5e   6eea     MOVWF     0xea,0x0                                                                                        
000b60   50ee     MOVF      0xee,0x0,0x0                                                                                    
000b62   10ed     IORWF     0xed,0x0,0x0                                                                                    
000b64   e119     BNZ       0xb98                                                                                           
000b66   0e30     MOVLW     0x30           		print_buf[0] = '0';                                                            C:\Hannibal Code1.1\printf_lib.c
000b68   6fb5     MOVWF     0xb5,0x1                                                                                        
000b6a   6bb6     CLRF      0xb6,0x1       		print_buf[1] = '\0';                                                           C:\Hannibal Code1.1\printf_lib.c
000b6c   0ef5     MOVLW     0xf5           		return prints (print_buf, width, pad);                                         C:\Hannibal Code1.1\printf_lib.c
000b6e   cfdb     MOVFF     0xfdb,0xfe6                                                                                     
000b70   ffe6                                                                                                               
000b72   0ef6     MOVLW     0xf6                                                                                            
000b74   cfdb     MOVFF     0xfdb,0xfe6                                                                                     
000b76   ffe6                                                                                                               
000b78   0ef7     MOVLW     0xf7                                                                                            
000b7a   cfdb     MOVFF     0xfdb,0xfe6                                                                                     
000b7c   ffe6                                                                                                               
000b7e   0ef8     MOVLW     0xf8                                                                                            
000b80   cfdb     MOVFF     0xfdb,0xfe6                                                                                     
000b82   ffe6                                                                                                               
000b84   0eb5     MOVLW     0xb5                                                                                            
000b86   6ee6     MOVWF     0xe6,0x0                                                                                        
000b88   0e07     MOVLW     0x7                                                                                             
000b8a   6ee6     MOVWF     0xe6,0x0                                                                                        
000b8c   dec8     RCALL     0x91e                                                                                           
000b8e   6ef5     MOVWF     0xf5,0x0                                                                                        
000b90   0e06     MOVLW     0x6                                                                                             
000b92   5ee1     SUBWF     0xe1,0x1,0x0                                                                                    
000b94   50f5     MOVF      0xf5,0x0,0x0                                                                                    
000b96   d126     BRA       0xde4                                                                                           
                                           	}                                                                               C:\Hannibal Code1.1\printf_lib.c
                                                                                                                            C:\Hannibal Code1.1\printf_lib.c
000b98   50d9     MOVF      0xd9,0x0,0x0   	if (sg && b == 10 && i < 0) {                                                   C:\Hannibal Code1.1\printf_lib.c
000b9a   0ff9     ADDLW     0xf9                                                                                            
000b9c   6ee9     MOVWF     0xe9,0x0                                                                                        
000b9e   0eff     MOVLW     0xff                                                                                            
000ba0   20da     ADDWFC    0xda,0x0,0x0                                                                                    
000ba2   6eea     MOVWF     0xea,0x0                                                                                        
000ba4   50ee     MOVF      0xee,0x0,0x0                                                                                    
000ba6   10ed     IORWF     0xed,0x0,0x0                                                                                    
000ba8   e02c     BZ        0xc02                                                                                           
000baa   50d9     MOVF      0xd9,0x0,0x0                                                                                    
000bac   0ffb     ADDLW     0xfb                                                                                            
000bae   6ee9     MOVWF     0xe9,0x0                                                                                        
000bb0   0eff     MOVLW     0xff                                                                                            
000bb2   20da     ADDWFC    0xda,0x0,0x0                                                                                    
000bb4   6eea     MOVWF     0xea,0x0                                                                                        
000bb6   0e0a     MOVLW     0xa                                                                                             
000bb8   18ee     XORWF     0xee,0x0,0x0                                                                                    
000bba   e101     BNZ       0xbbe                                                                                           
000bbc   50ed     MOVF      0xed,0x0,0x0                                                                                    
000bbe   e121     BNZ       0xc02                                                                                           
000bc0   0efd     MOVLW     0xfd                                                                                            
000bc2   cfdb     MOVFF     0xfdb,0x2b                                                                                      
000bc4   f02b                                                                                                               
000bc6   0efe     MOVLW     0xfe                                                                                            
000bc8   cfdb     MOVFF     0xfdb,0x2c                                                                                      
000bca   f02c                                                                                                               
000bcc   0100     MOVLB     0x0                                                                                             
000bce   0e80     MOVLW     0x80                                                                                            
000bd0   152c     ANDWF     0x2c,0x0,0x1                                                                                    
000bd2   e017     BZ        0xc02                                                                                           
000bd4   0e01     MOVLW     0x1            		neg = 1;                                                                       C:\Hannibal Code1.1\printf_lib.c
000bd6   6ef3     MOVWF     0xf3,0x0                                                                                        
000bd8   0e04     MOVLW     0x4                                                                                             
000bda   cff3     MOVFF     0xff3,0xfdb                                                                                     
000bdc   ffdb                                                                                                               
000bde   0e05     MOVLW     0x5                                                                                             
000be0   6adb     CLRF      0xdb,0x0                                                                                        
000be2   681d     SETF      0x1d,0x0       		u = -i;                                                                        C:\Hannibal Code1.1\printf_lib.c
000be4   681e     SETF      0x1e,0x0                                                                                        
000be6   0efd     MOVLW     0xfd                                                                                            
000be8   cfdb     MOVFF     0xfdb,0x22                                                                                      
000bea   f022                                                                                                               
000bec   0efe     MOVLW     0xfe                                                                                            
000bee   cfdb     MOVFF     0xfdb,0x23                                                                                      
000bf0   f023                                                                                                               
000bf2   ecb6     CALL      0x2f6c,0x0                                                                                      
000bf4   f017                                                                                                               
000bf6   0e08     MOVLW     0x8                                                                                             
000bf8   c01b     MOVFF     0x1b,0xfdb                                                                                      
000bfa   ffdb                                                                                                               
000bfc   0e09     MOVLW     0x9                                                                                             
000bfe   c01c     MOVFF     0x1c,0xfdb                                                                                      
000c00   ffdb                                                                                                               
                                           	}                                                                               C:\Hannibal Code1.1\printf_lib.c
                                                                                                                            C:\Hannibal Code1.1\printf_lib.c
000c02   0ec9     MOVLW     0xc9           	s = print_buf + PRINT_BUF_LEN-1;                                                C:\Hannibal Code1.1\printf_lib.c
000c04   6e2b     MOVWF     0x2b,0x0                                                                                        
000c06   0e07     MOVLW     0x7                                                                                             
000c08   6e2c     MOVWF     0x2c,0x0                                                                                        
000c0a   062b     DECF      0x2b,0x1,0x0                                                                                    
000c0c   0e00     MOVLW     0x0                                                                                             
000c0e   5a2c     SUBWFB    0x2c,0x1,0x0                                                                                    
000c10   c02b     MOVFF     0x2b,0xfde                                                                                      
000c12   ffde                                                                                                               
000c14   c02c     MOVFF     0x2c,0xfdd                                                                                      
000c16   ffdd                                                                                                               
000c18   cfde     MOVFF     0xfde,0xfe9    	*s = '\0';                                                                      C:\Hannibal Code1.1\printf_lib.c
000c1a   ffe9                                                                                                               
000c1c   cfdd     MOVFF     0xfdd,0xfea                                                                                     
000c1e   ffea                                                                                                               
000c20   6aef     CLRF      0xef,0x0                                                                                        
                                                                                                                            C:\Hannibal Code1.1\printf_lib.c
000c22   50d9     MOVF      0xd9,0x0,0x0   	while (u) {                                                                     C:\Hannibal Code1.1\printf_lib.c
000c24   0f08     ADDLW     0x8                                                                                             
000c26   6ee9     MOVWF     0xe9,0x0                                                                                        
000c28   cfda     MOVFF     0xfda,0xfea                                                                                     
000c2a   ffea                                                                                                               
000c2c   50ee     MOVF      0xee,0x0,0x0                                                                                    
000c2e   10ed     IORWF     0xed,0x0,0x0                                                                                    
000c30   e072     BZ        0xd16                                                                                           
000d14   d786     BRA       0xc22                                                                                           
000c32   0e08     MOVLW     0x8            		t = u % b;                                                                     C:\Hannibal Code1.1\printf_lib.c
000c34   cfdb     MOVFF     0xfdb,0x1d                                                                                      
000c36   f01d                                                                                                               
000c38   0e09     MOVLW     0x9                                                                                             
000c3a   cfdb     MOVFF     0xfdb,0x1e                                                                                      
000c3c   f01e                                                                                                               
000c3e   0efb     MOVLW     0xfb                                                                                            
000c40   cfdb     MOVFF     0xfdb,0x22                                                                                      
000c42   f022                                                                                                               
000c44   0efc     MOVLW     0xfc                                                                                            
000c46   cfdb     MOVFF     0xfdb,0x23                                                                                      
000c48   f023                                                                                                               
000c4a   ece4     CALL      0x43c8,0x0                                                                                      
000c4c   f021                                                                                                               
000c4e   0e02     MOVLW     0x2                                                                                             
000c50   c019     MOVFF     0x19,0xfdb                                                                                      
000c52   ffdb                                                                                                               
000c54   0e03     MOVLW     0x3                                                                                             
000c56   c01a     MOVFF     0x1a,0xfdb                                                                                      
000c58   ffdb                                                                                                               
000c5a   0e02     MOVLW     0x2            		if( t >= 10 )                                                                  C:\Hannibal Code1.1\printf_lib.c
000c5c   cfdb     MOVFF     0xfdb,0x2b                                                                                      
000c5e   f02b                                                                                                               
000c60   0e03     MOVLW     0x3                                                                                             
000c62   cfdb     MOVFF     0xfdb,0x2c                                                                                      
000c64   f02c                                                                                                               
000c66   502c     MOVF      0x2c,0x0,0x0                                                                                    
000c68   0a00     XORLW     0x0                                                                                             
000c6a   aee8     BTFSS     0xe8,0x7,0x0                                                                                    
000c6c   d002     BRA       0xc72                                                                                           
000c6e   90d8     BCF       0xd8,0x0,0x0                                                                                    
000c70   d004     BRA       0xc7a                                                                                           
000c72   0e0a     MOVLW     0xa                                                                                             
000c74   5c2b     SUBWF     0x2b,0x0,0x0                                                                                    
000c76   0e00     MOVLW     0x0                                                                                             
000c78   582c     SUBWFB    0x2c,0x0,0x0                                                                                    
000c7a   e317     BNC       0xcaa                                                                                           
000c7c   0ef3     MOVLW     0xf3           			t += letbase - '0' - 10;                                                      C:\Hannibal Code1.1\printf_lib.c
000c7e   cfdb     MOVFF     0xfdb,0x2b                                                                                      
000c80   f02b                                                                                                               
000c82   0ef4     MOVLW     0xf4                                                                                            
000c84   cfdb     MOVFF     0xfdb,0x2c                                                                                      
000c86   f02c                                                                                                               
000c88   0e30     MOVLW     0x30                                                                                            
000c8a   5e2b     SUBWF     0x2b,0x1,0x0                                                                                    
000c8c   0e00     MOVLW     0x0                                                                                             
000c8e   5a2c     SUBWFB    0x2c,0x1,0x0                                                                                    
000c90   0e0a     MOVLW     0xa                                                                                             
000c92   5e2b     SUBWF     0x2b,0x1,0x0                                                                                    
000c94   0e00     MOVLW     0x0                                                                                             
000c96   5a2c     SUBWFB    0x2c,0x1,0x0                                                                                    
000c98   50d9     MOVF      0xd9,0x0,0x0                                                                                    
000c9a   0f02     ADDLW     0x2                                                                                             
000c9c   6ee9     MOVWF     0xe9,0x0                                                                                        
000c9e   cfda     MOVFF     0xfda,0xfea                                                                                     
000ca0   ffea                                                                                                               
000ca2   502b     MOVF      0x2b,0x0,0x0                                                                                    
000ca4   26ee     ADDWF     0xee,0x1,0x0                                                                                    
000ca6   502c     MOVF      0x2c,0x0,0x0                                                                                    
000ca8   22ed     ADDWFC    0xed,0x1,0x0                                                                                    
000caa   0e30     MOVLW     0x30           		*--s = t + '0';                                                                C:\Hannibal Code1.1\printf_lib.c
000cac   6ee7     MOVWF     0xe7,0x0                                                                                        
000cae   0e02     MOVLW     0x2                                                                                             
000cb0   cfdb     MOVFF     0xfdb,0x2b                                                                                      
000cb2   f02b                                                                                                               
000cb4   0e03     MOVLW     0x3                                                                                             
000cb6   cfdb     MOVFF     0xfdb,0x2c                                                                                      
000cb8   f02c                                                                                                               
000cba   50e7     MOVF      0xe7,0x0,0x0                                                                                    
000cbc   262b     ADDWF     0x2b,0x1,0x0                                                                                    
000cbe   0e00     MOVLW     0x0                                                                                             
000cc0   222c     ADDWFC    0x2c,0x1,0x0                                                                                    
000cc2   cfd9     MOVFF     0xfd9,0xfe9                                                                                     
000cc4   ffe9                                                                                                               
000cc6   cfda     MOVFF     0xfda,0xfea                                                                                     
000cc8   ffea                                                                                                               
000cca   06ee     DECF      0xee,0x1,0x0                                                                                    
000ccc   5aed     SUBWFB    0xed,0x1,0x0                                                                                    
000cce   cfee     MOVFF     0xfee,0xff3                                                                                     
000cd0   fff3                                                                                                               
000cd2   cfed     MOVFF     0xfed,0xff4                                                                                     
000cd4   fff4                                                                                                               
000cd6   cff3     MOVFF     0xff3,0xfe9                                                                                     
000cd8   ffe9                                                                                                               
000cda   cff4     MOVFF     0xff4,0xfea                                                                                     
000cdc   ffea                                                                                                               
000cde   c02b     MOVFF     0x2b,0xfef                                                                                      
000ce0   ffef                                                                                                               
000ce2   0efb     MOVLW     0xfb           		u /= b;                                                                        C:\Hannibal Code1.1\printf_lib.c
000ce4   cfdb     MOVFF     0xfdb,0x2b                                                                                      
000ce6   f02b                                                                                                               
000ce8   0efc     MOVLW     0xfc                                                                                            
000cea   cfdb     MOVFF     0xfdb,0x2c                                                                                      
000cec   f02c                                                                                                               
000cee   50d9     MOVF      0xd9,0x0,0x0                                                                                    
000cf0   0f08     ADDLW     0x8                                                                                             
000cf2   6ee9     MOVWF     0xe9,0x0                                                                                        
000cf4   cfda     MOVFF     0xfda,0xfea                                                                                     
000cf6   ffea                                                                                                               
000cf8   c02b     MOVFF     0x2b,0x22                                                                                       
000cfa   f022                                                                                                               
000cfc   c02c     MOVFF     0x2c,0x23                                                                                       
000cfe   f023                                                                                                               
000d00   cfee     MOVFF     0xfee,0x1d                                                                                      
000d02   f01d                                                                                                               
000d04   cfed     MOVFF     0xfed,0x1e                                                                                      
000d06   f01e                                                                                                               
000d08   ece4     CALL      0x43c8,0x0                                                                                      
000d0a   f021                                                                                                               
000d0c   c01d     MOVFF     0x1d,0xfee                                                                                      
000d0e   ffee                                                                                                               
000d10   c01e     MOVFF     0x1e,0xfed                                                                                      
000d12   ffed                                                                                                               
                                           	}                                                                               C:\Hannibal Code1.1\printf_lib.c
                                                                                                                            C:\Hannibal Code1.1\printf_lib.c
000d16   50d9     MOVF      0xd9,0x0,0x0   	if (neg) {                                                                      C:\Hannibal Code1.1\printf_lib.c
000d18   0f04     ADDLW     0x4                                                                                             
000d1a   6ee9     MOVWF     0xe9,0x0                                                                                        
000d1c   cfda     MOVFF     0xfda,0xfea                                                                                     
000d1e   ffea                                                                                                               
000d20   50ee     MOVF      0xee,0x0,0x0                                                                                    
000d22   10ed     IORWF     0xed,0x0,0x0                                                                                    
000d24   e02f     BZ        0xd84                                                                                           
000d26   50d9     MOVF      0xd9,0x0,0x0   		if( width && (pad & PAD_ZERO) ) {                                              C:\Hannibal Code1.1\printf_lib.c
000d28   0ff7     ADDLW     0xf7                                                                                            
000d2a   6ee9     MOVWF     0xe9,0x0                                                                                        
000d2c   0eff     MOVLW     0xff                                                                                            
000d2e   20da     ADDWFC    0xda,0x0,0x0                                                                                    
000d30   6eea     MOVWF     0xea,0x0                                                                                        
000d32   50ee     MOVF      0xee,0x0,0x0                                                                                    
000d34   10ed     IORWF     0xed,0x0,0x0                                                                                    
000d36   e015     BZ        0xd62                                                                                           
000d38   0ef5     MOVLW     0xf5                                                                                            
000d3a   50db     MOVF      0xdb,0x0,0x0                                                                                    
000d3c   0b02     ANDLW     0x2                                                                                             
000d3e   e011     BZ        0xd62                                                                                           
000d40   0e2d     MOVLW     0x2d           			Write_Byte_To_Uart ('-');                                                     C:\Hannibal Code1.1\printf_lib.c
000d42   6ee6     MOVWF     0xe6,0x0                                                                                        
000d44   6ae6     CLRF      0xe6,0x0                                                                                        
000d46   ddde     RCALL     0x904                                                                                           
000d48   52e5     MOVF      0xe5,0x1,0x0                                                                                    
000d4a   52e5     MOVF      0xe5,0x1,0x0                                                                                    
000d4c   0e06     MOVLW     0x6            			++pc;                                                                         C:\Hannibal Code1.1\printf_lib.c
000d4e   2adb     INCF      0xdb,0x1,0x0                                                                                    
000d50   0e07     MOVLW     0x7                                                                                             
000d52   e301     BNC       0xd56                                                                                           
000d54   2adb     INCF      0xdb,0x1,0x0                                                                                    
000d56   0ef7     MOVLW     0xf7           			--width;                                                                      C:\Hannibal Code1.1\printf_lib.c
000d58   06db     DECF      0xdb,0x1,0x0                                                                                    
000d5a   0ef8     MOVLW     0xf8                                                                                            
000d5c   e201     BC        0xd60                                                                                           
000d5e   06db     DECF      0xdb,0x1,0x0                                                                                    
                                           		}                                                                              C:\Hannibal Code1.1\printf_lib.c
000d60   d011     BRA       0xd84          		else {                                                                         C:\Hannibal Code1.1\printf_lib.c
000d62   cfd9     MOVFF     0xfd9,0xfe9    			*--s = '-';                                                                   C:\Hannibal Code1.1\printf_lib.c
000d64   ffe9                                                                                                               
000d66   cfda     MOVFF     0xfda,0xfea                                                                                     
000d68   ffea                                                                                                               
000d6a   06ee     DECF      0xee,0x1,0x0                                                                                    
000d6c   0e00     MOVLW     0x0                                                                                             
000d6e   5aed     SUBWFB    0xed,0x1,0x0                                                                                    
000d70   cfee     MOVFF     0xfee,0xff3                                                                                     
000d72   fff3                                                                                                               
000d74   cfed     MOVFF     0xfed,0xff4                                                                                     
000d76   fff4                                                                                                               
000d78   cff3     MOVFF     0xff3,0xfe9                                                                                     
000d7a   ffe9                                                                                                               
000d7c   cff4     MOVFF     0xff4,0xfea                                                                                     
000d7e   ffea                                                                                                               
000d80   0e2d     MOVLW     0x2d                                                                                            
000d82   6eef     MOVWF     0xef,0x0                                                                                        
                                           		}                                                                              C:\Hannibal Code1.1\printf_lib.c
                                           	}                                                                               C:\Hannibal Code1.1\printf_lib.c
                                                                                                                            C:\Hannibal Code1.1\printf_lib.c
000d84   0e06     MOVLW     0x6            	return pc + prints (s, width, pad);                                             C:\Hannibal Code1.1\printf_lib.c
000d86   cfdb     MOVFF     0xfdb,0x2d                                                                                      
000d88   f02d                                                                                                               
000d8a   0e07     MOVLW     0x7                                                                                             
000d8c   cfdb     MOVFF     0xfdb,0x2e                                                                                      
000d8e   f02e                                                                                                               
000d90   c02d     MOVFF     0x2d,0xfe6                                                                                      
000d92   ffe6                                                                                                               
000d94   c02e     MOVFF     0x2e,0xfe6                                                                                      
000d96   ffe6                                                                                                               
000d98   0ef5     MOVLW     0xf5                                                                                            
000d9a   cfdb     MOVFF     0xfdb,0xfe6                                                                                     
000d9c   ffe6                                                                                                               
000d9e   0ef6     MOVLW     0xf6                                                                                            
000da0   cfdb     MOVFF     0xfdb,0xfe6                                                                                     
000da2   ffe6                                                                                                               
000da4   0ef7     MOVLW     0xf7                                                                                            
000da6   cfdb     MOVFF     0xfdb,0xfe6                                                                                     
000da8   ffe6                                                                                                               
000daa   0ef8     MOVLW     0xf8                                                                                            
000dac   cfdb     MOVFF     0xfdb,0xfe6                                                                                     
000dae   ffe6                                                                                                               
000db0   cfde     MOVFF     0xfde,0xfe6                                                                                     
000db2   ffe6                                                                                                               
000db4   cfdd     MOVFF     0xfdd,0xfe6                                                                                     
000db6   ffe6                                                                                                               
000db8   ddb2     RCALL     0x91e                                                                                           
000dba   6ef5     MOVWF     0xf5,0x0                                                                                        
000dbc   0e06     MOVLW     0x6                                                                                             
000dbe   5ee1     SUBWF     0xe1,0x1,0x0                                                                                    
000dc0   50f5     MOVF      0xf5,0x0,0x0                                                                                    
000dc2   52e5     MOVF      0xe5,0x1,0x0                                                                                    
000dc4   cfe7     MOVFF     0xfe7,0x2e                                                                                      
000dc6   f02e                                                                                                               
000dc8   52e5     MOVF      0xe5,0x1,0x0                                                                                    
000dca   cfe7     MOVFF     0xfe7,0x2d                                                                                      
000dcc   f02d                                                                                                               
000dce   502d     MOVF      0x2d,0x0,0x0                                                                                    
000dd0   24f3     ADDWF     0xf3,0x0,0x0                                                                                    
000dd2   6e2b     MOVWF     0x2b,0x0                                                                                        
000dd4   502e     MOVF      0x2e,0x0,0x0                                                                                    
000dd6   20f4     ADDWFC    0xf4,0x0,0x0                                                                                    
000dd8   6e2c     MOVWF     0x2c,0x0                                                                                        
000dda   c02b     MOVFF     0x2b,0xff3                                                                                      
000ddc   fff3                                                                                                               
000dde   c02c     MOVFF     0x2c,0xff4                                                                                      
000de0   fff4                                                                                                               
000de2   d000     BRA       0xde4                                                                                           
000de4   cfd9     MOVFF     0xfd9,0xfe1    }                                                                                C:\Hannibal Code1.1\printf_lib.c
000de6   ffe1                                                                                                               
000de8   52e5     MOVF      0xe5,0x1,0x0                                                                                    
000dea   cfe7     MOVFF     0xfe7,0xfd9                                                                                     
000dec   ffd9                                                                                                               
000dee   0012     RETURN    0x0                                                                                             
                                                                                                                            C:\Hannibal Code1.1\printf_lib.c
                                           /******************************************************************************* C:\Hannibal Code1.1\printf_lib.c
                                           * FUNCTION NAME: print                                                           C:\Hannibal Code1.1\printf_lib.c
                                           * PURPOSE:       Parses the output stream.                                       C:\Hannibal Code1.1\printf_lib.c
                                           * RETURNS:       void                                                            C:\Hannibal Code1.1\printf_lib.c
                                           *******************************************************************************/ C:\Hannibal Code1.1\printf_lib.c
                                                                                                                            C:\Hannibal Code1.1\printf_lib.c
000df0   cfd9     MOVFF     0xfd9,0xfe6    static int print(char *format, int *varg)                                        C:\Hannibal Code1.1\printf_lib.c
000df2   ffe6                                                                                                               
000df4   cfe1     MOVFF     0xfe1,0xfd9                                                                                     
000df6   ffd9                                                                                                               
000df8   0e2e     MOVLW     0x2e                                                                                            
000dfa   26e1     ADDWF     0xe1,0x1,0x0                                                                                    
                                           {                                                                                C:\Hannibal Code1.1\printf_lib.c
                                             char tmpBufr[40];                                                              C:\Hannibal Code1.1\printf_lib.c
                                           	register int width, pad;                                                        C:\Hannibal Code1.1\printf_lib.c
000dfc   0e2c     MOVLW     0x2c           	register int pc = 0;                                                            C:\Hannibal Code1.1\printf_lib.c
000dfe   6adb     CLRF      0xdb,0x0                                                                                        
000e00   0e2d     MOVLW     0x2d                                                                                            
000e02   6adb     CLRF      0xdb,0x0                                                                                        
                                                                                                                            C:\Hannibal Code1.1\printf_lib.c
000e04   0efd     MOVLW     0xfd           	for (; *format != 0; ++format) {                                                C:\Hannibal Code1.1\printf_lib.c
000e06   cfdb     MOVFF     0xfdb,0xfe9                                                                                     
000e08   ffe9                                                                                                               
000e0a   0efe     MOVLW     0xfe                                                                                            
000e0c   cfdb     MOVFF     0xfdb,0xfea                                                                                     
000e0e   ffea                                                                                                               
000e10   50ef     MOVF      0xef,0x0,0x0                                                                                    
000e12   e101     BNZ       0xe16                                                                                           
000e14   d319     BRA       0x1448                                                                                          
00143c   0efd     MOVLW     0xfd                                                                                            
00143e   2adb     INCF      0xdb,0x1,0x0                                                                                    
001440   0efe     MOVLW     0xfe                                                                                            
001442   e301     BNC       0x1446                                                                                          
001444   2adb     INCF      0xdb,0x1,0x0                                                                                    
001446   d4de     BRA       0xe04                                                                                           
000e16   0efd     MOVLW     0xfd           		if (*format == '%') {                                                          C:\Hannibal Code1.1\printf_lib.c
000e18   cfdb     MOVFF     0xfdb,0xfe9                                                                                     
000e1a   ffe9                                                                                                               
000e1c   0efe     MOVLW     0xfe                                                                                            
000e1e   cfdb     MOVFF     0xfdb,0xfea                                                                                     
000e20   ffea                                                                                                               
000e22   50ef     MOVF      0xef,0x0,0x0                                                                                    
000e24   0825     SUBLW     0x25                                                                                            
000e26   e001     BZ        0xe2a                                                                                           
000e28   d2e0     BRA       0x13ea                                                                                          
000e2a   0efd     MOVLW     0xfd           			++format;                                                                     C:\Hannibal Code1.1\printf_lib.c
000e2c   2adb     INCF      0xdb,0x1,0x0                                                                                    
000e2e   0efe     MOVLW     0xfe                                                                                            
000e30   e301     BNC       0xe34                                                                                           
000e32   2adb     INCF      0xdb,0x1,0x0                                                                                    
000e34   0e2a     MOVLW     0x2a           			width = pad = 0;                                                              C:\Hannibal Code1.1\printf_lib.c
000e36   6adb     CLRF      0xdb,0x0                                                                                        
000e38   0e2b     MOVLW     0x2b                                                                                            
000e3a   6adb     CLRF      0xdb,0x0                                                                                        
000e3c   50d9     MOVF      0xd9,0x0,0x0                                                                                    
000e3e   0f28     ADDLW     0x28                                                                                            
000e40   6ee9     MOVWF     0xe9,0x0                                                                                        
000e42   cfda     MOVFF     0xfda,0xfea                                                                                     
000e44   ffea                                                                                                               
000e46   6aee     CLRF      0xee,0x0                                                                                        
000e48   6aed     CLRF      0xed,0x0                                                                                        
000e4a   0efd     MOVLW     0xfd           			if (*format == '\0') break;                                                   C:\Hannibal Code1.1\printf_lib.c
000e4c   cfdb     MOVFF     0xfdb,0xfe9                                                                                     
000e4e   ffe9                                                                                                               
000e50   0efe     MOVLW     0xfe                                                                                            
000e52   cfdb     MOVFF     0xfdb,0xfea                                                                                     
000e54   ffea                                                                                                               
000e56   50ef     MOVF      0xef,0x0,0x0                                                                                    
000e58   e101     BNZ       0xe5c                                                                                           
000e5a   d2f6     BRA       0x1448                                                                                          
000e5c   0efd     MOVLW     0xfd           			if (*format == '%') goto out;                                                 C:\Hannibal Code1.1\printf_lib.c
000e5e   cfdb     MOVFF     0xfdb,0xfe9                                                                                     
000e60   ffe9                                                                                                               
000e62   0efe     MOVLW     0xfe                                                                                            
000e64   cfdb     MOVFF     0xfdb,0xfea                                                                                     
000e66   ffea                                                                                                               
000e68   50ef     MOVF      0xef,0x0,0x0                                                                                    
000e6a   0825     SUBLW     0x25                                                                                            
000e6c   e101     BNZ       0xe70                                                                                           
000e6e   d2bd     BRA       0x13ea                                                                                          
000e70   0efd     MOVLW     0xfd           			if (*format == '-') {                                                         C:\Hannibal Code1.1\printf_lib.c
000e72   cfdb     MOVFF     0xfdb,0xfe9                                                                                     
000e74   ffe9                                                                                                               
000e76   0efe     MOVLW     0xfe                                                                                            
000e78   cfdb     MOVFF     0xfdb,0xfea                                                                                     
000e7a   ffea                                                                                                               
000e7c   50ef     MOVF      0xef,0x0,0x0                                                                                    
000e7e   082d     SUBLW     0x2d                                                                                            
000e80   e10c     BNZ       0xe9a                                                                                           
000e82   0efd     MOVLW     0xfd           				++format;                                                                    C:\Hannibal Code1.1\printf_lib.c
000e84   2adb     INCF      0xdb,0x1,0x0                                                                                    
000e86   0efe     MOVLW     0xfe                                                                                            
000e88   e301     BNC       0xe8c                                                                                           
000e8a   2adb     INCF      0xdb,0x1,0x0                                                                                    
000e8c   0e01     MOVLW     0x1            				pad = PAD_RIGHT;                                                             C:\Hannibal Code1.1\printf_lib.c
000e8e   6ef3     MOVWF     0xf3,0x0                                                                                        
000e90   0e2a     MOVLW     0x2a                                                                                            
000e92   cff3     MOVFF     0xff3,0xfdb                                                                                     
000e94   ffdb                                                                                                               
000e96   0e2b     MOVLW     0x2b                                                                                            
000e98   6adb     CLRF      0xdb,0x0                                                                                        
                                           			}                                                                             C:\Hannibal Code1.1\printf_lib.c
000e9a   0efd     MOVLW     0xfd           			while (*format == '0') {                                                      C:\Hannibal Code1.1\printf_lib.c
000e9c   cfdb     MOVFF     0xfdb,0xfe9                                                                                     
000e9e   ffe9                                                                                                               
000ea0   0efe     MOVLW     0xfe                                                                                            
000ea2   cfdb     MOVFF     0xfdb,0xfea                                                                                     
000ea4   ffea                                                                                                               
000ea6   50ef     MOVF      0xef,0x0,0x0                                                                                    
000ea8   0830     SUBLW     0x30                                                                                            
000eaa   e10d     BNZ       0xec6                                                                                           
000ec4   d7ea     BRA       0xe9a                                                                                           
000eac   0efd     MOVLW     0xfd           				++format;                                                                    C:\Hannibal Code1.1\printf_lib.c
000eae   2adb     INCF      0xdb,0x1,0x0                                                                                    
000eb0   0efe     MOVLW     0xfe                                                                                            
000eb2   e301     BNC       0xeb6                                                                                           
000eb4   2adb     INCF      0xdb,0x1,0x0                                                                                    
000eb6   50d9     MOVF      0xd9,0x0,0x0   				pad |= PAD_ZERO;                                                             C:\Hannibal Code1.1\printf_lib.c
000eb8   0f2a     ADDLW     0x2a                                                                                            
000eba   6ee9     MOVWF     0xe9,0x0                                                                                        
000ebc   cfda     MOVFF     0xfda,0xfea                                                                                     
000ebe   ffea                                                                                                               
000ec0   82ee     BSF       0xee,0x1,0x0                                                                                    
000ec2   52ed     MOVF      0xed,0x1,0x0                                                                                    
                                           			}                                                                             C:\Hannibal Code1.1\printf_lib.c
000ec6   0efd     MOVLW     0xfd           			for ( ; *format >= '0' && *format <= '9'; ++format) {                         C:\Hannibal Code1.1\printf_lib.c
000ec8   cfdb     MOVFF     0xfdb,0xfe9                                                                                     
000eca   ffe9                                                                                                               
000ecc   0efe     MOVLW     0xfe                                                                                            
000ece   cfdb     MOVFF     0xfdb,0xfea                                                                                     
000ed0   ffea                                                                                                               
000ed2   cfef     MOVFF     0xfef,0x2b                                                                                      
000ed4   f02b                                                                                                               
000ed6   0e30     MOVLW     0x30                                                                                            
000ed8   5c2b     SUBWF     0x2b,0x0,0x0                                                                                    
000eda   e330     BNC       0xf3c                                                                                           
000edc   0efd     MOVLW     0xfd                                                                                            
000ede   cfdb     MOVFF     0xfdb,0xfe9                                                                                     
000ee0   ffe9                                                                                                               
000ee2   0efe     MOVLW     0xfe                                                                                            
000ee4   cfdb     MOVFF     0xfdb,0xfea                                                                                     
000ee6   ffea                                                                                                               
000ee8   50ef     MOVF      0xef,0x0,0x0                                                                                    
000eea   0839     SUBLW     0x39                                                                                            
000eec   e327     BNC       0xf3c                                                                                           
000f30   0efd     MOVLW     0xfd                                                                                            
000f32   2adb     INCF      0xdb,0x1,0x0                                                                                    
000f34   0efe     MOVLW     0xfe                                                                                            
000f36   e301     BNC       0xf3a                                                                                           
000f38   2adb     INCF      0xdb,0x1,0x0                                                                                    
000f3a   d7c5     BRA       0xec6                                                                                           
000eee   50d9     MOVF      0xd9,0x0,0x0   				width *= 10;                                                                 C:\Hannibal Code1.1\printf_lib.c
000ef0   0f28     ADDLW     0x28                                                                                            
000ef2   6ee9     MOVWF     0xe9,0x0                                                                                        
000ef4   cfda     MOVFF     0xfda,0xfea                                                                                     
000ef6   ffea                                                                                                               
000ef8   0e0a     MOVLW     0xa                                                                                             
000efa   02ec     MULWF     0xec,0x0                                                                                        
000efc   cff3     MOVFF     0xff3,0xfed                                                                                     
000efe   ffed                                                                                                               
000f00   02ef     MULWF     0xef,0x0                                                                                        
000f02   cff3     MOVFF     0xff3,0xfee                                                                                     
000f04   ffee                                                                                                               
000f06   50f4     MOVF      0xf4,0x0,0x0                                                                                    
000f08   26ed     ADDWF     0xed,0x1,0x0                                                                                    
000f0a   0efd     MOVLW     0xfd           				width += *format - '0';                                                      C:\Hannibal Code1.1\printf_lib.c
000f0c   cfdb     MOVFF     0xfdb,0xfe9                                                                                     
000f0e   ffe9                                                                                                               
000f10   0efe     MOVLW     0xfe                                                                                            
000f12   cfdb     MOVFF     0xfdb,0xfea                                                                                     
000f14   ffea                                                                                                               
000f16   50ef     MOVF      0xef,0x0,0x0                                                                                    
000f18   0fd0     ADDLW     0xd0                                                                                            
000f1a   6e2b     MOVWF     0x2b,0x0                                                                                        
000f1c   6a2c     CLRF      0x2c,0x0                                                                                        
000f1e   50d9     MOVF      0xd9,0x0,0x0                                                                                    
000f20   0f28     ADDLW     0x28                                                                                            
000f22   6ee9     MOVWF     0xe9,0x0                                                                                        
000f24   cfda     MOVFF     0xfda,0xfea                                                                                     
000f26   ffea                                                                                                               
000f28   502b     MOVF      0x2b,0x0,0x0                                                                                    
000f2a   26ee     ADDWF     0xee,0x1,0x0                                                                                    
000f2c   502c     MOVF      0x2c,0x0,0x0                                                                                    
000f2e   22ed     ADDWFC    0xed,0x1,0x0                                                                                    
                                           			}                                                                             C:\Hannibal Code1.1\printf_lib.c
000f3c   0efd     MOVLW     0xfd           			if( *format == 's' )                                                          C:\Hannibal Code1.1\printf_lib.c
000f3e   cfdb     MOVFF     0xfdb,0xfe9                                                                                     
000f40   ffe9                                                                                                               
000f42   0efe     MOVLW     0xfe                                                                                            
000f44   cfdb     MOVFF     0xfdb,0xfea                                                                                     
000f46   ffea                                                                                                               
000f48   50ef     MOVF      0xef,0x0,0x0                                                                                    
000f4a   0873     SUBLW     0x73                                                                                            
000f4c   e161     BNZ       0x1010                                                                                          
                                                 {                                                                          C:\Hannibal Code1.1\printf_lib.c
000f4e   50d9     MOVF      0xd9,0x0,0x0           strcpypgm2ram(tmpBufr,(rom char *) *varg--);                             C:\Hannibal Code1.1\printf_lib.c
000f50   0ffb     ADDLW     0xfb                                                                                            
000f52   6ee9     MOVWF     0xe9,0x0                                                                                        
000f54   0eff     MOVLW     0xff                                                                                            
000f56   20da     ADDWFC    0xda,0x0,0x0                                                                                    
000f58   6eea     MOVWF     0xea,0x0                                                                                        
000f5a   cfee     MOVFF     0xfee,0xff3                                                                                     
000f5c   fff3                                                                                                               
000f5e   cfed     MOVFF     0xfed,0xff4                                                                                     
000f60   fff4                                                                                                               
000f62   0e02     MOVLW     0x2                                                                                             
000f64   5eee     SUBWF     0xee,0x1,0x0                                                                                    
000f66   0e00     MOVLW     0x0                                                                                             
000f68   5aef     SUBWFB    0xef,0x1,0x0                                                                                    
000f6a   cff3     MOVFF     0xff3,0xfe9                                                                                     
000f6c   ffe9                                                                                                               
000f6e   cff4     MOVFF     0xff4,0xfea                                                                                     
000f70   ffea                                                                                                               
000f72   cfee     MOVFF     0xfee,0x2b                                                                                      
000f74   f02b                                                                                                               
000f76   cfef     MOVFF     0xfef,0x2c                                                                                      
000f78   f02c                                                                                                               
000f7a   6a2d     CLRF      0x2d,0x0                                                                                        
000f7c   c02b     MOVFF     0x2b,0xfe6                                                                                      
000f7e   ffe6                                                                                                               
000f80   c02c     MOVFF     0x2c,0xfe6                                                                                      
000f82   ffe6                                                                                                               
000f84   c02d     MOVFF     0x2d,0xfe6                                                                                      
000f86   ffe6                                                                                                               
000f88   cfd9     MOVFF     0xfd9,0xfe6                                                                                     
000f8a   ffe6                                                                                                               
000f8c   cfda     MOVFF     0xfda,0xfe6                                                                                     
000f8e   ffe6                                                                                                               
000f90   ec80     CALL      0x4300,0x0                                                                                      
000f92   f021                                                                                                               
000f94   6ef5     MOVWF     0xf5,0x0                                                                                        
000f96   0e05     MOVLW     0x5                                                                                             
000f98   5ee1     SUBWF     0xe1,0x1,0x0                                                                                    
000f9a   50f5     MOVF      0xf5,0x0,0x0                                                                                    
000f9c   50df     MOVF      0xdf,0x0,0x0           if (tmpBufr[0] == 0)                                                     C:\Hannibal Code1.1\printf_lib.c
000f9e   e115     BNZ       0xfca                                                                                           
000fa0   c10d     MOVFF     0x10d,0x2b               strcpypgm2ram(tmpBufr,nullStr);                                        C:\Hannibal Code1.1\printf_lib.c
000fa2   f02b                                                                                                               
000fa4   c10e     MOVFF     0x10e,0x2c                                                                                      
000fa6   f02c                                                                                                               
000fa8   6a2d     CLRF      0x2d,0x0                                                                                        
000faa   c02b     MOVFF     0x2b,0xfe6                                                                                      
000fac   ffe6                                                                                                               
000fae   c02c     MOVFF     0x2c,0xfe6                                                                                      
000fb0   ffe6                                                                                                               
000fb2   c02d     MOVFF     0x2d,0xfe6                                                                                      
000fb4   ffe6                                                                                                               
000fb6   cfd9     MOVFF     0xfd9,0xfe6                                                                                     
000fb8   ffe6                                                                                                               
000fba   cfda     MOVFF     0xfda,0xfe6                                                                                     
000fbc   ffe6                                                                                                               
000fbe   ec80     CALL      0x4300,0x0                                                                                      
000fc0   f021                                                                                                               
000fc2   6ef5     MOVWF     0xf5,0x0                                                                                        
000fc4   0e05     MOVLW     0x5                                                                                             
000fc6   5ee1     SUBWF     0xe1,0x1,0x0                                                                                    
000fc8   50f5     MOVF      0xf5,0x0,0x0                                                                                    
000fca   0e2a     MOVLW     0x2a           				pc += prints (tmpBufr, width, pad);                                          C:\Hannibal Code1.1\printf_lib.c
000fcc   cfdb     MOVFF     0xfdb,0xfe6                                                                                     
000fce   ffe6                                                                                                               
000fd0   0e2b     MOVLW     0x2b                                                                                            
000fd2   cfdb     MOVFF     0xfdb,0xfe6                                                                                     
000fd4   ffe6                                                                                                               
000fd6   0e28     MOVLW     0x28                                                                                            
000fd8   cfdb     MOVFF     0xfdb,0xfe6                                                                                     
000fda   ffe6                                                                                                               
000fdc   0e29     MOVLW     0x29                                                                                            
000fde   cfdb     MOVFF     0xfdb,0xfe6                                                                                     
000fe0   ffe6                                                                                                               
000fe2   cfd9     MOVFF     0xfd9,0xfe6                                                                                     
000fe4   ffe6                                                                                                               
000fe6   cfda     MOVFF     0xfda,0xfe6                                                                                     
000fe8   ffe6                                                                                                               
000fea   dc99     RCALL     0x91e                                                                                           
000fec   6ef5     MOVWF     0xf5,0x0                                                                                        
000fee   0e06     MOVLW     0x6                                                                                             
000ff0   5ee1     SUBWF     0xe1,0x1,0x0                                                                                    
000ff2   50f5     MOVF      0xf5,0x0,0x0                                                                                    
000ff4   cff3     MOVFF     0xff3,0x2b                                                                                      
000ff6   f02b                                                                                                               
000ff8   cff4     MOVFF     0xff4,0x2c                                                                                      
000ffa   f02c                                                                                                               
000ffc   50d9     MOVF      0xd9,0x0,0x0                                                                                    
000ffe   0f2c     ADDLW     0x2c                                                                                            
001000   6ee9     MOVWF     0xe9,0x0                                                                                        
001002   cfda     MOVFF     0xfda,0xfea                                                                                     
001004   ffea                                                                                                               
001006   502b     MOVF      0x2b,0x0,0x0                                                                                    
001008   26ee     ADDWF     0xee,0x1,0x0                                                                                    
00100a   502c     MOVF      0x2c,0x0,0x0                                                                                    
00100c   22ed     ADDWFC    0xed,0x1,0x0                                                                                    
00100e   d216     BRA       0x143c         				continue;                                                                    C:\Hannibal Code1.1\printf_lib.c
                                           			}                                                                             C:\Hannibal Code1.1\printf_lib.c
001010   0efd     MOVLW     0xfd           			if( *format == 'd' ) {                                                        C:\Hannibal Code1.1\printf_lib.c
001012   cfdb     MOVFF     0xfdb,0xfe9                                                                                     
001014   ffe9                                                                                                               
001016   0efe     MOVLW     0xfe                                                                                            
001018   cfdb     MOVFF     0xfdb,0xfea                                                                                     
00101a   ffea                                                                                                               
00101c   50ef     MOVF      0xef,0x0,0x0                                                                                    
00101e   0864     SUBLW     0x64                                                                                            
001020   e13e     BNZ       0x109e                                                                                          
001022   0e61     MOVLW     0x61           				pc += printi (*varg--, 10, 1, width, pad, 'a');                              C:\Hannibal Code1.1\printf_lib.c
001024   6ee6     MOVWF     0xe6,0x0                                                                                        
001026   6ae6     CLRF      0xe6,0x0                                                                                        
001028   0e2a     MOVLW     0x2a                                                                                            
00102a   cfdb     MOVFF     0xfdb,0xfe6                                                                                     
00102c   ffe6                                                                                                               
00102e   0e2b     MOVLW     0x2b                                                                                            
001030   cfdb     MOVFF     0xfdb,0xfe6                                                                                     
001032   ffe6                                                                                                               
001034   0e28     MOVLW     0x28                                                                                            
001036   cfdb     MOVFF     0xfdb,0xfe6                                                                                     
001038   ffe6                                                                                                               
00103a   0e29     MOVLW     0x29                                                                                            
00103c   cfdb     MOVFF     0xfdb,0xfe6                                                                                     
00103e   ffe6                                                                                                               
001040   0e01     MOVLW     0x1                                                                                             
001042   6ee6     MOVWF     0xe6,0x0                                                                                        
001044   6ae6     CLRF      0xe6,0x0                                                                                        
001046   0e0a     MOVLW     0xa                                                                                             
001048   6ee6     MOVWF     0xe6,0x0                                                                                        
00104a   6ae6     CLRF      0xe6,0x0                                                                                        
00104c   50d9     MOVF      0xd9,0x0,0x0                                                                                    
00104e   0ffb     ADDLW     0xfb                                                                                            
001050   6ee9     MOVWF     0xe9,0x0                                                                                        
001052   0eff     MOVLW     0xff                                                                                            
001054   20da     ADDWFC    0xda,0x0,0x0                                                                                    
001056   6eea     MOVWF     0xea,0x0                                                                                        
001058   cfee     MOVFF     0xfee,0xff3                                                                                     
00105a   fff3                                                                                                               
00105c   cfed     MOVFF     0xfed,0xff4                                                                                     
00105e   fff4                                                                                                               
001060   0e02     MOVLW     0x2                                                                                             
001062   5eee     SUBWF     0xee,0x1,0x0                                                                                    
001064   0e00     MOVLW     0x0                                                                                             
001066   5aef     SUBWFB    0xef,0x1,0x0                                                                                    
001068   cff3     MOVFF     0xff3,0xfe9                                                                                     
00106a   ffe9                                                                                                               
00106c   cff4     MOVFF     0xff4,0xfea                                                                                     
00106e   ffea                                                                                                               
001070   cfee     MOVFF     0xfee,0xfe6                                                                                     
001072   ffe6                                                                                                               
001074   cfef     MOVFF     0xfef,0xfe6                                                                                     
001076   ffe6                                                                                                               
001078   dd4e     RCALL     0xb16                                                                                           
00107a   6ef5     MOVWF     0xf5,0x0                                                                                        
00107c   0e0c     MOVLW     0xc                                                                                             
00107e   5ee1     SUBWF     0xe1,0x1,0x0                                                                                    
001080   50f5     MOVF      0xf5,0x0,0x0                                                                                    
001082   cff3     MOVFF     0xff3,0x2b                                                                                      
001084   f02b                                                                                                               
001086   cff4     MOVFF     0xff4,0x2c                                                                                      
001088   f02c                                                                                                               
00108a   50d9     MOVF      0xd9,0x0,0x0                                                                                    
00108c   0f2c     ADDLW     0x2c                                                                                            
00108e   6ee9     MOVWF     0xe9,0x0                                                                                        
001090   cfda     MOVFF     0xfda,0xfea                                                                                     
001092   ffea                                                                                                               
001094   502b     MOVF      0x2b,0x0,0x0                                                                                    
001096   26ee     ADDWF     0xee,0x1,0x0                                                                                    
001098   502c     MOVF      0x2c,0x0,0x0                                                                                    
00109a   22ed     ADDWFC    0xed,0x1,0x0                                                                                    
00109c   d1cf     BRA       0x143c         				continue;                                                                    C:\Hannibal Code1.1\printf_lib.c
                                           			}                                                                             C:\Hannibal Code1.1\printf_lib.c
00109e   0efd     MOVLW     0xfd           			if( *format == 'x' ) {                                                        C:\Hannibal Code1.1\printf_lib.c
0010a0   cfdb     MOVFF     0xfdb,0xfe9                                                                                     
0010a2   ffe9                                                                                                               
0010a4   0efe     MOVLW     0xfe                                                                                            
0010a6   cfdb     MOVFF     0xfdb,0xfea                                                                                     
0010a8   ffea                                                                                                               
0010aa   50ef     MOVF      0xef,0x0,0x0                                                                                    
0010ac   0878     SUBLW     0x78                                                                                            
0010ae   e13e     BNZ       0x112c                                                                                          
0010b0   0e61     MOVLW     0x61           				pc += printi (*varg--, 16, 0, width, pad, 'a');                              C:\Hannibal Code1.1\printf_lib.c
0010b2   6ee6     MOVWF     0xe6,0x0                                                                                        
0010b4   6ae6     CLRF      0xe6,0x0                                                                                        
0010b6   0e2a     MOVLW     0x2a                                                                                            
0010b8   cfdb     MOVFF     0xfdb,0xfe6                                                                                     
0010ba   ffe6                                                                                                               
0010bc   0e2b     MOVLW     0x2b                                                                                            
0010be   cfdb     MOVFF     0xfdb,0xfe6                                                                                     
0010c0   ffe6                                                                                                               
0010c2   0e28     MOVLW     0x28                                                                                            
0010c4   cfdb     MOVFF     0xfdb,0xfe6                                                                                     
0010c6   ffe6                                                                                                               
0010c8   0e29     MOVLW     0x29                                                                                            
0010ca   cfdb     MOVFF     0xfdb,0xfe6                                                                                     
0010cc   ffe6                                                                                                               
0010ce   0e00     MOVLW     0x0                                                                                             
0010d0   6ee6     MOVWF     0xe6,0x0                                                                                        
0010d2   6ae6     CLRF      0xe6,0x0                                                                                        
0010d4   0e10     MOVLW     0x10                                                                                            
0010d6   6ee6     MOVWF     0xe6,0x0                                                                                        
0010d8   6ae6     CLRF      0xe6,0x0                                                                                        
0010da   50d9     MOVF      0xd9,0x0,0x0                                                                                    
0010dc   0ffb     ADDLW     0xfb                                                                                            
0010de   6ee9     MOVWF     0xe9,0x0                                                                                        
0010e0   0eff     MOVLW     0xff                                                                                            
0010e2   20da     ADDWFC    0xda,0x0,0x0                                                                                    
0010e4   6eea     MOVWF     0xea,0x0                                                                                        
0010e6   cfee     MOVFF     0xfee,0xff3                                                                                     
0010e8   fff3                                                                                                               
0010ea   cfed     MOVFF     0xfed,0xff4                                                                                     
0010ec   fff4                                                                                                               
0010ee   0e02     MOVLW     0x2                                                                                             
0010f0   5eee     SUBWF     0xee,0x1,0x0                                                                                    
0010f2   0e00     MOVLW     0x0                                                                                             
0010f4   5aef     SUBWFB    0xef,0x1,0x0                                                                                    
0010f6   cff3     MOVFF     0xff3,0xfe9                                                                                     
0010f8   ffe9                                                                                                               
0010fa   cff4     MOVFF     0xff4,0xfea                                                                                     
0010fc   ffea                                                                                                               
0010fe   cfee     MOVFF     0xfee,0xfe6                                                                                     
001100   ffe6                                                                                                               
001102   cfef     MOVFF     0xfef,0xfe6                                                                                     
001104   ffe6                                                                                                               
001106   dd07     RCALL     0xb16                                                                                           
001108   6ef5     MOVWF     0xf5,0x0                                                                                        
00110a   0e0c     MOVLW     0xc                                                                                             
00110c   5ee1     SUBWF     0xe1,0x1,0x0                                                                                    
00110e   50f5     MOVF      0xf5,0x0,0x0                                                                                    
001110   cff3     MOVFF     0xff3,0x2b                                                                                      
001112   f02b                                                                                                               
001114   cff4     MOVFF     0xff4,0x2c                                                                                      
001116   f02c                                                                                                               
001118   50d9     MOVF      0xd9,0x0,0x0                                                                                    
00111a   0f2c     ADDLW     0x2c                                                                                            
00111c   6ee9     MOVWF     0xe9,0x0                                                                                        
00111e   cfda     MOVFF     0xfda,0xfea                                                                                     
001120   ffea                                                                                                               
001122   502b     MOVF      0x2b,0x0,0x0                                                                                    
001124   26ee     ADDWF     0xee,0x1,0x0                                                                                    
001126   502c     MOVF      0x2c,0x0,0x0                                                                                    
001128   22ed     ADDWFC    0xed,0x1,0x0                                                                                    
00112a   d188     BRA       0x143c         				continue;                                                                    C:\Hannibal Code1.1\printf_lib.c
                                           			}                                                                             C:\Hannibal Code1.1\printf_lib.c
00112c   0efd     MOVLW     0xfd           			if( *format == 'X' ) {                                                        C:\Hannibal Code1.1\printf_lib.c
00112e   cfdb     MOVFF     0xfdb,0xfe9                                                                                     
001130   ffe9                                                                                                               
001132   0efe     MOVLW     0xfe                                                                                            
001134   cfdb     MOVFF     0xfdb,0xfea                                                                                     
001136   ffea                                                                                                               
001138   50ef     MOVF      0xef,0x0,0x0                                                                                    
00113a   0858     SUBLW     0x58                                                                                            
00113c   e13e     BNZ       0x11ba                                                                                          
00113e   0e41     MOVLW     0x41           				pc += printi (*varg--, 16, 0, width, pad, 'A');                              C:\Hannibal Code1.1\printf_lib.c
001140   6ee6     MOVWF     0xe6,0x0                                                                                        
001142   6ae6     CLRF      0xe6,0x0                                                                                        
001144   0e2a     MOVLW     0x2a                                                                                            
001146   cfdb     MOVFF     0xfdb,0xfe6                                                                                     
001148   ffe6                                                                                                               
00114a   0e2b     MOVLW     0x2b                                                                                            
00114c   cfdb     MOVFF     0xfdb,0xfe6                                                                                     
00114e   ffe6                                                                                                               
001150   0e28     MOVLW     0x28                                                                                            
001152   cfdb     MOVFF     0xfdb,0xfe6                                                                                     
001154   ffe6                                                                                                               
001156   0e29     MOVLW     0x29                                                                                            
001158   cfdb     MOVFF     0xfdb,0xfe6                                                                                     
00115a   ffe6                                                                                                               
00115c   0e00     MOVLW     0x0                                                                                             
00115e   6ee6     MOVWF     0xe6,0x0                                                                                        
001160   6ae6     CLRF      0xe6,0x0                                                                                        
001162   0e10     MOVLW     0x10                                                                                            
001164   6ee6     MOVWF     0xe6,0x0                                                                                        
001166   6ae6     CLRF      0xe6,0x0                                                                                        
001168   50d9     MOVF      0xd9,0x0,0x0                                                                                    
00116a   0ffb     ADDLW     0xfb                                                                                            
00116c   6ee9     MOVWF     0xe9,0x0                                                                                        
00116e   0eff     MOVLW     0xff                                                                                            
001170   20da     ADDWFC    0xda,0x0,0x0                                                                                    
001172   6eea     MOVWF     0xea,0x0                                                                                        
001174   cfee     MOVFF     0xfee,0xff3                                                                                     
001176   fff3                                                                                                               
001178   cfed     MOVFF     0xfed,0xff4                                                                                     
00117a   fff4                                                                                                               
00117c   0e02     MOVLW     0x2                                                                                             
00117e   5eee     SUBWF     0xee,0x1,0x0                                                                                    
001180   0e00     MOVLW     0x0                                                                                             
001182   5aef     SUBWFB    0xef,0x1,0x0                                                                                    
001184   cff3     MOVFF     0xff3,0xfe9                                                                                     
001186   ffe9                                                                                                               
001188   cff4     MOVFF     0xff4,0xfea                                                                                     
00118a   ffea                                                                                                               
00118c   cfee     MOVFF     0xfee,0xfe6                                                                                     
00118e   ffe6                                                                                                               
001190   cfef     MOVFF     0xfef,0xfe6                                                                                     
001192   ffe6                                                                                                               
001194   dcc0     RCALL     0xb16                                                                                           
001196   6ef5     MOVWF     0xf5,0x0                                                                                        
001198   0e0c     MOVLW     0xc                                                                                             
00119a   5ee1     SUBWF     0xe1,0x1,0x0                                                                                    
00119c   50f5     MOVF      0xf5,0x0,0x0                                                                                    
00119e   cff3     MOVFF     0xff3,0x2b                                                                                      
0011a0   f02b                                                                                                               
0011a2   cff4     MOVFF     0xff4,0x2c                                                                                      
0011a4   f02c                                                                                                               
0011a6   50d9     MOVF      0xd9,0x0,0x0                                                                                    
0011a8   0f2c     ADDLW     0x2c                                                                                            
0011aa   6ee9     MOVWF     0xe9,0x0                                                                                        
0011ac   cfda     MOVFF     0xfda,0xfea                                                                                     
0011ae   ffea                                                                                                               
0011b0   502b     MOVF      0x2b,0x0,0x0                                                                                    
0011b2   26ee     ADDWF     0xee,0x1,0x0                                                                                    
0011b4   502c     MOVF      0x2c,0x0,0x0                                                                                    
0011b6   22ed     ADDWFC    0xed,0x1,0x0                                                                                    
0011b8   d141     BRA       0x143c         				continue;                                                                    C:\Hannibal Code1.1\printf_lib.c
                                           			}                                                                             C:\Hannibal Code1.1\printf_lib.c
0011ba   0efd     MOVLW     0xfd           			if( *format == 'u' ) {                                                        C:\Hannibal Code1.1\printf_lib.c
0011bc   cfdb     MOVFF     0xfdb,0xfe9                                                                                     
0011be   ffe9                                                                                                               
0011c0   0efe     MOVLW     0xfe                                                                                            
0011c2   cfdb     MOVFF     0xfdb,0xfea                                                                                     
0011c4   ffea                                                                                                               
0011c6   50ef     MOVF      0xef,0x0,0x0                                                                                    
0011c8   0875     SUBLW     0x75                                                                                            
0011ca   e13e     BNZ       0x1248                                                                                          
0011cc   0e61     MOVLW     0x61           				pc += printi (*varg--, 10, 0, width, pad, 'a');                              C:\Hannibal Code1.1\printf_lib.c
0011ce   6ee6     MOVWF     0xe6,0x0                                                                                        
0011d0   6ae6     CLRF      0xe6,0x0                                                                                        
0011d2   0e2a     MOVLW     0x2a                                                                                            
0011d4   cfdb     MOVFF     0xfdb,0xfe6                                                                                     
0011d6   ffe6                                                                                                               
0011d8   0e2b     MOVLW     0x2b                                                                                            
0011da   cfdb     MOVFF     0xfdb,0xfe6                                                                                     
0011dc   ffe6                                                                                                               
0011de   0e28     MOVLW     0x28                                                                                            
0011e0   cfdb     MOVFF     0xfdb,0xfe6                                                                                     
0011e2   ffe6                                                                                                               
0011e4   0e29     MOVLW     0x29                                                                                            
0011e6   cfdb     MOVFF     0xfdb,0xfe6                                                                                     
0011e8   ffe6                                                                                                               
0011ea   0e00     MOVLW     0x0                                                                                             
0011ec   6ee6     MOVWF     0xe6,0x0                                                                                        
0011ee   6ae6     CLRF      0xe6,0x0                                                                                        
0011f0   0e0a     MOVLW     0xa                                                                                             
0011f2   6ee6     MOVWF     0xe6,0x0                                                                                        
0011f4   6ae6     CLRF      0xe6,0x0                                                                                        
0011f6   50d9     MOVF      0xd9,0x0,0x0                                                                                    
0011f8   0ffb     ADDLW     0xfb                                                                                            
0011fa   6ee9     MOVWF     0xe9,0x0                                                                                        
0011fc   0eff     MOVLW     0xff                                                                                            
0011fe   20da     ADDWFC    0xda,0x0,0x0                                                                                    
001200   6eea     MOVWF     0xea,0x0                                                                                        
001202   cfee     MOVFF     0xfee,0xff3                                                                                     
001204   fff3                                                                                                               
001206   cfed     MOVFF     0xfed,0xff4                                                                                     
001208   fff4                                                                                                               
00120a   0e02     MOVLW     0x2                                                                                             
00120c   5eee     SUBWF     0xee,0x1,0x0                                                                                    
00120e   0e00     MOVLW     0x0                                                                                             
001210   5aef     SUBWFB    0xef,0x1,0x0                                                                                    
001212   cff3     MOVFF     0xff3,0xfe9                                                                                     
001214   ffe9                                                                                                               
001216   cff4     MOVFF     0xff4,0xfea                                                                                     
001218   ffea                                                                                                               
00121a   cfee     MOVFF     0xfee,0xfe6                                                                                     
00121c   ffe6                                                                                                               
00121e   cfef     MOVFF     0xfef,0xfe6                                                                                     
001220   ffe6                                                                                                               
001222   dc79     RCALL     0xb16                                                                                           
001224   6ef5     MOVWF     0xf5,0x0                                                                                        
001226   0e0c     MOVLW     0xc                                                                                             
001228   5ee1     SUBWF     0xe1,0x1,0x0                                                                                    
00122a   50f5     MOVF      0xf5,0x0,0x0                                                                                    
00122c   cff3     MOVFF     0xff3,0x2b                                                                                      
00122e   f02b                                                                                                               
001230   cff4     MOVFF     0xff4,0x2c                                                                                      
001232   f02c                                                                                                               
001234   50d9     MOVF      0xd9,0x0,0x0                                                                                    
001236   0f2c     ADDLW     0x2c                                                                                            
001238   6ee9     MOVWF     0xe9,0x0                                                                                        
00123a   cfda     MOVFF     0xfda,0xfea                                                                                     
00123c   ffea                                                                                                               
00123e   502b     MOVF      0x2b,0x0,0x0                                                                                    
001240   26ee     ADDWF     0xee,0x1,0x0                                                                                    
001242   502c     MOVF      0x2c,0x0,0x0                                                                                    
001244   22ed     ADDWFC    0xed,0x1,0x0                                                                                    
001246   d0fa     BRA       0x143c         				continue;                                                                    C:\Hannibal Code1.1\printf_lib.c
                                           			}                                                                             C:\Hannibal Code1.1\printf_lib.c
001248   0efd     MOVLW     0xfd           			if( *format == 'l' ) {    /* assumes lx */                                    C:\Hannibal Code1.1\printf_lib.c
00124a   cfdb     MOVFF     0xfdb,0xfe9                                                                                     
00124c   ffe9                                                                                                               
00124e   0efe     MOVLW     0xfe                                                                                            
001250   cfdb     MOVFF     0xfdb,0xfea                                                                                     
001252   ffea                                                                                                               
001254   50ef     MOVF      0xef,0x0,0x0                                                                                    
001256   086c     SUBLW     0x6c                                                                                            
001258   e001     BZ        0x125c                                                                                          
00125a   d081     BRA       0x135e                                                                                          
00125c   0e61     MOVLW     0x61           				pc += printi (*varg--, 16, 0, width, pad, 'a');                              C:\Hannibal Code1.1\printf_lib.c
00125e   6ee6     MOVWF     0xe6,0x0                                                                                        
001260   6ae6     CLRF      0xe6,0x0                                                                                        
001262   0e2a     MOVLW     0x2a                                                                                            
001264   cfdb     MOVFF     0xfdb,0xfe6                                                                                     
001266   ffe6                                                                                                               
001268   0e2b     MOVLW     0x2b                                                                                            
00126a   cfdb     MOVFF     0xfdb,0xfe6                                                                                     
00126c   ffe6                                                                                                               
00126e   0e28     MOVLW     0x28                                                                                            
001270   cfdb     MOVFF     0xfdb,0xfe6                                                                                     
001272   ffe6                                                                                                               
001274   0e29     MOVLW     0x29                                                                                            
001276   cfdb     MOVFF     0xfdb,0xfe6                                                                                     
001278   ffe6                                                                                                               
00127a   0e00     MOVLW     0x0                                                                                             
00127c   6ee6     MOVWF     0xe6,0x0                                                                                        
00127e   6ae6     CLRF      0xe6,0x0                                                                                        
001280   0e10     MOVLW     0x10                                                                                            
001282   6ee6     MOVWF     0xe6,0x0                                                                                        
001284   6ae6     CLRF      0xe6,0x0                                                                                        
001286   50d9     MOVF      0xd9,0x0,0x0                                                                                    
001288   0ffb     ADDLW     0xfb                                                                                            
00128a   6ee9     MOVWF     0xe9,0x0                                                                                        
00128c   0eff     MOVLW     0xff                                                                                            
00128e   20da     ADDWFC    0xda,0x0,0x0                                                                                    
001290   6eea     MOVWF     0xea,0x0                                                                                        
001292   cfee     MOVFF     0xfee,0xff3                                                                                     
001294   fff3                                                                                                               
001296   cfed     MOVFF     0xfed,0xff4                                                                                     
001298   fff4                                                                                                               
00129a   0e02     MOVLW     0x2                                                                                             
00129c   5eee     SUBWF     0xee,0x1,0x0                                                                                    
00129e   0e00     MOVLW     0x0                                                                                             
0012a0   5aef     SUBWFB    0xef,0x1,0x0                                                                                    
0012a2   cff3     MOVFF     0xff3,0xfe9                                                                                     
0012a4   ffe9                                                                                                               
0012a6   cff4     MOVFF     0xff4,0xfea                                                                                     
0012a8   ffea                                                                                                               
0012aa   cfee     MOVFF     0xfee,0xfe6                                                                                     
0012ac   ffe6                                                                                                               
0012ae   cfef     MOVFF     0xfef,0xfe6                                                                                     
0012b0   ffe6                                                                                                               
0012b2   dc31     RCALL     0xb16                                                                                           
0012b4   6ef5     MOVWF     0xf5,0x0                                                                                        
0012b6   0e0c     MOVLW     0xc                                                                                             
0012b8   5ee1     SUBWF     0xe1,0x1,0x0                                                                                    
0012ba   50f5     MOVF      0xf5,0x0,0x0                                                                                    
0012bc   cff3     MOVFF     0xff3,0x2b                                                                                      
0012be   f02b                                                                                                               
0012c0   cff4     MOVFF     0xff4,0x2c                                                                                      
0012c2   f02c                                                                                                               
0012c4   50d9     MOVF      0xd9,0x0,0x0                                                                                    
0012c6   0f2c     ADDLW     0x2c                                                                                            
0012c8   6ee9     MOVWF     0xe9,0x0                                                                                        
0012ca   cfda     MOVFF     0xfda,0xfea                                                                                     
0012cc   ffea                                                                                                               
0012ce   502b     MOVF      0x2b,0x0,0x0                                                                                    
0012d0   26ee     ADDWF     0xee,0x1,0x0                                                                                    
0012d2   502c     MOVF      0x2c,0x0,0x0                                                                                    
0012d4   22ed     ADDWFC    0xed,0x1,0x0                                                                                    
0012d6   0e61     MOVLW     0x61           				pc += printi (*varg--, 16, 0, width, pad, 'a');                              C:\Hannibal Code1.1\printf_lib.c
0012d8   6ee6     MOVWF     0xe6,0x0                                                                                        
0012da   6ae6     CLRF      0xe6,0x0                                                                                        
0012dc   0e2a     MOVLW     0x2a                                                                                            
0012de   cfdb     MOVFF     0xfdb,0xfe6                                                                                     
0012e0   ffe6                                                                                                               
0012e2   0e2b     MOVLW     0x2b                                                                                            
0012e4   cfdb     MOVFF     0xfdb,0xfe6                                                                                     
0012e6   ffe6                                                                                                               
0012e8   0e28     MOVLW     0x28                                                                                            
0012ea   cfdb     MOVFF     0xfdb,0xfe6                                                                                     
0012ec   ffe6                                                                                                               
0012ee   0e29     MOVLW     0x29                                                                                            
0012f0   cfdb     MOVFF     0xfdb,0xfe6                                                                                     
0012f2   ffe6                                                                                                               
0012f4   0e00     MOVLW     0x0                                                                                             
0012f6   6ee6     MOVWF     0xe6,0x0                                                                                        
0012f8   6ae6     CLRF      0xe6,0x0                                                                                        
0012fa   0e10     MOVLW     0x10                                                                                            
0012fc   6ee6     MOVWF     0xe6,0x0                                                                                        
0012fe   6ae6     CLRF      0xe6,0x0                                                                                        
001300   50d9     MOVF      0xd9,0x0,0x0                                                                                    
001302   0ffb     ADDLW     0xfb                                                                                            
001304   6ee9     MOVWF     0xe9,0x0                                                                                        
001306   0eff     MOVLW     0xff                                                                                            
001308   20da     ADDWFC    0xda,0x0,0x0                                                                                    
00130a   6eea     MOVWF     0xea,0x0                                                                                        
00130c   cfee     MOVFF     0xfee,0xff3                                                                                     
00130e   fff3                                                                                                               
001310   cfed     MOVFF     0xfed,0xff4                                                                                     
001312   fff4                                                                                                               
001314   0e02     MOVLW     0x2                                                                                             
001316   5eee     SUBWF     0xee,0x1,0x0                                                                                    
001318   0e00     MOVLW     0x0                                                                                             
00131a   5aef     SUBWFB    0xef,0x1,0x0                                                                                    
00131c   cff3     MOVFF     0xff3,0xfe9                                                                                     
00131e   ffe9                                                                                                               
001320   cff4     MOVFF     0xff4,0xfea                                                                                     
001322   ffea                                                                                                               
001324   cfee     MOVFF     0xfee,0xfe6                                                                                     
001326   ffe6                                                                                                               
001328   cfef     MOVFF     0xfef,0xfe6                                                                                     
00132a   ffe6                                                                                                               
00132c   ec8b     CALL      0xb16,0x0                                                                                       
00132e   f005                                                                                                               
001330   6ef5     MOVWF     0xf5,0x0                                                                                        
001332   0e0c     MOVLW     0xc                                                                                             
001334   5ee1     SUBWF     0xe1,0x1,0x0                                                                                    
001336   50f5     MOVF      0xf5,0x0,0x0                                                                                    
001338   cff3     MOVFF     0xff3,0x2b                                                                                      
00133a   f02b                                                                                                               
00133c   cff4     MOVFF     0xff4,0x2c                                                                                      
00133e   f02c                                                                                                               
001340   50d9     MOVF      0xd9,0x0,0x0                                                                                    
001342   0f2c     ADDLW     0x2c                                                                                            
001344   6ee9     MOVWF     0xe9,0x0                                                                                        
001346   cfda     MOVFF     0xfda,0xfea                                                                                     
001348   ffea                                                                                                               
00134a   502b     MOVF      0x2b,0x0,0x0                                                                                    
00134c   26ee     ADDWF     0xee,0x1,0x0                                                                                    
00134e   502c     MOVF      0x2c,0x0,0x0                                                                                    
001350   22ed     ADDWFC    0xed,0x1,0x0                                                                                    
001352   0efd     MOVLW     0xfd           				format++;               /* skip over x*/                                     C:\Hannibal Code1.1\printf_lib.c
001354   2adb     INCF      0xdb,0x1,0x0                                                                                    
001356   0efe     MOVLW     0xfe                                                                                            
001358   e301     BNC       0x135c                                                                                          
00135a   2adb     INCF      0xdb,0x1,0x0                                                                                    
00135c   d06f     BRA       0x143c         				continue;                                                                    C:\Hannibal Code1.1\printf_lib.c
                                           			}                                                                             C:\Hannibal Code1.1\printf_lib.c
00135e   0efd     MOVLW     0xfd           			if( *format == 'b' ) {                                                        C:\Hannibal Code1.1\printf_lib.c
001360   cfdb     MOVFF     0xfdb,0xfe9                                                                                     
001362   ffe9                                                                                                               
001364   0efe     MOVLW     0xfe                                                                                            
001366   cfdb     MOVFF     0xfdb,0xfea                                                                                     
001368   ffea                                                                                                               
00136a   50ef     MOVF      0xef,0x0,0x0                                                                                    
00136c   0862     SUBLW     0x62                                                                                            
00136e   e13c     BNZ       0x13e8                                                                                          
001370   0e61     MOVLW     0x61           				pc += printi (*varg--, 2, 0, width, 2, 'a');                                 C:\Hannibal Code1.1\printf_lib.c
001372   6ee6     MOVWF     0xe6,0x0                                                                                        
001374   6ae6     CLRF      0xe6,0x0                                                                                        
001376   0e02     MOVLW     0x2                                                                                             
001378   6ee6     MOVWF     0xe6,0x0                                                                                        
00137a   6ae6     CLRF      0xe6,0x0                                                                                        
00137c   0e28     MOVLW     0x28                                                                                            
00137e   cfdb     MOVFF     0xfdb,0xfe6                                                                                     
001380   ffe6                                                                                                               
001382   0e29     MOVLW     0x29                                                                                            
001384   cfdb     MOVFF     0xfdb,0xfe6                                                                                     
001386   ffe6                                                                                                               
001388   0e00     MOVLW     0x0                                                                                             
00138a   6ee6     MOVWF     0xe6,0x0                                                                                        
00138c   6ae6     CLRF      0xe6,0x0                                                                                        
00138e   0e02     MOVLW     0x2                                                                                             
001390   6ee6     MOVWF     0xe6,0x0                                                                                        
001392   6ae6     CLRF      0xe6,0x0                                                                                        
001394   50d9     MOVF      0xd9,0x0,0x0                                                                                    
001396   0ffb     ADDLW     0xfb                                                                                            
001398   6ee9     MOVWF     0xe9,0x0                                                                                        
00139a   0eff     MOVLW     0xff                                                                                            
00139c   20da     ADDWFC    0xda,0x0,0x0                                                                                    
00139e   6eea     MOVWF     0xea,0x0                                                                                        
0013a0   cfee     MOVFF     0xfee,0xff3                                                                                     
0013a2   fff3                                                                                                               
0013a4   cfed     MOVFF     0xfed,0xff4                                                                                     
0013a6   fff4                                                                                                               
0013a8   0e02     MOVLW     0x2                                                                                             
0013aa   5eee     SUBWF     0xee,0x1,0x0                                                                                    
0013ac   0e00     MOVLW     0x0                                                                                             
0013ae   5aef     SUBWFB    0xef,0x1,0x0                                                                                    
0013b0   cff3     MOVFF     0xff3,0xfe9                                                                                     
0013b2   ffe9                                                                                                               
0013b4   cff4     MOVFF     0xff4,0xfea                                                                                     
0013b6   ffea                                                                                                               
0013b8   cfee     MOVFF     0xfee,0xfe6                                                                                     
0013ba   ffe6                                                                                                               
0013bc   cfef     MOVFF     0xfef,0xfe6                                                                                     
0013be   ffe6                                                                                                               
0013c0   ec8b     CALL      0xb16,0x0                                                                                       
0013c2   f005                                                                                                               
0013c4   6ef5     MOVWF     0xf5,0x0                                                                                        
0013c6   0e0c     MOVLW     0xc                                                                                             
0013c8   5ee1     SUBWF     0xe1,0x1,0x0                                                                                    
0013ca   50f5     MOVF      0xf5,0x0,0x0                                                                                    
0013cc   cff3     MOVFF     0xff3,0x2b                                                                                      
0013ce   f02b                                                                                                               
0013d0   cff4     MOVFF     0xff4,0x2c                                                                                      
0013d2   f02c                                                                                                               
0013d4   50d9     MOVF      0xd9,0x0,0x0                                                                                    
0013d6   0f2c     ADDLW     0x2c                                                                                            
0013d8   6ee9     MOVWF     0xe9,0x0                                                                                        
0013da   cfda     MOVFF     0xfda,0xfea                                                                                     
0013dc   ffea                                                                                                               
0013de   502b     MOVF      0x2b,0x0,0x0                                                                                    
0013e0   26ee     ADDWF     0xee,0x1,0x0                                                                                    
0013e2   502c     MOVF      0x2c,0x0,0x0                                                                                    
0013e4   22ed     ADDWFC    0xed,0x1,0x0                                                                                    
0013e6   d02a     BRA       0x143c         				continue;                                                                    C:\Hannibal Code1.1\printf_lib.c
                                           			}                                                                             C:\Hannibal Code1.1\printf_lib.c
                                           		}                                                                              C:\Hannibal Code1.1\printf_lib.c
0013e8   d029     BRA       0x143c         		else {                                                                         C:\Hannibal Code1.1\printf_lib.c
                                           		out:                                                                           C:\Hannibal Code1.1\printf_lib.c
0013ea   0efd     MOVLW     0xfd                 if (*format == '\n') *format = '\r';  /* replace line feed with cr */      C:\Hannibal Code1.1\printf_lib.c
0013ec   cfdb     MOVFF     0xfdb,0xfe9                                                                                     
0013ee   ffe9                                                                                                               
0013f0   0efe     MOVLW     0xfe                                                                                            
0013f2   cfdb     MOVFF     0xfdb,0xfea                                                                                     
0013f4   ffea                                                                                                               
0013f6   50ef     MOVF      0xef,0x0,0x0                                                                                    
0013f8   080a     SUBLW     0xa                                                                                             
0013fa   e108     BNZ       0x140c                                                                                          
0013fc   0efd     MOVLW     0xfd                                                                                            
0013fe   cfdb     MOVFF     0xfdb,0xfe9                                                                                     
001400   ffe9                                                                                                               
001402   0efe     MOVLW     0xfe                                                                                            
001404   cfdb     MOVFF     0xfdb,0xfea                                                                                     
001406   ffea                                                                                                               
001408   0e0d     MOVLW     0xd                                                                                             
00140a   6eef     MOVWF     0xef,0x0                                                                                        
00140c   0efd     MOVLW     0xfd           			Write_Byte_To_Uart (*format);                                                 C:\Hannibal Code1.1\printf_lib.c
00140e   cfdb     MOVFF     0xfdb,0xfe9                                                                                     
001410   ffe9                                                                                                               
001412   0efe     MOVLW     0xfe                                                                                            
001414   cfdb     MOVFF     0xfdb,0xfea                                                                                     
001416   ffea                                                                                                               
001418   cfef     MOVFF     0xfef,0x2b                                                                                      
00141a   f02b                                                                                                               
00141c   6a2c     CLRF      0x2c,0x0                                                                                        
00141e   be2b     BTFSC     0x2b,0x7,0x0                                                                                    
001420   682c     SETF      0x2c,0x0                                                                                        
001422   c02b     MOVFF     0x2b,0xfe6                                                                                      
001424   ffe6                                                                                                               
001426   c02c     MOVFF     0x2c,0xfe6                                                                                      
001428   ffe6                                                                                                               
00142a   ec82     CALL      0x904,0x0                                                                                       
00142c   f004                                                                                                               
00142e   52e5     MOVF      0xe5,0x1,0x0                                                                                    
001430   52e5     MOVF      0xe5,0x1,0x0                                                                                    
001432   0e2c     MOVLW     0x2c           			++pc;                                                                         C:\Hannibal Code1.1\printf_lib.c
001434   2adb     INCF      0xdb,0x1,0x0                                                                                    
001436   0e2d     MOVLW     0x2d                                                                                            
001438   e301     BNC       0x143c                                                                                          
00143a   2adb     INCF      0xdb,0x1,0x0                                                                                    
                                           		}                                                                              C:\Hannibal Code1.1\printf_lib.c
                                           	}                                                                               C:\Hannibal Code1.1\printf_lib.c
001448   0e2c     MOVLW     0x2c           	return pc;                                                                      C:\Hannibal Code1.1\printf_lib.c
00144a   cfdb     MOVFF     0xfdb,0x2b                                                                                      
00144c   f02b                                                                                                               
00144e   0e2d     MOVLW     0x2d                                                                                            
001450   cfdb     MOVFF     0xfdb,0x2c                                                                                      
001452   f02c                                                                                                               
001454   c02b     MOVFF     0x2b,0xff3                                                                                      
001456   fff3                                                                                                               
001458   c02c     MOVFF     0x2c,0xff4                                                                                      
00145a   fff4                                                                                                               
00145c   d000     BRA       0x145e                                                                                          
00145e   cfd9     MOVFF     0xfd9,0xfe1    }                                                                                C:\Hannibal Code1.1\printf_lib.c
001460   ffe1                                                                                                               
001462   52e5     MOVF      0xe5,0x1,0x0                                                                                    
001464   cfe7     MOVFF     0xfe7,0xfd9                                                                                     
001466   ffd9                                                                                                               
001468   0012     RETURN    0x0                                                                                             
                                                                                                                            C:\Hannibal Code1.1\printf_lib.c
                                           /******************************************************************************* C:\Hannibal Code1.1\printf_lib.c
                                           * FUNCTION NAME: printf                                                          C:\Hannibal Code1.1\printf_lib.c
                                           * PURPOSE:       Formats an output stream.                                       C:\Hannibal Code1.1\printf_lib.c
                                           * RETURNS:       void                                                            C:\Hannibal Code1.1\printf_lib.c
                                           *******************************************************************************/ C:\Hannibal Code1.1\printf_lib.c
                                                                                                                            C:\Hannibal Code1.1\printf_lib.c
00146a   cfd9     MOVFF     0xfd9,0xfe6    int printf(rom const char *format, ...)                                          C:\Hannibal Code1.1\printf_lib.c
00146c   ffe6                                                                                                               
00146e   cfe1     MOVFF     0xfe1,0xfd9                                                                                     
001470   ffd9                                                                                                               
001472   0e02     MOVLW     0x2                                                                                             
001474   26e1     ADDWF     0xe1,0x1,0x0                                                                                    
                                           {                                                                                C:\Hannibal Code1.1\printf_lib.c
001476   50d9     MOVF      0xd9,0x0,0x0       register int *varg = (int *)(&format);                                       C:\Hannibal Code1.1\printf_lib.c
001478   0ffd     ADDLW     0xfd                                                                                            
00147a   6e2b     MOVWF     0x2b,0x0                                                                                        
00147c   0eff     MOVLW     0xff                                                                                            
00147e   20da     ADDWFC    0xda,0x0,0x0                                                                                    
001480   6e2c     MOVWF     0x2c,0x0                                                                                        
001482   c02b     MOVFF     0x2b,0xfde                                                                                      
001484   ffde                                                                                                               
001486   c02c     MOVFF     0x2c,0xfdd                                                                                      
001488   ffdd                                                                                                               
                                               /*                                                                           C:\Hannibal Code1.1\printf_lib.c
                                                  Since constant strings are kept in program (flash) memory, the strcpypgm2ram C:\Hannibal Code1.1\printf_lib.c
                                                  routine copies the string from flash to ram.                              C:\Hannibal Code1.1\printf_lib.c
                                               */                                                                           C:\Hannibal Code1.1\printf_lib.c
00148a   0efd     MOVLW     0xfd               strcpypgm2ram(ifi_printfBufr,(rom char *) format);                           C:\Hannibal Code1.1\printf_lib.c
00148c   cfdb     MOVFF     0xfdb,0x2b                                                                                      
00148e   f02b                                                                                                               
001490   0efe     MOVLW     0xfe                                                                                            
001492   cfdb     MOVFF     0xfdb,0x2c                                                                                      
001494   f02c                                                                                                               
001496   6a2d     CLRF      0x2d,0x0                                                                                        
001498   c02b     MOVFF     0x2b,0xfe6                                                                                      
00149a   ffe6                                                                                                               
00149c   c02c     MOVFF     0x2c,0xfe6                                                                                      
00149e   ffe6                                                                                                               
0014a0   c02d     MOVFF     0x2d,0xfe6                                                                                      
0014a2   ffe6                                                                                                               
0014a4   0e00     MOVLW     0x0                                                                                             
0014a6   6ee6     MOVWF     0xe6,0x0                                                                                        
0014a8   0e07     MOVLW     0x7                                                                                             
0014aa   6ee6     MOVWF     0xe6,0x0                                                                                        
0014ac   ec80     CALL      0x4300,0x0                                                                                      
0014ae   f021                                                                                                               
0014b0   6ef5     MOVWF     0xf5,0x0                                                                                        
0014b2   0e05     MOVLW     0x5                                                                                             
0014b4   5ee1     SUBWF     0xe1,0x1,0x0                                                                                    
0014b6   50f5     MOVF      0xf5,0x0,0x0                                                                                    
                                                                                                                            C:\Hannibal Code1.1\printf_lib.c
0014b8   cfd9     MOVFF     0xfd9,0xfe9        varg--; /* adjust stack for Microchip C Compiler */                          C:\Hannibal Code1.1\printf_lib.c
0014ba   ffe9                                                                                                               
0014bc   cfda     MOVFF     0xfda,0xfea                                                                                     
0014be   ffea                                                                                                               
0014c0   0e02     MOVLW     0x2                                                                                             
0014c2   5eee     SUBWF     0xee,0x1,0x0                                                                                    
0014c4   0e00     MOVLW     0x0                                                                                             
0014c6   5aef     SUBWFB    0xef,0x1,0x0                                                                                    
0014c8   cfde     MOVFF     0xfde,0xfe6        return print(ifi_printfBufr, varg);                                          C:\Hannibal Code1.1\printf_lib.c
0014ca   ffe6                                                                                                               
0014cc   cfdd     MOVFF     0xfdd,0xfe6                                                                                     
0014ce   ffe6                                                                                                               
0014d0   0e00     MOVLW     0x0                                                                                             
0014d2   6ee6     MOVWF     0xe6,0x0                                                                                        
0014d4   0e07     MOVLW     0x7                                                                                             
0014d6   6ee6     MOVWF     0xe6,0x0                                                                                        
0014d8   dc8b     RCALL     0xdf0                                                                                           
0014da   52e5     MOVF      0xe5,0x1,0x0                                                                                    
0014dc   52e5     MOVF      0xe5,0x1,0x0                                                                                    
0014de   52e5     MOVF      0xe5,0x1,0x0                                                                                    
0014e0   52e5     MOVF      0xe5,0x1,0x0                                                                                    
0014e2   d000     BRA       0x14e4                                                                                          
0014e4   cfd9     MOVFF     0xfd9,0xfe1    }                                                                                C:\Hannibal Code1.1\printf_lib.c
0014e6   ffe1                                                                                                               
0014e8   52e5     MOVF      0xe5,0x1,0x0                                                                                    
0014ea   cfe7     MOVFF     0xfe7,0xfd9                                                                                     
0014ec   ffd9                                                                                                               
0014ee   0012     RETURN    0x0                                                                                             
                                                                                                                            C:\Hannibal Code1.1\printf_lib.c
                                           /******************************************************************************  C:\Hannibal Code1.1\printf_lib.c
                                           *                                                                                C:\Hannibal Code1.1\printf_lib.c
                                           * The following routines are examples how to use the printf library routines     C:\Hannibal Code1.1\printf_lib.c
                                           * to create your own output modules:                                             C:\Hannibal Code1.1\printf_lib.c
                                           *                                                                                C:\Hannibal Code1.1\printf_lib.c
                                           *******************************************************************************/ C:\Hannibal Code1.1\printf_lib.c
                                                                                                                            C:\Hannibal Code1.1\printf_lib.c
                                           /******************************************************************************* C:\Hannibal Code1.1\printf_lib.c
                                           * FUNCTION NAME: printid                                                         C:\Hannibal Code1.1\printf_lib.c
                                           * PURPOSE:       Prints a 16bit word (base 10) w/o a carriage return.            C:\Hannibal Code1.1\printf_lib.c
                                           * RETURNS:       void                                                            C:\Hannibal Code1.1\printf_lib.c
                                           *******************************************************************************/ C:\Hannibal Code1.1\printf_lib.c
                                                                                                                            C:\Hannibal Code1.1\printf_lib.c
0014f0   cfd9     MOVFF     0xfd9,0xfe6    void printid(int data,int crtOn)                                                 C:\Hannibal Code1.1\printf_lib.c
0014f2   ffe6                                                                                                               
0014f4   cfe1     MOVFF     0xfe1,0xfd9                                                                                     
0014f6   ffd9                                                                                                               
                                           {                                                                                C:\Hannibal Code1.1\printf_lib.c
0014f8   0e61     MOVLW     0x61             printi (data, 10, 1, 4, 2, 'a');                                               C:\Hannibal Code1.1\printf_lib.c
0014fa   6ee6     MOVWF     0xe6,0x0                                                                                        
0014fc   6ae6     CLRF      0xe6,0x0                                                                                        
0014fe   0e02     MOVLW     0x2                                                                                             
001500   6ee6     MOVWF     0xe6,0x0                                                                                        
001502   6ae6     CLRF      0xe6,0x0                                                                                        
001504   0e04     MOVLW     0x4                                                                                             
001506   6ee6     MOVWF     0xe6,0x0                                                                                        
001508   6ae6     CLRF      0xe6,0x0                                                                                        
00150a   0e01     MOVLW     0x1                                                                                             
00150c   6ee6     MOVWF     0xe6,0x0                                                                                        
00150e   6ae6     CLRF      0xe6,0x0                                                                                        
001510   0e0a     MOVLW     0xa                                                                                             
001512   6ee6     MOVWF     0xe6,0x0                                                                                        
001514   6ae6     CLRF      0xe6,0x0                                                                                        
001516   0efd     MOVLW     0xfd                                                                                            
001518   cfdb     MOVFF     0xfdb,0xfe6                                                                                     
00151a   ffe6                                                                                                               
00151c   0efe     MOVLW     0xfe                                                                                            
00151e   cfdb     MOVFF     0xfdb,0xfe6                                                                                     
001520   ffe6                                                                                                               
001522   ec8b     CALL      0xb16,0x0                                                                                       
001524   f005                                                                                                               
001526   6ef5     MOVWF     0xf5,0x0                                                                                        
001528   0e0c     MOVLW     0xc                                                                                             
00152a   5ee1     SUBWF     0xe1,0x1,0x0                                                                                    
00152c   50f5     MOVF      0xf5,0x0,0x0                                                                                    
00152e   50d9     MOVF      0xd9,0x0,0x0     if (crtOn)                                                                     C:\Hannibal Code1.1\printf_lib.c
001530   0ffb     ADDLW     0xfb                                                                                            
001532   6ee9     MOVWF     0xe9,0x0                                                                                        
001534   0eff     MOVLW     0xff                                                                                            
001536   20da     ADDWFC    0xda,0x0,0x0                                                                                    
001538   6eea     MOVWF     0xea,0x0                                                                                        
00153a   50ee     MOVF      0xee,0x0,0x0                                                                                    
00153c   10ed     IORWF     0xed,0x0,0x0                                                                                    
00153e   e007     BZ        0x154e                                                                                          
001540   0e0d     MOVLW     0xd                Write_Byte_To_Uart('\r');                                                    C:\Hannibal Code1.1\printf_lib.c
001542   6ee6     MOVWF     0xe6,0x0                                                                                        
001544   6ae6     CLRF      0xe6,0x0                                                                                        
001546   ec82     CALL      0x904,0x0                                                                                       
001548   f004                                                                                                               
00154a   52e5     MOVF      0xe5,0x1,0x0                                                                                    
00154c   52e5     MOVF      0xe5,0x1,0x0                                                                                    
00154e   52e5     MOVF      0xe5,0x1,0x0   }                                                                                C:\Hannibal Code1.1\printf_lib.c
001550   cfe7     MOVFF     0xfe7,0xfd9                                                                                     
001552   ffd9                                                                                                               
001554   0012     RETURN    0x0                                                                                             
                                                                                                                            C:\Hannibal Code1.1\printf_lib.c
                                           /******************************************************************************* C:\Hannibal Code1.1\printf_lib.c
                                           * FUNCTION NAME: printd                                                          C:\Hannibal Code1.1\printf_lib.c
                                           * PURPOSE:       Prints an 8bit word (base 10) w/o a carriage return.            C:\Hannibal Code1.1\printf_lib.c
                                           * RETURNS:       void                                                            C:\Hannibal Code1.1\printf_lib.c
                                           *******************************************************************************/ C:\Hannibal Code1.1\printf_lib.c
                                                                                                                            C:\Hannibal Code1.1\printf_lib.c
001556   cfd9     MOVFF     0xfd9,0xfe6    void printd(unsigned char data,int crtOn)                                        C:\Hannibal Code1.1\printf_lib.c
001558   ffe6                                                                                                               
00155a   cfe1     MOVFF     0xfe1,0xfd9                                                                                     
00155c   ffd9                                                                                                               
                                           {                                                                                C:\Hannibal Code1.1\printf_lib.c
00155e   0e61     MOVLW     0x61             printi ((int) data, 10, 1, 3, 2, 'a');                                         C:\Hannibal Code1.1\printf_lib.c
001560   6ee6     MOVWF     0xe6,0x0                                                                                        
001562   6ae6     CLRF      0xe6,0x0                                                                                        
001564   0e02     MOVLW     0x2                                                                                             
001566   6ee6     MOVWF     0xe6,0x0                                                                                        
001568   6ae6     CLRF      0xe6,0x0                                                                                        
00156a   0e03     MOVLW     0x3                                                                                             
00156c   6ee6     MOVWF     0xe6,0x0                                                                                        
00156e   6ae6     CLRF      0xe6,0x0                                                                                        
001570   0e01     MOVLW     0x1                                                                                             
001572   6ee6     MOVWF     0xe6,0x0                                                                                        
001574   6ae6     CLRF      0xe6,0x0                                                                                        
001576   0e0a     MOVLW     0xa                                                                                             
001578   6ee6     MOVWF     0xe6,0x0                                                                                        
00157a   6ae6     CLRF      0xe6,0x0                                                                                        
00157c   0efe     MOVLW     0xfe                                                                                            
00157e   cfdb     MOVFF     0xfdb,0xfe6                                                                                     
001580   ffe6                                                                                                               
001582   6ae6     CLRF      0xe6,0x0                                                                                        
001584   ec8b     CALL      0xb16,0x0                                                                                       
001586   f005                                                                                                               
001588   6ef5     MOVWF     0xf5,0x0                                                                                        
00158a   0e0c     MOVLW     0xc                                                                                             
00158c   5ee1     SUBWF     0xe1,0x1,0x0                                                                                    
00158e   50f5     MOVF      0xf5,0x0,0x0                                                                                    
001590   50d9     MOVF      0xd9,0x0,0x0     if (crtOn)                                                                     C:\Hannibal Code1.1\printf_lib.c
001592   0ffc     ADDLW     0xfc                                                                                            
001594   6ee9     MOVWF     0xe9,0x0                                                                                        
001596   0eff     MOVLW     0xff                                                                                            
001598   20da     ADDWFC    0xda,0x0,0x0                                                                                    
00159a   6eea     MOVWF     0xea,0x0                                                                                        
00159c   50ee     MOVF      0xee,0x0,0x0                                                                                    
00159e   10ed     IORWF     0xed,0x0,0x0                                                                                    
0015a0   e007     BZ        0x15b0                                                                                          
0015a2   0e0d     MOVLW     0xd                Write_Byte_To_Uart('\r');                                                    C:\Hannibal Code1.1\printf_lib.c
0015a4   6ee6     MOVWF     0xe6,0x0                                                                                        
0015a6   6ae6     CLRF      0xe6,0x0                                                                                        
0015a8   ec82     CALL      0x904,0x0                                                                                       
0015aa   f004                                                                                                               
0015ac   52e5     MOVF      0xe5,0x1,0x0                                                                                    
0015ae   52e5     MOVF      0xe5,0x1,0x0                                                                                    
0015b0   52e5     MOVF      0xe5,0x1,0x0   }                                                                                C:\Hannibal Code1.1\printf_lib.c
0015b2   cfe7     MOVFF     0xfe7,0xfd9                                                                                     
0015b4   ffd9                                                                                                               
0015b6   0012     RETURN    0x0                                                                                             
                                                                                                                            C:\Hannibal Code1.1\printf_lib.c
                                           /******************************************************************************* C:\Hannibal Code1.1\printf_lib.c
                                           * FUNCTION NAME: printib                                                         C:\Hannibal Code1.1\printf_lib.c
                                           * PURPOSE:       Prints a 16bit binary word (base 2) w/o a carriage return.      C:\Hannibal Code1.1\printf_lib.c
                                           * RETURNS:       void                                                            C:\Hannibal Code1.1\printf_lib.c
                                           *******************************************************************************/ C:\Hannibal Code1.1\printf_lib.c
                                                                                                                            C:\Hannibal Code1.1\printf_lib.c
0015b8   cfd9     MOVFF     0xfd9,0xfe6    void printib(unsigned int data,int crtOn)                                        C:\Hannibal Code1.1\printf_lib.c
0015ba   ffe6                                                                                                               
0015bc   cfe1     MOVFF     0xfe1,0xfd9                                                                                     
0015be   ffd9                                                                                                               
                                           {                                                                                C:\Hannibal Code1.1\printf_lib.c
0015c0   0e61     MOVLW     0x61             printi (data, 2, 0, 16, 2, 'a');                                               C:\Hannibal Code1.1\printf_lib.c
0015c2   6ee6     MOVWF     0xe6,0x0                                                                                        
0015c4   6ae6     CLRF      0xe6,0x0                                                                                        
0015c6   0e02     MOVLW     0x2                                                                                             
0015c8   6ee6     MOVWF     0xe6,0x0                                                                                        
0015ca   6ae6     CLRF      0xe6,0x0                                                                                        
0015cc   0e10     MOVLW     0x10                                                                                            
0015ce   6ee6     MOVWF     0xe6,0x0                                                                                        
0015d0   6ae6     CLRF      0xe6,0x0                                                                                        
0015d2   0e00     MOVLW     0x0                                                                                             
0015d4   6ee6     MOVWF     0xe6,0x0                                                                                        
0015d6   6ae6     CLRF      0xe6,0x0                                                                                        
0015d8   0e02     MOVLW     0x2                                                                                             
0015da   6ee6     MOVWF     0xe6,0x0                                                                                        
0015dc   6ae6     CLRF      0xe6,0x0                                                                                        
0015de   0efd     MOVLW     0xfd                                                                                            
0015e0   cfdb     MOVFF     0xfdb,0xfe6                                                                                     
0015e2   ffe6                                                                                                               
0015e4   0efe     MOVLW     0xfe                                                                                            
0015e6   cfdb     MOVFF     0xfdb,0xfe6                                                                                     
0015e8   ffe6                                                                                                               
0015ea   ec8b     CALL      0xb16,0x0                                                                                       
0015ec   f005                                                                                                               
0015ee   6ef5     MOVWF     0xf5,0x0                                                                                        
0015f0   0e0c     MOVLW     0xc                                                                                             
0015f2   5ee1     SUBWF     0xe1,0x1,0x0                                                                                    
0015f4   50f5     MOVF      0xf5,0x0,0x0                                                                                    
0015f6   50d9     MOVF      0xd9,0x0,0x0     if (crtOn)                                                                     C:\Hannibal Code1.1\printf_lib.c
0015f8   0ffb     ADDLW     0xfb                                                                                            
0015fa   6ee9     MOVWF     0xe9,0x0                                                                                        
0015fc   0eff     MOVLW     0xff                                                                                            
0015fe   20da     ADDWFC    0xda,0x0,0x0                                                                                    
001600   6eea     MOVWF     0xea,0x0                                                                                        
001602   50ee     MOVF      0xee,0x0,0x0                                                                                    
001604   10ed     IORWF     0xed,0x0,0x0                                                                                    
001606   e007     BZ        0x1616                                                                                          
001608   0e0d     MOVLW     0xd                Write_Byte_To_Uart('\r');                                                    C:\Hannibal Code1.1\printf_lib.c
00160a   6ee6     MOVWF     0xe6,0x0                                                                                        
00160c   6ae6     CLRF      0xe6,0x0                                                                                        
00160e   ec82     CALL      0x904,0x0                                                                                       
001610   f004                                                                                                               
001612   52e5     MOVF      0xe5,0x1,0x0                                                                                    
001614   52e5     MOVF      0xe5,0x1,0x0                                                                                    
001616   52e5     MOVF      0xe5,0x1,0x0   }                                                                                C:\Hannibal Code1.1\printf_lib.c
001618   cfe7     MOVFF     0xfe7,0xfd9                                                                                     
00161a   ffd9                                                                                                               
00161c   0012     RETURN    0x0                                                                                             
                                                                                                                            C:\Hannibal Code1.1\printf_lib.c
                                           /******************************************************************************* C:\Hannibal Code1.1\printf_lib.c
                                           * FUNCTION NAME: printb                                                          C:\Hannibal Code1.1\printf_lib.c
                                           * PURPOSE:       Prints an 8bit binary word (base 2) w/o a carriage return.      C:\Hannibal Code1.1\printf_lib.c
                                           * RETURNS:       void                                                            C:\Hannibal Code1.1\printf_lib.c
                                           *******************************************************************************/ C:\Hannibal Code1.1\printf_lib.c
                                                                                                                            C:\Hannibal Code1.1\printf_lib.c
00161e   cfd9     MOVFF     0xfd9,0xfe6    void printb(unsigned char data,int crtOn)                                        C:\Hannibal Code1.1\printf_lib.c
001620   ffe6                                                                                                               
001622   cfe1     MOVFF     0xfe1,0xfd9                                                                                     
001624   ffd9                                                                                                               
                                           {                                                                                C:\Hannibal Code1.1\printf_lib.c
001626   0e61     MOVLW     0x61             printi ((int) data, 2, 0, 8, 2, 'a');                                          C:\Hannibal Code1.1\printf_lib.c
001628   6ee6     MOVWF     0xe6,0x0                                                                                        
00162a   6ae6     CLRF      0xe6,0x0                                                                                        
00162c   0e02     MOVLW     0x2                                                                                             
00162e   6ee6     MOVWF     0xe6,0x0                                                                                        
001630   6ae6     CLRF      0xe6,0x0                                                                                        
001632   0e08     MOVLW     0x8                                                                                             
001634   6ee6     MOVWF     0xe6,0x0                                                                                        
001636   6ae6     CLRF      0xe6,0x0                                                                                        
001638   0e00     MOVLW     0x0                                                                                             
00163a   6ee6     MOVWF     0xe6,0x0                                                                                        
00163c   6ae6     CLRF      0xe6,0x0                                                                                        
00163e   0e02     MOVLW     0x2                                                                                             
001640   6ee6     MOVWF     0xe6,0x0                                                                                        
001642   6ae6     CLRF      0xe6,0x0                                                                                        
001644   0efe     MOVLW     0xfe                                                                                            
001646   cfdb     MOVFF     0xfdb,0xfe6                                                                                     
001648   ffe6                                                                                                               
00164a   6ae6     CLRF      0xe6,0x0                                                                                        
00164c   ec8b     CALL      0xb16,0x0                                                                                       
00164e   f005                                                                                                               
001650   6ef5     MOVWF     0xf5,0x0                                                                                        
001652   0e0c     MOVLW     0xc                                                                                             
001654   5ee1     SUBWF     0xe1,0x1,0x0                                                                                    
001656   50f5     MOVF      0xf5,0x0,0x0                                                                                    
001658   50d9     MOVF      0xd9,0x0,0x0     if (crtOn)                                                                     C:\Hannibal Code1.1\printf_lib.c
00165a   0ffc     ADDLW     0xfc                                                                                            
00165c   6ee9     MOVWF     0xe9,0x0                                                                                        
00165e   0eff     MOVLW     0xff                                                                                            
001660   20da     ADDWFC    0xda,0x0,0x0                                                                                    
001662   6eea     MOVWF     0xea,0x0                                                                                        
001664   50ee     MOVF      0xee,0x0,0x0                                                                                    
001666   10ed     IORWF     0xed,0x0,0x0                                                                                    
001668   e007     BZ        0x1678                                                                                          
00166a   0e0d     MOVLW     0xd                Write_Byte_To_Uart('\r');                                                    C:\Hannibal Code1.1\printf_lib.c
00166c   6ee6     MOVWF     0xe6,0x0                                                                                        
00166e   6ae6     CLRF      0xe6,0x0                                                                                        
001670   ec82     CALL      0x904,0x0                                                                                       
001672   f004                                                                                                               
001674   52e5     MOVF      0xe5,0x1,0x0                                                                                    
001676   52e5     MOVF      0xe5,0x1,0x0                                                                                    
001678   52e5     MOVF      0xe5,0x1,0x0   }                                                                                C:\Hannibal Code1.1\printf_lib.c
00167a   cfe7     MOVFF     0xfe7,0xfd9                                                                                     
00167c   ffd9                                                                                                               
00167e   0012     RETURN    0x0                                                                                             
                                                                                                                            C:\Hannibal Code1.1\printf_lib.c
                                           /******************************************************************************* C:\Hannibal Code1.1\printf_lib.c
                                           * FUNCTION NAME: printix                                                         C:\Hannibal Code1.1\printf_lib.c
                                           * PURPOSE:       Prints a 16bit hex word (base 16) w/o a carriage return.        C:\Hannibal Code1.1\printf_lib.c
                                           * RETURNS:       void                                                            C:\Hannibal Code1.1\printf_lib.c
                                           *******************************************************************************/ C:\Hannibal Code1.1\printf_lib.c
                                                                                                                            C:\Hannibal Code1.1\printf_lib.c
001680   cfd9     MOVFF     0xfd9,0xfe6    void printix(int data,int crtOn)                                                 C:\Hannibal Code1.1\printf_lib.c
001682   ffe6                                                                                                               
001684   cfe1     MOVFF     0xfe1,0xfd9                                                                                     
001686   ffd9                                                                                                               
                                           {                                                                                C:\Hannibal Code1.1\printf_lib.c
001688   0e61     MOVLW     0x61             printi (data, 16, 0, 2, 0, 'a');                                               C:\Hannibal Code1.1\printf_lib.c
00168a   6ee6     MOVWF     0xe6,0x0                                                                                        
00168c   6ae6     CLRF      0xe6,0x0                                                                                        
00168e   0e00     MOVLW     0x0                                                                                             
001690   6ee6     MOVWF     0xe6,0x0                                                                                        
001692   6ae6     CLRF      0xe6,0x0                                                                                        
001694   0e02     MOVLW     0x2                                                                                             
001696   6ee6     MOVWF     0xe6,0x0                                                                                        
001698   6ae6     CLRF      0xe6,0x0                                                                                        
00169a   0e00     MOVLW     0x0                                                                                             
00169c   6ee6     MOVWF     0xe6,0x0                                                                                        
00169e   6ae6     CLRF      0xe6,0x0                                                                                        
0016a0   0e10     MOVLW     0x10                                                                                            
0016a2   6ee6     MOVWF     0xe6,0x0                                                                                        
0016a4   6ae6     CLRF      0xe6,0x0                                                                                        
0016a6   0efd     MOVLW     0xfd                                                                                            
0016a8   cfdb     MOVFF     0xfdb,0xfe6                                                                                     
0016aa   ffe6                                                                                                               
0016ac   0efe     MOVLW     0xfe                                                                                            
0016ae   cfdb     MOVFF     0xfdb,0xfe6                                                                                     
0016b0   ffe6                                                                                                               
0016b2   ec8b     CALL      0xb16,0x0                                                                                       
0016b4   f005                                                                                                               
0016b6   6ef5     MOVWF     0xf5,0x0                                                                                        
0016b8   0e0c     MOVLW     0xc                                                                                             
0016ba   5ee1     SUBWF     0xe1,0x1,0x0                                                                                    
0016bc   50f5     MOVF      0xf5,0x0,0x0                                                                                    
0016be   50d9     MOVF      0xd9,0x0,0x0     if (crtOn)                                                                     C:\Hannibal Code1.1\printf_lib.c
0016c0   0ffb     ADDLW     0xfb                                                                                            
0016c2   6ee9     MOVWF     0xe9,0x0                                                                                        
0016c4   0eff     MOVLW     0xff                                                                                            
0016c6   20da     ADDWFC    0xda,0x0,0x0                                                                                    
0016c8   6eea     MOVWF     0xea,0x0                                                                                        
0016ca   50ee     MOVF      0xee,0x0,0x0                                                                                    
0016cc   10ed     IORWF     0xed,0x0,0x0                                                                                    
0016ce   e007     BZ        0x16de                                                                                          
0016d0   0e0d     MOVLW     0xd                Write_Byte_To_Uart('\r');                                                    C:\Hannibal Code1.1\printf_lib.c
0016d2   6ee6     MOVWF     0xe6,0x0                                                                                        
0016d4   6ae6     CLRF      0xe6,0x0                                                                                        
0016d6   ec82     CALL      0x904,0x0                                                                                       
0016d8   f004                                                                                                               
0016da   52e5     MOVF      0xe5,0x1,0x0                                                                                    
0016dc   52e5     MOVF      0xe5,0x1,0x0                                                                                    
0016de   52e5     MOVF      0xe5,0x1,0x0   }                                                                                C:\Hannibal Code1.1\printf_lib.c
0016e0   cfe7     MOVFF     0xfe7,0xfd9                                                                                     
0016e2   ffd9                                                                                                               
0016e4   0012     RETURN    0x0                                                                                             
                                                                                                                            C:\Hannibal Code1.1\printf_lib.c
                                           /******************************************************************************* C:\Hannibal Code1.1\printf_lib.c
                                           * FUNCTION NAME: printx                                                          C:\Hannibal Code1.1\printf_lib.c
                                           * PURPOSE:       Prints an 8bit hex word (base 16) w/o a carriage return.        C:\Hannibal Code1.1\printf_lib.c
                                           * RETURNS:       void                                                            C:\Hannibal Code1.1\printf_lib.c
                                           *******************************************************************************/ C:\Hannibal Code1.1\printf_lib.c
                                                                                                                            C:\Hannibal Code1.1\printf_lib.c
0016e6   cfd9     MOVFF     0xfd9,0xfe6    void printx(unsigned char data,int crtOn)                                        C:\Hannibal Code1.1\printf_lib.c
0016e8   ffe6                                                                                                               
0016ea   cfe1     MOVFF     0xfe1,0xfd9                                                                                     
0016ec   ffd9                                                                                                               
                                           {                                                                                C:\Hannibal Code1.1\printf_lib.c
0016ee   0e61     MOVLW     0x61             printi ((int) data, 16, 0, 2, 2, 'a');                                         C:\Hannibal Code1.1\printf_lib.c
0016f0   6ee6     MOVWF     0xe6,0x0                                                                                        
0016f2   6ae6     CLRF      0xe6,0x0                                                                                        
0016f4   0e02     MOVLW     0x2                                                                                             
0016f6   6ee6     MOVWF     0xe6,0x0                                                                                        
0016f8   6ae6     CLRF      0xe6,0x0                                                                                        
0016fa   6ee6     MOVWF     0xe6,0x0                                                                                        
0016fc   6ae6     CLRF      0xe6,0x0                                                                                        
0016fe   0e00     MOVLW     0x0                                                                                             
001700   6ee6     MOVWF     0xe6,0x0                                                                                        
001702   6ae6     CLRF      0xe6,0x0                                                                                        
001704   0e10     MOVLW     0x10                                                                                            
001706   6ee6     MOVWF     0xe6,0x0                                                                                        
001708   6ae6     CLRF      0xe6,0x0                                                                                        
00170a   0efe     MOVLW     0xfe                                                                                            
00170c   cfdb     MOVFF     0xfdb,0xfe6                                                                                     
00170e   ffe6                                                                                                               
001710   6ae6     CLRF      0xe6,0x0                                                                                        
001712   ec8b     CALL      0xb16,0x0                                                                                       
001714   f005                                                                                                               
001716   6ef5     MOVWF     0xf5,0x0                                                                                        
001718   0e0c     MOVLW     0xc                                                                                             
00171a   5ee1     SUBWF     0xe1,0x1,0x0                                                                                    
00171c   50f5     MOVF      0xf5,0x0,0x0                                                                                    
00171e   50d9     MOVF      0xd9,0x0,0x0     if (crtOn)                                                                     C:\Hannibal Code1.1\printf_lib.c
001720   0ffc     ADDLW     0xfc                                                                                            
001722   6ee9     MOVWF     0xe9,0x0                                                                                        
001724   0eff     MOVLW     0xff                                                                                            
001726   20da     ADDWFC    0xda,0x0,0x0                                                                                    
001728   6eea     MOVWF     0xea,0x0                                                                                        
00172a   50ee     MOVF      0xee,0x0,0x0                                                                                    
00172c   10ed     IORWF     0xed,0x0,0x0                                                                                    
00172e   e007     BZ        0x173e                                                                                          
001730   0e0d     MOVLW     0xd                Write_Byte_To_Uart('\r');                                                    C:\Hannibal Code1.1\printf_lib.c
001732   6ee6     MOVWF     0xe6,0x0                                                                                        
001734   6ae6     CLRF      0xe6,0x0                                                                                        
001736   ec82     CALL      0x904,0x0                                                                                       
001738   f004                                                                                                               
00173a   52e5     MOVF      0xe5,0x1,0x0                                                                                    
00173c   52e5     MOVF      0xe5,0x1,0x0                                                                                    
00173e   52e5     MOVF      0xe5,0x1,0x0   }                                                                                C:\Hannibal Code1.1\printf_lib.c
001740   cfe7     MOVFF     0xfe7,0xfd9                                                                                     
001742   ffd9                                                                                                               
001744   0012     RETURN    0x0                                                                                             
                                                                                                                            C:\Hannibal Code1.1\printf_lib.c
                                           /******************************************************************************* C:\Hannibal Code1.1\printf_lib.c
                                           * FUNCTION NAME: debug_print                                                     C:\Hannibal Code1.1\printf_lib.c
                                           * PURPOSE:       Prints a header and a 16bit hex word (base 16) with a carriage  C:\Hannibal Code1.1\printf_lib.c
                                           *                return.                                                         C:\Hannibal Code1.1\printf_lib.c
                                           * RETURNS:       void                                                            C:\Hannibal Code1.1\printf_lib.c
                                           *******************************************************************************/ C:\Hannibal Code1.1\printf_lib.c
                                                                                                                            C:\Hannibal Code1.1\printf_lib.c
001746   cfd9     MOVFF     0xfd9,0xfe6    void debug_print(char *bufr,int data)                                            C:\Hannibal Code1.1\printf_lib.c
001748   ffe6                                                                                                               
00174a   cfe1     MOVFF     0xfe1,0xfd9                                                                                     
00174c   ffd9                                                                                                               
                                           {                                                                                C:\Hannibal Code1.1\printf_lib.c
00174e   0efd     MOVLW     0xfd             strcpypgm2ram (ifi_printfBufr,(rom char *) bufr);                              C:\Hannibal Code1.1\printf_lib.c
001750   cfdb     MOVFF     0xfdb,0x2b                                                                                      
001752   f02b                                                                                                               
001754   0efe     MOVLW     0xfe                                                                                            
001756   cfdb     MOVFF     0xfdb,0x2c                                                                                      
001758   f02c                                                                                                               
00175a   6a2d     CLRF      0x2d,0x0                                                                                        
00175c   c02b     MOVFF     0x2b,0xfe6                                                                                      
00175e   ffe6                                                                                                               
001760   c02c     MOVFF     0x2c,0xfe6                                                                                      
001762   ffe6                                                                                                               
001764   c02d     MOVFF     0x2d,0xfe6                                                                                      
001766   ffe6                                                                                                               
001768   0e00     MOVLW     0x0                                                                                             
00176a   6ee6     MOVWF     0xe6,0x0                                                                                        
00176c   0e07     MOVLW     0x7                                                                                             
00176e   6ee6     MOVWF     0xe6,0x0                                                                                        
001770   ec80     CALL      0x4300,0x0                                                                                      
001772   f021                                                                                                               
001774   6ef5     MOVWF     0xf5,0x0                                                                                        
001776   0e05     MOVLW     0x5                                                                                             
001778   5ee1     SUBWF     0xe1,0x1,0x0                                                                                    
00177a   50f5     MOVF      0xf5,0x0,0x0                                                                                    
00177c   0107     MOVLB     0x7              for (k=0;k<strlen(ifi_printfBufr);k++)                                         C:\Hannibal Code1.1\printf_lib.c
00177e   6bcb     CLRF      0xcb,0x1                                                                                        
001780   6bcc     CLRF      0xcc,0x1                                                                                        
001782   0e00     MOVLW     0x0                                                                                             
001784   6ee6     MOVWF     0xe6,0x0                                                                                        
001786   0e07     MOVLW     0x7                                                                                             
001788   6ee6     MOVWF     0xe6,0x0                                                                                        
00178a   ec99     CALL      0x4332,0x0                                                                                      
00178c   f021                                                                                                               
00178e   52e5     MOVF      0xe5,0x1,0x0                                                                                    
001790   52e5     MOVF      0xe5,0x1,0x0                                                                                    
001792   cff3     MOVFF     0xff3,0x2b                                                                                      
001794   f02b                                                                                                               
001796   cff4     MOVFF     0xff4,0x2c                                                                                      
001798   f02c                                                                                                               
00179a   0107     MOVLB     0x7                                                                                             
00179c   502b     MOVF      0x2b,0x0,0x0                                                                                    
00179e   5dcb     SUBWF     0xcb,0x0,0x1                                                                                    
0017a0   502c     MOVF      0x2c,0x0,0x0                                                                                    
0017a2   59cc     SUBWFB    0xcc,0x0,0x1                                                                                    
0017a4   e218     BC        0x17d6                                                                                          
0017cc   0107     MOVLB     0x7                                                                                             
0017ce   2bcb     INCF      0xcb,0x1,0x1                                                                                    
0017d0   0e00     MOVLW     0x0                                                                                             
0017d2   23cc     ADDWFC    0xcc,0x1,0x1                                                                                    
0017d4   d7d6     BRA       0x1782                                                                                          
0017a6   0e00     MOVLW     0x0                Write_Byte_To_Uart(ifi_printfBufr[k]);                                       C:\Hannibal Code1.1\printf_lib.c
0017a8   25cb     ADDWF     0xcb,0x0,0x1                                                                                    
0017aa   6ee9     MOVWF     0xe9,0x0                                                                                        
0017ac   0e07     MOVLW     0x7                                                                                             
0017ae   21cc     ADDWFC    0xcc,0x0,0x1                                                                                    
0017b0   6eea     MOVWF     0xea,0x0                                                                                        
0017b2   cfef     MOVFF     0xfef,0x2b                                                                                      
0017b4   f02b                                                                                                               
0017b6   6a2c     CLRF      0x2c,0x0                                                                                        
0017b8   be2b     BTFSC     0x2b,0x7,0x0                                                                                    
0017ba   682c     SETF      0x2c,0x0                                                                                        
0017bc   c02b     MOVFF     0x2b,0xfe6                                                                                      
0017be   ffe6                                                                                                               
0017c0   c02c     MOVFF     0x2c,0xfe6                                                                                      
0017c2   ffe6                                                                                                               
0017c4   ec82     CALL      0x904,0x0                                                                                       
0017c6   f004                                                                                                               
0017c8   52e5     MOVF      0xe5,0x1,0x0                                                                                    
0017ca   52e5     MOVF      0xe5,0x1,0x0                                                                                    
0017d6   0e01     MOVLW     0x1              printix(data,1);                                                               C:\Hannibal Code1.1\printf_lib.c
0017d8   6ee6     MOVWF     0xe6,0x0                                                                                        
0017da   6ae6     CLRF      0xe6,0x0                                                                                        
0017dc   0efb     MOVLW     0xfb                                                                                            
0017de   cfdb     MOVFF     0xfdb,0xfe6                                                                                     
0017e0   ffe6                                                                                                               
0017e2   0efc     MOVLW     0xfc                                                                                            
0017e4   cfdb     MOVFF     0xfdb,0xfe6                                                                                     
0017e6   ffe6                                                                                                               
0017e8   df4b     RCALL     0x1680                                                                                          
0017ea   52e5     MOVF      0xe5,0x1,0x0                                                                                    
0017ec   52e5     MOVF      0xe5,0x1,0x0                                                                                    
0017ee   52e5     MOVF      0xe5,0x1,0x0                                                                                    
0017f0   52e5     MOVF      0xe5,0x1,0x0                                                                                    
0017f2   52e5     MOVF      0xe5,0x1,0x0   }                                                                                C:\Hannibal Code1.1\printf_lib.c
0017f4   cfe7     MOVFF     0xfe7,0xfd9                                                                                     
0017f6   ffd9                                                                                                               
0017f8   0012     RETURN    0x0                                                                                             
                                                                                                                            C:\Hannibal Code1.1\printf_lib.c
                                           /******************************************************************************* C:\Hannibal Code1.1\printf_lib.c
                                           * FUNCTION NAME: debug_printb                                                    C:\Hannibal Code1.1\printf_lib.c
                                           * PURPOSE:       Prints a header and an 8bit binary word (base 2) with a carriage  C:\Hannibal Code1.1\printf_lib.c
                                           *                return.                                                         C:\Hannibal Code1.1\printf_lib.c
                                           * RETURNS:       void                                                            C:\Hannibal Code1.1\printf_lib.c
                                           *******************************************************************************/ C:\Hannibal Code1.1\printf_lib.c
                                                                                                                            C:\Hannibal Code1.1\printf_lib.c
0017fa   cfd9     MOVFF     0xfd9,0xfe6    void debug_printb(char *bufr,unsigned int data)                                  C:\Hannibal Code1.1\printf_lib.c
0017fc   ffe6                                                                                                               
0017fe   cfe1     MOVFF     0xfe1,0xfd9                                                                                     
001800   ffd9                                                                                                               
                                           {                                                                                C:\Hannibal Code1.1\printf_lib.c
001802   0efd     MOVLW     0xfd             strcpypgm2ram (ifi_printfBufr,(rom char *) bufr);                              C:\Hannibal Code1.1\printf_lib.c
001804   cfdb     MOVFF     0xfdb,0x2b                                                                                      
001806   f02b                                                                                                               
001808   0efe     MOVLW     0xfe                                                                                            
00180a   cfdb     MOVFF     0xfdb,0x2c                                                                                      
00180c   f02c                                                                                                               
00180e   6a2d     CLRF      0x2d,0x0                                                                                        
001810   c02b     MOVFF     0x2b,0xfe6                                                                                      
001812   ffe6                                                                                                               
001814   c02c     MOVFF     0x2c,0xfe6                                                                                      
001816   ffe6                                                                                                               
001818   c02d     MOVFF     0x2d,0xfe6                                                                                      
00181a   ffe6                                                                                                               
00181c   0e00     MOVLW     0x0                                                                                             
00181e   6ee6     MOVWF     0xe6,0x0                                                                                        
001820   0e07     MOVLW     0x7                                                                                             
001822   6ee6     MOVWF     0xe6,0x0                                                                                        
001824   ec80     CALL      0x4300,0x0                                                                                      
001826   f021                                                                                                               
001828   6ef5     MOVWF     0xf5,0x0                                                                                        
00182a   0e05     MOVLW     0x5                                                                                             
00182c   5ee1     SUBWF     0xe1,0x1,0x0                                                                                    
00182e   50f5     MOVF      0xf5,0x0,0x0                                                                                    
001830   0107     MOVLB     0x7              for (k=0;k<strlen(ifi_printfBufr);k++)                                         C:\Hannibal Code1.1\printf_lib.c
001832   6bcb     CLRF      0xcb,0x1                                                                                        
001834   6bcc     CLRF      0xcc,0x1                                                                                        
001836   0e00     MOVLW     0x0                                                                                             
001838   6ee6     MOVWF     0xe6,0x0                                                                                        
00183a   0e07     MOVLW     0x7                                                                                             
00183c   6ee6     MOVWF     0xe6,0x0                                                                                        
00183e   ec99     CALL      0x4332,0x0                                                                                      
001840   f021                                                                                                               
001842   52e5     MOVF      0xe5,0x1,0x0                                                                                    
001844   52e5     MOVF      0xe5,0x1,0x0                                                                                    
001846   cff3     MOVFF     0xff3,0x2b                                                                                      
001848   f02b                                                                                                               
00184a   cff4     MOVFF     0xff4,0x2c                                                                                      
00184c   f02c                                                                                                               
00184e   0107     MOVLB     0x7                                                                                             
001850   502b     MOVF      0x2b,0x0,0x0                                                                                    
001852   5dcb     SUBWF     0xcb,0x0,0x1                                                                                    
001854   502c     MOVF      0x2c,0x0,0x0                                                                                    
001856   59cc     SUBWFB    0xcc,0x0,0x1                                                                                    
001858   e218     BC        0x188a                                                                                          
001880   0107     MOVLB     0x7                                                                                             
001882   2bcb     INCF      0xcb,0x1,0x1                                                                                    
001884   0e00     MOVLW     0x0                                                                                             
001886   23cc     ADDWFC    0xcc,0x1,0x1                                                                                    
001888   d7d6     BRA       0x1836                                                                                          
00185a   0e00     MOVLW     0x0                Write_Byte_To_Uart(ifi_printfBufr[k]);                                       C:\Hannibal Code1.1\printf_lib.c
00185c   25cb     ADDWF     0xcb,0x0,0x1                                                                                    
00185e   6ee9     MOVWF     0xe9,0x0                                                                                        
001860   0e07     MOVLW     0x7                                                                                             
001862   21cc     ADDWFC    0xcc,0x0,0x1                                                                                    
001864   6eea     MOVWF     0xea,0x0                                                                                        
001866   cfef     MOVFF     0xfef,0x2b                                                                                      
001868   f02b                                                                                                               
00186a   6a2c     CLRF      0x2c,0x0                                                                                        
00186c   be2b     BTFSC     0x2b,0x7,0x0                                                                                    
00186e   682c     SETF      0x2c,0x0                                                                                        
001870   c02b     MOVFF     0x2b,0xfe6                                                                                      
001872   ffe6                                                                                                               
001874   c02c     MOVFF     0x2c,0xfe6                                                                                      
001876   ffe6                                                                                                               
001878   ec82     CALL      0x904,0x0                                                                                       
00187a   f004                                                                                                               
00187c   52e5     MOVF      0xe5,0x1,0x0                                                                                    
00187e   52e5     MOVF      0xe5,0x1,0x0                                                                                    
00188a   0e01     MOVLW     0x1              printib(data,1);                                                               C:\Hannibal Code1.1\printf_lib.c
00188c   6ee6     MOVWF     0xe6,0x0                                                                                        
00188e   6ae6     CLRF      0xe6,0x0                                                                                        
001890   0efb     MOVLW     0xfb                                                                                            
001892   cfdb     MOVFF     0xfdb,0xfe6                                                                                     
001894   ffe6                                                                                                               
001896   0efc     MOVLW     0xfc                                                                                            
001898   cfdb     MOVFF     0xfdb,0xfe6                                                                                     
00189a   ffe6                                                                                                               
00189c   de8d     RCALL     0x15b8                                                                                          
00189e   52e5     MOVF      0xe5,0x1,0x0                                                                                    
0018a0   52e5     MOVF      0xe5,0x1,0x0                                                                                    
0018a2   52e5     MOVF      0xe5,0x1,0x0                                                                                    
0018a4   52e5     MOVF      0xe5,0x1,0x0                                                                                    
0018a6   52e5     MOVF      0xe5,0x1,0x0   }                                                                                C:\Hannibal Code1.1\printf_lib.c
0018a8   cfe7     MOVFF     0xfe7,0xfd9                                                                                     
0018aa   ffd9                                                                                                               
0018ac   0012     RETURN    0x0                                                                                             
                                                                                                                            C:\Hannibal Code1.1\printf_lib.c
                                           /******************************************************************************* C:\Hannibal Code1.1\printf_lib.c
                                           * FUNCTION NAME: debug_println                                                   C:\Hannibal Code1.1\printf_lib.c
                                           * PURPOSE:       Prints a header (assumming a carriage return is supplied).      C:\Hannibal Code1.1\printf_lib.c
                                           * RETURNS:       void                                                            C:\Hannibal Code1.1\printf_lib.c
                                           *******************************************************************************/ C:\Hannibal Code1.1\printf_lib.c
                                                                                                                            C:\Hannibal Code1.1\printf_lib.c
0018ae   cfd9     MOVFF     0xfd9,0xfe6    void debug_println(char *bufr)                                                   C:\Hannibal Code1.1\printf_lib.c
0018b0   ffe6                                                                                                               
0018b2   cfe1     MOVFF     0xfe1,0xfd9                                                                                     
0018b4   ffd9                                                                                                               
                                           {                                                                                C:\Hannibal Code1.1\printf_lib.c
0018b6   0efd     MOVLW     0xfd             strcpypgm2ram (ifi_printfBufr,(rom char *) bufr);                              C:\Hannibal Code1.1\printf_lib.c
0018b8   cfdb     MOVFF     0xfdb,0x2b                                                                                      
0018ba   f02b                                                                                                               
0018bc   0efe     MOVLW     0xfe                                                                                            
0018be   cfdb     MOVFF     0xfdb,0x2c                                                                                      
0018c0   f02c                                                                                                               
0018c2   6a2d     CLRF      0x2d,0x0                                                                                        
0018c4   c02b     MOVFF     0x2b,0xfe6                                                                                      
0018c6   ffe6                                                                                                               
0018c8   c02c     MOVFF     0x2c,0xfe6                                                                                      
0018ca   ffe6                                                                                                               
0018cc   c02d     MOVFF     0x2d,0xfe6                                                                                      
0018ce   ffe6                                                                                                               
0018d0   0e00     MOVLW     0x0                                                                                             
0018d2   6ee6     MOVWF     0xe6,0x0                                                                                        
0018d4   0e07     MOVLW     0x7                                                                                             
0018d6   6ee6     MOVWF     0xe6,0x0                                                                                        
0018d8   ec80     CALL      0x4300,0x0                                                                                      
0018da   f021                                                                                                               
0018dc   6ef5     MOVWF     0xf5,0x0                                                                                        
0018de   0e05     MOVLW     0x5                                                                                             
0018e0   5ee1     SUBWF     0xe1,0x1,0x0                                                                                    
0018e2   50f5     MOVF      0xf5,0x0,0x0                                                                                    
0018e4   0107     MOVLB     0x7              for (k=0;k<strlen(ifi_printfBufr);k++)                                         C:\Hannibal Code1.1\printf_lib.c
0018e6   6bcb     CLRF      0xcb,0x1                                                                                        
0018e8   6bcc     CLRF      0xcc,0x1                                                                                        
0018ea   0e00     MOVLW     0x0                                                                                             
0018ec   6ee6     MOVWF     0xe6,0x0                                                                                        
0018ee   0e07     MOVLW     0x7                                                                                             
0018f0   6ee6     MOVWF     0xe6,0x0                                                                                        
0018f2   ec99     CALL      0x4332,0x0                                                                                      
0018f4   f021                                                                                                               
0018f6   52e5     MOVF      0xe5,0x1,0x0                                                                                    
0018f8   52e5     MOVF      0xe5,0x1,0x0                                                                                    
0018fa   cff3     MOVFF     0xff3,0x2b                                                                                      
0018fc   f02b                                                                                                               
0018fe   cff4     MOVFF     0xff4,0x2c                                                                                      
001900   f02c                                                                                                               
001902   0107     MOVLB     0x7                                                                                             
001904   502b     MOVF      0x2b,0x0,0x0                                                                                    
001906   5dcb     SUBWF     0xcb,0x0,0x1                                                                                    
001908   502c     MOVF      0x2c,0x0,0x0                                                                                    
00190a   59cc     SUBWFB    0xcc,0x0,0x1                                                                                    
00190c   e218     BC        0x193e                                                                                          
001934   0107     MOVLB     0x7                                                                                             
001936   2bcb     INCF      0xcb,0x1,0x1                                                                                    
001938   0e00     MOVLW     0x0                                                                                             
00193a   23cc     ADDWFC    0xcc,0x1,0x1                                                                                    
00193c   d7d6     BRA       0x18ea                                                                                          
00190e   0e00     MOVLW     0x0                Write_Byte_To_Uart(ifi_printfBufr[k]);                                       C:\Hannibal Code1.1\printf_lib.c
001910   25cb     ADDWF     0xcb,0x0,0x1                                                                                    
001912   6ee9     MOVWF     0xe9,0x0                                                                                        
001914   0e07     MOVLW     0x7                                                                                             
001916   21cc     ADDWFC    0xcc,0x0,0x1                                                                                    
001918   6eea     MOVWF     0xea,0x0                                                                                        
00191a   cfef     MOVFF     0xfef,0x2b                                                                                      
00191c   f02b                                                                                                               
00191e   6a2c     CLRF      0x2c,0x0                                                                                        
001920   be2b     BTFSC     0x2b,0x7,0x0                                                                                    
001922   682c     SETF      0x2c,0x0                                                                                        
001924   c02b     MOVFF     0x2b,0xfe6                                                                                      
001926   ffe6                                                                                                               
001928   c02c     MOVFF     0x2c,0xfe6                                                                                      
00192a   ffe6                                                                                                               
00192c   ec82     CALL      0x904,0x0                                                                                       
00192e   f004                                                                                                               
001930   52e5     MOVF      0xe5,0x1,0x0                                                                                    
001932   52e5     MOVF      0xe5,0x1,0x0                                                                                    
00193e   52e5     MOVF      0xe5,0x1,0x0   }                                                                                C:\Hannibal Code1.1\printf_lib.c
001940   cfe7     MOVFF     0xfe7,0xfd9                                                                                     
001942   ffd9                                                                                                               
001944   0012     RETURN    0x0                                                                                             
                                                                                                                            C:\Hannibal Code1.1\printf_lib.c
                                                                                                                            C:\Hannibal Code1.1\printf_lib.c
                                           /******************************************************************************/ C:\Hannibal Code1.1\printf_lib.c
                                           /******************************************************************************/ C:\Hannibal Code1.1\printf_lib.c
                                           /******************************************************************************/ C:\Hannibal Code1.1\printf_lib.c
                                           /******************************************************************************* C:\Hannibal Code1.1\ifi_utilities.c
                                           * FILE NAME: ifi_utilities.c                                                     C:\Hannibal Code1.1\ifi_utilities.c
                                           *                                                                                C:\Hannibal Code1.1\ifi_utilities.c
                                           * DESCRIPTION:                                                                   C:\Hannibal Code1.1\ifi_utilities.c
                                           *  This file contains some useful functions that you can call in your program.   C:\Hannibal Code1.1\ifi_utilities.c
                                           *                                                                                C:\Hannibal Code1.1\ifi_utilities.c
                                           * USAGE:                                                                         C:\Hannibal Code1.1\ifi_utilities.c
                                           *  The user should NOT modify this file, so that if a new version is released    C:\Hannibal Code1.1\ifi_utilities.c
                                           *  by Innovation First then it can be easily replaced.                           C:\Hannibal Code1.1\ifi_utilities.c
                                           *  The user should add their own functions to either user_routines.c or another  C:\Hannibal Code1.1\ifi_utilities.c
                                           *  custom file.                                                                  C:\Hannibal Code1.1\ifi_utilities.c
                                           *                                                                                C:\Hannibal Code1.1\ifi_utilities.c
                                           *******************************************************************************/ C:\Hannibal Code1.1\ifi_utilities.c
                                                                                                                            C:\Hannibal Code1.1\ifi_utilities.c
                                           #include <usart.h>                                                               C:\Hannibal Code1.1\ifi_utilities.c
                                           #include <spi.h>                                                                 C:\Hannibal Code1.1\ifi_utilities.c
                                           #include <adc.h>                                                                 C:\Hannibal Code1.1\ifi_utilities.c
                                           #include <capture.h>                                                             C:\Hannibal Code1.1\ifi_utilities.c
                                           #include <timers.h>                                                              C:\Hannibal Code1.1\ifi_utilities.c
                                           #include <string.h>                                                              C:\Hannibal Code1.1\ifi_utilities.c
                                           #include <pwm.h>                                                                 C:\Hannibal Code1.1\ifi_utilities.c
                                           #include "delays.h"       /*defined locally*/                                    C:\Hannibal Code1.1\ifi_utilities.c
                                           #include "ifi_aliases.h"                                                         C:\Hannibal Code1.1\ifi_utilities.c
                                           #include "ifi_default.h"                                                         C:\Hannibal Code1.1\ifi_utilities.c
                                           #include "ifi_utilities.h"                                                       C:\Hannibal Code1.1\ifi_utilities.c
                                           #include "user_routines.h"                                                       C:\Hannibal Code1.1\ifi_utilities.c
                                                                                                                            C:\Hannibal Code1.1\ifi_utilities.c
                                           int             ifi_packet_num1 = 0;                                             C:\Hannibal Code1.1\ifi_utilities.c
                                           int             ifi_last_packet1 = 0;                                            C:\Hannibal Code1.1\ifi_utilities.c
                                           char            ifi_printfBufr[80];                                              C:\Hannibal Code1.1\ifi_utilities.c
                                           unsigned char   *ptr;                                                            C:\Hannibal Code1.1\ifi_utilities.c
                                           unsigned char   ifi_count;                                                       C:\Hannibal Code1.1\ifi_utilities.c
                                           unsigned char   ifi_analog_channels;                                             C:\Hannibal Code1.1\ifi_utilities.c
                                                                                                                            C:\Hannibal Code1.1\ifi_utilities.c
                                                                                                                            C:\Hannibal Code1.1\ifi_utilities.c
                                           /******************************************************************************* C:\Hannibal Code1.1\ifi_utilities.c
                                           * FUNCTION NAME: Wait4TXEmpty                                                    C:\Hannibal Code1.1\ifi_utilities.c
                                           * PURPOSE:       Wait for serial transmit buffer to be empty.                    C:\Hannibal Code1.1\ifi_utilities.c
                                           * CALLED FROM:   anywhere                                                        C:\Hannibal Code1.1\ifi_utilities.c
                                           * ARGUMENTS:     none                                                            C:\Hannibal Code1.1\ifi_utilities.c
                                           * RETURNS:       void                                                            C:\Hannibal Code1.1\ifi_utilities.c
                                           *******************************************************************************/ C:\Hannibal Code1.1\ifi_utilities.c
                                           /* Used when transmitting data serially.  It waits for each byte to finish.   */ C:\Hannibal Code1.1\ifi_utilities.c
                                           void Wait4TXEmpty(void)                                                          C:\Hannibal Code1.1\ifi_utilities.c
                                           {                                                                                C:\Hannibal Code1.1\ifi_utilities.c
                                           #ifndef _SIMULATOR                                                               C:\Hannibal Code1.1\ifi_utilities.c
003b4a   b89e     BTFSC     0x9e,0x4,0x0     while (!TXINTF)                                                                C:\Hannibal Code1.1\ifi_utilities.c
003b4c   d002     BRA       0x3b52                                                                                          
003b50   d7fc     BRA       0x3b4a                                                                                          
                                             {                                                                              C:\Hannibal Code1.1\ifi_utilities.c
003b4e   d7fd     BRA       0x3b4a             continue;                                                                    C:\Hannibal Code1.1\ifi_utilities.c
                                             }                                                                              C:\Hannibal Code1.1\ifi_utilities.c
                                           #endif                                                                           C:\Hannibal Code1.1\ifi_utilities.c
003b52   0012     RETURN    0x0            }                                                                                C:\Hannibal Code1.1\ifi_utilities.c
                                                                                                                            C:\Hannibal Code1.1\ifi_utilities.c
                                                                                                                            C:\Hannibal Code1.1\ifi_utilities.c
                                           /******************************************************************************* C:\Hannibal Code1.1\ifi_utilities.c
                                           * FUNCTION NAME: PrintByte                                                       C:\Hannibal Code1.1\ifi_utilities.c
                                           * PURPOSE:       A simple way to print a byte of data to the serial port.        C:\Hannibal Code1.1\ifi_utilities.c
                                           * CALLED FROM:   anywhere                                                        C:\Hannibal Code1.1\ifi_utilities.c
                                           * ARGUMENTS:     none                                                            C:\Hannibal Code1.1\ifi_utilities.c
                                           *     Argument       Type             IO   Description                           C:\Hannibal Code1.1\ifi_utilities.c
                                           *     --------       -------------    --   -----------                           C:\Hannibal Code1.1\ifi_utilities.c
                                           *     odata          unsigned char    I    byte of data to be transmitted        C:\Hannibal Code1.1\ifi_utilities.c
                                           * RETURNS:       void                                                            C:\Hannibal Code1.1\ifi_utilities.c
                                           *******************************************************************************/ C:\Hannibal Code1.1\ifi_utilities.c
003b54   cfd9     MOVFF     0xfd9,0xfe6    void PrintByte(unsigned char odata)                                              C:\Hannibal Code1.1\ifi_utilities.c
003b56   ffe6                                                                                                               
003b58   cfe1     MOVFF     0xfe1,0xfd9                                                                                     
003b5a   ffd9                                                                                                               
                                           {                                                                                C:\Hannibal Code1.1\ifi_utilities.c
003b5c   0efe     MOVLW     0xfe             Hex_output((unsigned char) odata);                                             C:\Hannibal Code1.1\ifi_utilities.c
003b5e   cfdb     MOVFF     0xfdb,0xfe6                                                                                     
003b60   ffe6                                                                                                               
003b62   ecfe     CALL      0x3dfc,0x0                                                                                      
003b64   f01e                                                                                                               
003b66   52e5     MOVF      0xe5,0x1,0x0                                                                                    
003b68   0e0d     MOVLW     0xd              TXREG = 13;  /* a carriage return */                                           C:\Hannibal Code1.1\ifi_utilities.c
003b6a   6ead     MOVWF     0xad,0x0                                                                                        
003b6c   dfee     RCALL     0x3b4a           Wait4TXEmpty();                                                                C:\Hannibal Code1.1\ifi_utilities.c
003b6e   52e5     MOVF      0xe5,0x1,0x0   }                                                                                C:\Hannibal Code1.1\ifi_utilities.c
003b70   cfe7     MOVFF     0xfe7,0xfd9                                                                                     
003b72   ffd9                                                                                                               
003b74   0012     RETURN    0x0                                                                                             
                                                                                                                            C:\Hannibal Code1.1\ifi_utilities.c
                                                                                                                            C:\Hannibal Code1.1\ifi_utilities.c
                                           /******************************************************************************* C:\Hannibal Code1.1\ifi_utilities.c
                                           * FUNCTION NAME: PrintWord                                                       C:\Hannibal Code1.1\ifi_utilities.c
                                           * PURPOSE:       A simple way to print a word of data to the serial port.        C:\Hannibal Code1.1\ifi_utilities.c
                                           * CALLED FROM:   anywhere                                                        C:\Hannibal Code1.1\ifi_utilities.c
                                           * ARGUMENTS:     none                                                            C:\Hannibal Code1.1\ifi_utilities.c
                                           *     Argument       Type             IO   Description                           C:\Hannibal Code1.1\ifi_utilities.c
                                           *     --------       -------------    --   -----------                           C:\Hannibal Code1.1\ifi_utilities.c
                                           *     odata          unsigned int     I    word of data to be transmitted        C:\Hannibal Code1.1\ifi_utilities.c
                                           * RETURNS:       void                                                            C:\Hannibal Code1.1\ifi_utilities.c
                                           *******************************************************************************/ C:\Hannibal Code1.1\ifi_utilities.c
003b76   cfd9     MOVFF     0xfd9,0xfe6    void PrintWord(unsigned int odata)                                               C:\Hannibal Code1.1\ifi_utilities.c
003b78   ffe6                                                                                                               
003b7a   cfe1     MOVFF     0xfe1,0xfd9                                                                                     
003b7c   ffd9                                                                                                               
                                           {                                                                                C:\Hannibal Code1.1\ifi_utilities.c
003b7e   0107     MOVLB     0x7              ptr = (unsigned char *) &odata;                                                C:\Hannibal Code1.1\ifi_utilities.c
003b80   50d9     MOVF      0xd9,0x0,0x0                                                                                    
003b82   0ffd     ADDLW     0xfd                                                                                            
003b84   6f50     MOVWF     0x50,0x1                                                                                        
003b86   0eff     MOVLW     0xff                                                                                            
003b88   20da     ADDWFC    0xda,0x0,0x0                                                                                    
003b8a   6f51     MOVWF     0x51,0x1                                                                                        
003b8c   0e01     MOVLW     0x1              Hex_output(ptr[1]);                                                            C:\Hannibal Code1.1\ifi_utilities.c
003b8e   6aea     CLRF      0xea,0x0                                                                                        
003b90   2550     ADDWF     0x50,0x0,0x1                                                                                    
003b92   6ee9     MOVWF     0xe9,0x0                                                                                        
003b94   5151     MOVF      0x51,0x0,0x1                                                                                    
003b96   22ea     ADDWFC    0xea,0x1,0x0                                                                                    
003b98   50ef     MOVF      0xef,0x0,0x0                                                                                    
003b9a   6ee6     MOVWF     0xe6,0x0                                                                                        
003b9c   ecfe     CALL      0x3dfc,0x0                                                                                      
003b9e   f01e                                                                                                               
003ba0   52e5     MOVF      0xe5,0x1,0x0                                                                                    
003ba2   c750     MOVFF     0x750,0xfe9      Hex_output(ptr[0]);                                                            C:\Hannibal Code1.1\ifi_utilities.c
003ba4   ffe9                                                                                                               
003ba6   c751     MOVFF     0x751,0xfea                                                                                     
003ba8   ffea                                                                                                               
003baa   50ef     MOVF      0xef,0x0,0x0                                                                                    
003bac   6ee6     MOVWF     0xe6,0x0                                                                                        
003bae   ecfe     CALL      0x3dfc,0x0                                                                                      
003bb0   f01e                                                                                                               
003bb2   52e5     MOVF      0xe5,0x1,0x0                                                                                    
003bb4   0e0d     MOVLW     0xd              TXREG = 13;  /* add a carriage return */                                       C:\Hannibal Code1.1\ifi_utilities.c
003bb6   6ead     MOVWF     0xad,0x0                                                                                        
003bb8   dfc8     RCALL     0x3b4a           Wait4TXEmpty();                                                                C:\Hannibal Code1.1\ifi_utilities.c
003bba   52e5     MOVF      0xe5,0x1,0x0   }                                                                                C:\Hannibal Code1.1\ifi_utilities.c
003bbc   cfe7     MOVFF     0xfe7,0xfd9                                                                                     
003bbe   ffd9                                                                                                               
003bc0   0012     RETURN    0x0                                                                                             
                                                                                                                            C:\Hannibal Code1.1\ifi_utilities.c
                                                                                                                            C:\Hannibal Code1.1\ifi_utilities.c
                                           /******************************************************************************* C:\Hannibal Code1.1\ifi_utilities.c
                                           * FUNCTION NAME: PrintString                                                     C:\Hannibal Code1.1\ifi_utilities.c
                                           * PURPOSE:       Prints a string to the serial port.                             C:\Hannibal Code1.1\ifi_utilities.c
                                           * CALLED FROM:   anywhere                                                        C:\Hannibal Code1.1\ifi_utilities.c
                                           * ARGUMENTS:     none                                                            C:\Hannibal Code1.1\ifi_utilities.c
                                           *     Argument       Type             IO   Description                           C:\Hannibal Code1.1\ifi_utilities.c
                                           *     --------       -------------    --   -----------                           C:\Hannibal Code1.1\ifi_utilities.c
                                           *     bufr           pointer          I    word of data to be transmitted        C:\Hannibal Code1.1\ifi_utilities.c
                                           * RETURNS:       void                                                            C:\Hannibal Code1.1\ifi_utilities.c
                                           *******************************************************************************/ C:\Hannibal Code1.1\ifi_utilities.c
003bc2   cfd9     MOVFF     0xfd9,0xfe6    void PrintString(char *bufr)                                                     C:\Hannibal Code1.1\ifi_utilities.c
003bc4   ffe6                                                                                                               
003bc6   cfe1     MOVFF     0xfe1,0xfd9                                                                                     
003bc8   ffd9                                                                                                               
                                           {                                                                                C:\Hannibal Code1.1\ifi_utilities.c
                                             static int len,I;                                                              C:\Hannibal Code1.1\ifi_utilities.c
                                                                                                                            C:\Hannibal Code1.1\ifi_utilities.c
003bca   0efd     MOVLW     0xfd             strcpypgm2ram (ifi_printfBufr,(rom char *) bufr); /*Move from flash to ram*/   C:\Hannibal Code1.1\ifi_utilities.c
003bcc   cfdb     MOVFF     0xfdb,0x2b                                                                                      
003bce   f02b                                                                                                               
003bd0   0efe     MOVLW     0xfe                                                                                            
003bd2   cfdb     MOVFF     0xfdb,0x2c                                                                                      
003bd4   f02c                                                                                                               
003bd6   6a2d     CLRF      0x2d,0x0                                                                                        
003bd8   c02b     MOVFF     0x2b,0xfe6                                                                                      
003bda   ffe6                                                                                                               
003bdc   c02c     MOVFF     0x2c,0xfe6                                                                                      
003bde   ffe6                                                                                                               
003be0   c02d     MOVFF     0x2d,0xfe6                                                                                      
003be2   ffe6                                                                                                               
003be4   0e00     MOVLW     0x0                                                                                             
003be6   6ee6     MOVWF     0xe6,0x0                                                                                        
003be8   0e07     MOVLW     0x7                                                                                             
003bea   6ee6     MOVWF     0xe6,0x0                                                                                        
003bec   ec80     CALL      0x4300,0x0                                                                                      
003bee   f021                                                                                                               
003bf0   6ef5     MOVWF     0xf5,0x0                                                                                        
003bf2   0e05     MOVLW     0x5                                                                                             
003bf4   5ee1     SUBWF     0xe1,0x1,0x0                                                                                    
003bf6   50f5     MOVF      0xf5,0x0,0x0                                                                                    
003bf8   0e00     MOVLW     0x0              len = (int) strlen((const char *)ifi_printfBufr);                              C:\Hannibal Code1.1\ifi_utilities.c
003bfa   6ee6     MOVWF     0xe6,0x0                                                                                        
003bfc   0e07     MOVLW     0x7                                                                                             
003bfe   6ee6     MOVWF     0xe6,0x0                                                                                        
003c00   ec99     CALL      0x4332,0x0                                                                                      
003c02   f021                                                                                                               
003c04   52e5     MOVF      0xe5,0x1,0x0                                                                                    
003c06   52e5     MOVF      0xe5,0x1,0x0                                                                                    
003c08   cff3     MOVFF     0xff3,0x754                                                                                     
003c0a   f754                                                                                                               
003c0c   cff4     MOVFF     0xff4,0x755                                                                                     
003c0e   f755                                                                                                               
003c10   0107     MOVLB     0x7              if (len > 80) len = 80;                                                        C:\Hannibal Code1.1\ifi_utilities.c
003c12   5155     MOVF      0x55,0x0,0x1                                                                                    
003c14   0a00     XORLW     0x0                                                                                             
003c16   aee8     BTFSS     0xe8,0x7,0x0                                                                                    
003c18   d002     BRA       0x3c1e                                                                                          
003c1a   3555     RLCF      0x55,0x0,0x1                                                                                    
003c1c   d005     BRA       0x3c28                                                                                          
003c1e   0e50     MOVLW     0x50                                                                                            
003c20   80d8     BSF       0xd8,0x0,0x0                                                                                    
003c22   5554     SUBFWB    0x54,0x0,0x1                                                                                    
003c24   0e00     MOVLW     0x0                                                                                             
003c26   5555     SUBFWB    0x55,0x0,0x1                                                                                    
003c28   e203     BC        0x3c30                                                                                          
003c2a   0e50     MOVLW     0x50                                                                                            
003c2c   6f54     MOVWF     0x54,0x1                                                                                        
003c2e   6b55     CLRF      0x55,0x1                                                                                        
                                                                                                                            C:\Hannibal Code1.1\ifi_utilities.c
003c30   6b56     CLRF      0x56,0x1         for (I=0;I<len;I++)                                                            C:\Hannibal Code1.1\ifi_utilities.c
003c32   6b57     CLRF      0x57,0x1                                                                                        
003c34   5157     MOVF      0x57,0x0,0x1                                                                                    
003c36   1955     XORWF     0x55,0x0,0x1                                                                                    
003c38   aee8     BTFSS     0xe8,0x7,0x0                                                                                    
003c3a   d002     BRA       0x3c40                                                                                          
003c3c   3555     RLCF      0x55,0x0,0x1                                                                                    
003c3e   d004     BRA       0x3c48                                                                                          
003c40   5154     MOVF      0x54,0x0,0x1                                                                                    
003c42   5d56     SUBWF     0x56,0x0,0x1                                                                                    
003c44   5155     MOVF      0x55,0x0,0x1                                                                                    
003c46   5957     SUBWFB    0x57,0x0,0x1                                                                                    
003c48   e20e     BC        0x3c66                                                                                          
003c5c   0107     MOVLB     0x7                                                                                             
003c5e   2b56     INCF      0x56,0x1,0x1                                                                                    
003c60   0e00     MOVLW     0x0                                                                                             
003c62   2357     ADDWFC    0x57,0x1,0x1                                                                                    
003c64   d7e7     BRA       0x3c34                                                                                          
                                             {                                                                              C:\Hannibal Code1.1\ifi_utilities.c
003c4a   0e00     MOVLW     0x0                TXREG = ifi_printfBufr[I];                                                   C:\Hannibal Code1.1\ifi_utilities.c
003c4c   2556     ADDWF     0x56,0x0,0x1                                                                                    
003c4e   6ee9     MOVWF     0xe9,0x0                                                                                        
003c50   0e07     MOVLW     0x7                                                                                             
003c52   2157     ADDWFC    0x57,0x0,0x1                                                                                    
003c54   6eea     MOVWF     0xea,0x0                                                                                        
003c56   50ef     MOVF      0xef,0x0,0x0                                                                                    
003c58   6ead     MOVWF     0xad,0x0                                                                                        
003c5a   df77     RCALL     0x3b4a             Wait4TXEmpty();                                                              C:\Hannibal Code1.1\ifi_utilities.c
                                             }                                                                              C:\Hannibal Code1.1\ifi_utilities.c
003c66   52e5     MOVF      0xe5,0x1,0x0   }                                                                                C:\Hannibal Code1.1\ifi_utilities.c
003c68   cfe7     MOVFF     0xfe7,0xfd9                                                                                     
003c6a   ffd9                                                                                                               
003c6c   0012     RETURN    0x0                                                                                             
                                                                                                                            C:\Hannibal Code1.1\ifi_utilities.c
                                                                                                                            C:\Hannibal Code1.1\ifi_utilities.c
                                           /******************************************************************************* C:\Hannibal Code1.1\ifi_utilities.c
                                           * FUNCTION NAME: DisplayBufr                                                     C:\Hannibal Code1.1\ifi_utilities.c
                                           * PURPOSE:       Print the entire transmit or receive buffer over the serial     C:\Hannibal Code1.1\ifi_utilities.c
                                           *                port for viewing in a terminal program on your PC.              C:\Hannibal Code1.1\ifi_utilities.c
                                           * CALLED FROM:   anywhere                                                        C:\Hannibal Code1.1\ifi_utilities.c
                                           * ARGUMENTS:                                                                     C:\Hannibal Code1.1\ifi_utilities.c
                                           *     Argument       Type        IO   Description                                C:\Hannibal Code1.1\ifi_utilities.c
                                           *     --------       --------    --   -----------                                C:\Hannibal Code1.1\ifi_utilities.c
                                           *     *bufr          pointer     I    points to beginning of buffer to transmit  C:\Hannibal Code1.1\ifi_utilities.c
                                           * RETURNS:       void                                                            C:\Hannibal Code1.1\ifi_utilities.c
                                           *******************************************************************************/ C:\Hannibal Code1.1\ifi_utilities.c
003c6e   cfd9     MOVFF     0xfd9,0xfe6    void DisplayBufr(unsigned char *bufr)                                            C:\Hannibal Code1.1\ifi_utilities.c
003c70   ffe6                                                                                                               
003c72   cfe1     MOVFF     0xfe1,0xfd9                                                                                     
003c74   ffd9                                                                                                               
                                           {                                                                                C:\Hannibal Code1.1\ifi_utilities.c
003c76   0107     MOVLB     0x7              for (ifi_count=0;ifi_count<26;ifi_count++)                                     C:\Hannibal Code1.1\ifi_utilities.c
003c78   6b52     CLRF      0x52,0x1                                                                                        
003c7a   0e1a     MOVLW     0x1a                                                                                            
003c7c   5d52     SUBWF     0x52,0x0,0x1                                                                                    
003c7e   e211     BC        0x3ca2                                                                                          
003c9c   0107     MOVLB     0x7                                                                                             
003c9e   2b52     INCF      0x52,0x1,0x1                                                                                    
003ca0   d7ec     BRA       0x3c7a                                                                                          
                                             {                                                                              C:\Hannibal Code1.1\ifi_utilities.c
003c80   0efd     MOVLW     0xfd               Hex_output((unsigned char) *bufr++);                                         C:\Hannibal Code1.1\ifi_utilities.c
003c82   cfdb     MOVFF     0xfdb,0xfe9                                                                                     
003c84   ffe9                                                                                                               
003c86   2adb     INCF      0xdb,0x1,0x0                                                                                    
003c88   0efe     MOVLW     0xfe                                                                                            
003c8a   cfdb     MOVFF     0xfdb,0xfea                                                                                     
003c8c   ffea                                                                                                               
003c8e   e301     BNC       0x3c92                                                                                          
003c90   2adb     INCF      0xdb,0x1,0x0                                                                                    
003c92   50ef     MOVF      0xef,0x0,0x0                                                                                    
003c94   6ee6     MOVWF     0xe6,0x0                                                                                        
003c96   ecfe     CALL      0x3dfc,0x0                                                                                      
003c98   f01e                                                                                                               
003c9a   52e5     MOVF      0xe5,0x1,0x0                                                                                    
                                             }                                                                              C:\Hannibal Code1.1\ifi_utilities.c
003ca2   0e0d     MOVLW     0xd              TXREG = 13;  /* add a carriage return */                                       C:\Hannibal Code1.1\ifi_utilities.c
003ca4   6ead     MOVWF     0xad,0x0                                                                                        
003ca6   df51     RCALL     0x3b4a           Wait4TXEmpty();                                                                C:\Hannibal Code1.1\ifi_utilities.c
003ca8   52e5     MOVF      0xe5,0x1,0x0   }                                                                                C:\Hannibal Code1.1\ifi_utilities.c
003caa   cfe7     MOVFF     0xfe7,0xfd9                                                                                     
003cac   ffd9                                                                                                               
003cae   0012     RETURN    0x0                                                                                             
                                                                                                                            C:\Hannibal Code1.1\ifi_utilities.c
                                                                                                                            C:\Hannibal Code1.1\ifi_utilities.c
                                           /******************************************************************************* C:\Hannibal Code1.1\ifi_utilities.c
                                           * FUNCTION NAME: PacketNum_Check                                                 C:\Hannibal Code1.1\ifi_utilities.c
                                           * PURPOSE:       Print the packet number over the serial port if a packet gets   C:\Hannibal Code1.1\ifi_utilities.c
                                           *                dropped.  Handy for seeing if you are dropping data.            C:\Hannibal Code1.1\ifi_utilities.c
                                           * CALLED FROM:   anywhere                                                        C:\Hannibal Code1.1\ifi_utilities.c
                                           * ARGUMENTS:     none                                                            C:\Hannibal Code1.1\ifi_utilities.c
                                           * RETURNS:       void                                                            C:\Hannibal Code1.1\ifi_utilities.c
                                           *******************************************************************************/ C:\Hannibal Code1.1\ifi_utilities.c
                                           void PacketNum_Check(void)                                                       C:\Hannibal Code1.1\ifi_utilities.c
                                           {                                                                                C:\Hannibal Code1.1\ifi_utilities.c
                                             /*    to print only the 10th (packet num) byte*/                               C:\Hannibal Code1.1\ifi_utilities.c
003cb0   0107     MOVLB     0x7              ptr = (unsigned char *) &rxdata.packet_num;                                    C:\Hannibal Code1.1\ifi_utilities.c
003cb2   0e78     MOVLW     0x78                                                                                            
003cb4   6f50     MOVWF     0x50,0x1                                                                                        
003cb6   0e07     MOVLW     0x7                                                                                             
003cb8   6f51     MOVWF     0x51,0x1                                                                                        
003cba   0107     MOVLB     0x7              ifi_packet_num1 = (int) rxdata.packet_num;                                     C:\Hannibal Code1.1\ifi_utilities.c
003cbc   5178     MOVF      0x78,0x0,0x1                                                                                    
003cbe   0101     MOVLB     0x1                                                                                             
003cc0   6f09     MOVWF     0x9,0x1                                                                                         
003cc2   6b0a     CLRF      0xa,0x1                                                                                         
003cc4   510b     MOVF      0xb,0x0,0x1      if (ifi_packet_num1 != ifi_last_packet1)                                       C:\Hannibal Code1.1\ifi_utilities.c
003cc6   1909     XORWF     0x9,0x0,0x1                                                                                     
003cc8   e102     BNZ       0x3cce                                                                                          
003cca   510c     MOVF      0xc,0x0,0x1                                                                                     
003ccc   190a     XORWF     0xa,0x0,0x1                                                                                     
003cce   e018     BZ        0x3d00                                                                                          
                                             {                                                                              C:\Hannibal Code1.1\ifi_utilities.c
003cd0   0107     MOVLB     0x7                if (statusflag.FIRST_TIME == 1)                                              C:\Hannibal Code1.1\ifi_utilities.c
003cd2   a598     BTFSS     0x98,0x2,0x1                                                                                    
003cd4   d002     BRA       0x3cda                                                                                          
                                               {                                                                            C:\Hannibal Code1.1\ifi_utilities.c
003cd6   9598     BCF       0x98,0x2,0x1         statusflag.FIRST_TIME = 0;                                                 C:\Hannibal Code1.1\ifi_utilities.c
                                               }                                                                            C:\Hannibal Code1.1\ifi_utilities.c
003cd8   d00f     BRA       0x3cf8             else                                                                         C:\Hannibal Code1.1\ifi_utilities.c
                                               {                                                                            C:\Hannibal Code1.1\ifi_utilities.c
003cda   c10b     MOVFF     0x10b,0xfe6          Hex_output((unsigned char) ifi_last_packet1);                              C:\Hannibal Code1.1\ifi_utilities.c
003cdc   ffe6                                                                                                               
003cde   ecfe     CALL      0x3dfc,0x0                                                                                      
003ce0   f01e                                                                                                               
003ce2   52e5     MOVF      0xe5,0x1,0x0                                                                                    
003ce4   c109     MOVFF     0x109,0xfe6          Hex_output((unsigned char) ifi_packet_num1);                               C:\Hannibal Code1.1\ifi_utilities.c
003ce6   ffe6                                                                                                               
003ce8   ecfe     CALL      0x3dfc,0x0                                                                                      
003cea   f01e                                                                                                               
003cec   52e5     MOVF      0xe5,0x1,0x0                                                                                    
003cee   0e0d     MOVLW     0xd                  TXREG = 13;                                                                C:\Hannibal Code1.1\ifi_utilities.c
003cf0   6ead     MOVWF     0xad,0x0                                                                                        
003cf2   df2b     RCALL     0x3b4a               Wait4TXEmpty();                                                            C:\Hannibal Code1.1\ifi_utilities.c
                                                                                                                            C:\Hannibal Code1.1\ifi_utilities.c
003cf4   0107     MOVLB     0x7                  statusflag.FIRST_TIME = 0;                                                 C:\Hannibal Code1.1\ifi_utilities.c
003cf6   9598     BCF       0x98,0x2,0x1                                                                                    
                                               }                                                                            C:\Hannibal Code1.1\ifi_utilities.c
003cf8   c109     MOVFF     0x109,0x10b        ifi_last_packet1 = ifi_packet_num1;                                          C:\Hannibal Code1.1\ifi_utilities.c
003cfa   f10b                                                                                                               
003cfc   c10a     MOVFF     0x10a,0x10c                                                                                     
003cfe   f10c                                                                                                               
                                             }/*   if (ifi_packet_num1 != ifi_last_packet1)*/                               C:\Hannibal Code1.1\ifi_utilities.c
003d00   0101     MOVLB     0x1              ifi_last_packet1++;                                                            C:\Hannibal Code1.1\ifi_utilities.c
003d02   2b0b     INCF      0xb,0x1,0x1                                                                                     
003d04   0e00     MOVLW     0x0                                                                                             
003d06   230c     ADDWFC    0xc,0x1,0x1                                                                                     
003d08   510c     MOVF      0xc,0x0,0x1      if (ifi_last_packet1 > 255)                                                    C:\Hannibal Code1.1\ifi_utilities.c
003d0a   0a00     XORLW     0x0                                                                                             
003d0c   aee8     BTFSS     0xe8,0x7,0x0                                                                                    
003d0e   d002     BRA       0x3d14                                                                                          
003d10   350c     RLCF      0xc,0x0,0x1                                                                                     
003d12   d005     BRA       0x3d1e                                                                                          
003d14   0eff     MOVLW     0xff                                                                                            
003d16   80d8     BSF       0xd8,0x0,0x0                                                                                    
003d18   550b     SUBFWB    0xb,0x0,0x1                                                                                     
003d1a   0e00     MOVLW     0x0                                                                                             
003d1c   550c     SUBFWB    0xc,0x0,0x1                                                                                     
003d1e   e202     BC        0x3d24                                                                                          
                                             {                                                                              C:\Hannibal Code1.1\ifi_utilities.c
003d20   6b0b     CLRF      0xb,0x1            ifi_last_packet1 = 0;                                                        C:\Hannibal Code1.1\ifi_utilities.c
003d22   6b0c     CLRF      0xc,0x1                                                                                         
                                             }                                                                              C:\Hannibal Code1.1\ifi_utilities.c
003d24   0012     RETURN    0x0            }                                                                                C:\Hannibal Code1.1\ifi_utilities.c
                                                                                                                            C:\Hannibal Code1.1\ifi_utilities.c
                                                                                                                            C:\Hannibal Code1.1\ifi_utilities.c
                                           /******************************************************************************* C:\Hannibal Code1.1\ifi_utilities.c
                                           * FUNCTION NAME: Initialize_Serial_Comms                                         C:\Hannibal Code1.1\ifi_utilities.c
                                           * PURPOSE:       Opens the serial port 1 for communicating with your PC at       C:\Hannibal Code1.1\ifi_utilities.c
                                           *                115k baud, 8 bits, no parity, one stop bit, and no flow control. C:\Hannibal Code1.1\ifi_utilities.c
                                           * CALLED FROM:   user_routines.c                                                 C:\Hannibal Code1.1\ifi_utilities.c
                                           * ARGUMENTS:     none                                                            C:\Hannibal Code1.1\ifi_utilities.c
                                           * RETURNS:       void                                                            C:\Hannibal Code1.1\ifi_utilities.c
                                           *******************************************************************************/ C:\Hannibal Code1.1\ifi_utilities.c
                                           void Initialize_Serial_Comms (void)                                              C:\Hannibal Code1.1\ifi_utilities.c
                                           {                                                                                C:\Hannibal Code1.1\ifi_utilities.c
                                             OpenUSART(USART_TX_INT_OFF &                                                   C:\Hannibal Code1.1\ifi_utilities.c
                                               USART_RX_INT_OFF &                                                           C:\Hannibal Code1.1\ifi_utilities.c
                                               USART_ASYNCH_MODE &                                                          C:\Hannibal Code1.1\ifi_utilities.c
                                               USART_EIGHT_BIT &                                                            C:\Hannibal Code1.1\ifi_utilities.c
                                               USART_CONT_RX &                                                              C:\Hannibal Code1.1\ifi_utilities.c
003d2a   0e3c     MOVLW     0x3c               USART_BRGH_HIGH,                                                             C:\Hannibal Code1.1\ifi_utilities.c
003d2c   6ee6     MOVWF     0xe6,0x0                                                                                        
003d26   0e15     MOVLW     0x15               baud_115);                                                                   C:\Hannibal Code1.1\ifi_utilities.c
003d28   6ee6     MOVWF     0xe6,0x0                                                                                        
003d2e   ec29     CALL      0x4252,0x0                                                                                      
003d30   f021                                                                                                               
003d32   52e5     MOVF      0xe5,0x1,0x0                                                                                    
003d34   52e5     MOVF      0xe5,0x1,0x0                                                                                    
                                                                                                                            C:\Hannibal Code1.1\ifi_utilities.c
003d36   0e32     MOVLW     0x32             Delay1KTCYx( 50 ); /* Settling time */                                         C:\Hannibal Code1.1\ifi_utilities.c
003d38   6ee6     MOVWF     0xe6,0x0                                                                                        
003d3a   ec1e     CALL      0x443c,0x0                                                                                      
003d3c   f022                                                                                                               
003d3e   52e5     MOVF      0xe5,0x1,0x0                                                                                    
003d40   0012     RETURN    0x0            }                                                                                C:\Hannibal Code1.1\ifi_utilities.c
                                                                                                                            C:\Hannibal Code1.1\ifi_utilities.c
                                                                                                                            C:\Hannibal Code1.1\ifi_utilities.c
                                           /******************************************************************************* C:\Hannibal Code1.1\ifi_utilities.c
                                           * FUNCTION NAME: Set_Number_of_Analog_Channels                                   C:\Hannibal Code1.1\ifi_utilities.c
                                           * PURPOSE:       Sets the variable used in Get_Analog_Value routine (below)      C:\Hannibal Code1.1\ifi_utilities.c
                                           *                to the number of analog channels desired by the user.           C:\Hannibal Code1.1\ifi_utilities.c
                                           * CALLED FROM:   user_routines.c initialization, typically                       C:\Hannibal Code1.1\ifi_utilities.c
                                           * ARGUMENTS:                                                                     C:\Hannibal Code1.1\ifi_utilities.c
                                           *      Argument            Type    IO   Description                              C:\Hannibal Code1.1\ifi_utilities.c
                                           *     -----------          -----   --   -----------                              C:\Hannibal Code1.1\ifi_utilities.c
                                           *     number_of_channels   alias   I    choose alias from ifi_aliases.h          C:\Hannibal Code1.1\ifi_utilities.c
                                           * RETURNS:       void                                                            C:\Hannibal Code1.1\ifi_utilities.c
                                           *******************************************************************************/ C:\Hannibal Code1.1\ifi_utilities.c
003d42   cfd9     MOVFF     0xfd9,0xfe6    void Set_Number_of_Analog_Channels (unsigned char number_of_channels)            C:\Hannibal Code1.1\ifi_utilities.c
003d44   ffe6                                                                                                               
003d46   cfe1     MOVFF     0xfe1,0xfd9                                                                                     
003d48   ffd9                                                                                                               
                                           {                                                                                C:\Hannibal Code1.1\ifi_utilities.c
003d4a   0efe     MOVLW     0xfe             ifi_analog_channels = number_of_channels;                                      C:\Hannibal Code1.1\ifi_utilities.c
003d4c   cfdb     MOVFF     0xfdb,0x753                                                                                     
003d4e   f753                                                                                                               
003d50   52e5     MOVF      0xe5,0x1,0x0   }                                                                                C:\Hannibal Code1.1\ifi_utilities.c
003d52   cfe7     MOVFF     0xfe7,0xfd9                                                                                     
003d54   ffd9                                                                                                               
003d56   0012     RETURN    0x0                                                                                             
                                                                                                                            C:\Hannibal Code1.1\ifi_utilities.c
                                                                                                                            C:\Hannibal Code1.1\ifi_utilities.c
                                           /******************************************************************************* C:\Hannibal Code1.1\ifi_utilities.c
                                           * FUNCTION NAME: Get_Analog_Value                                                C:\Hannibal Code1.1\ifi_utilities.c
                                           * PURPOSE:       Reads the analog voltage on an A/D port and returns the         C:\Hannibal Code1.1\ifi_utilities.c
                                           *                10-bit value read stored in an unsigned int.                    C:\Hannibal Code1.1\ifi_utilities.c
                                           * CALLED FROM:   user_routines.c, typically                                      C:\Hannibal Code1.1\ifi_utilities.c
                                           * ARGUMENTS:                                                                     C:\Hannibal Code1.1\ifi_utilities.c
                                           *      Argument         Type        IO   Description                             C:\Hannibal Code1.1\ifi_utilities.c
                                           *     -----------   -------------   --   -----------                             C:\Hannibal Code1.1\ifi_utilities.c
                                           *     ADC_channel       alias       I    alias found in ifi_aliases.h            C:\Hannibal Code1.1\ifi_utilities.c
                                           * RETURNS:       unsigned int                                                    C:\Hannibal Code1.1\ifi_utilities.c
                                           *******************************************************************************/ C:\Hannibal Code1.1\ifi_utilities.c
003d58   cfd9     MOVFF     0xfd9,0xfe6    unsigned int Get_Analog_Value (unsigned char ADC_channel)                        C:\Hannibal Code1.1\ifi_utilities.c
003d5a   ffe6                                                                                                               
003d5c   cfe1     MOVFF     0xfe1,0xfd9                                                                                     
003d5e   ffd9                                                                                                               
003d60   0e02     MOVLW     0x2                                                                                             
003d62   26e1     ADDWF     0xe1,0x1,0x0                                                                                    
                                           {                                                                                C:\Hannibal Code1.1\ifi_utilities.c
                                             unsigned int result;                                                           C:\Hannibal Code1.1\ifi_utilities.c
                                                                                                                            C:\Hannibal Code1.1\ifi_utilities.c
003d70   c753     MOVFF     0x753,0xfe6      OpenADC( ADC_FOSC_RC & ADC_RIGHT_JUST & ifi_analog_channels,                   C:\Hannibal Code1.1\ifi_utilities.c
003d72   ffe6                                                                                                               
003d64   0efe     MOVLW     0xfe                     ADC_channel & ADC_INT_OFF & ADC_VREFPLUS_VDD & ADC_VREFMINUS_VSS );    C:\Hannibal Code1.1\ifi_utilities.c
003d66   50db     MOVF      0xdb,0x0,0x0                                                                                    
003d68   0b7f     ANDLW     0x7f                                                                                            
003d6a   0bfe     ANDLW     0xfe                                                                                            
003d6c   0bfd     ANDLW     0xfd                                                                                            
003d6e   6ee6     MOVWF     0xe6,0x0                                                                                        
003d74   ec55     CALL      0x42aa,0x0                                                                                      
003d76   f021                                                                                                               
003d78   52e5     MOVF      0xe5,0x1,0x0                                                                                    
003d7a   52e5     MOVF      0xe5,0x1,0x0                                                                                    
003d7c   0e0a     MOVLW     0xa              Delay10TCYx( 10 );                                                             C:\Hannibal Code1.1\ifi_utilities.c
003d7e   6ee6     MOVWF     0xe6,0x0                                                                                        
003d80   ec3c     CALL      0x4478,0x0                                                                                      
003d82   f022                                                                                                               
003d84   52e5     MOVF      0xe5,0x1,0x0                                                                                    
003d86   ec4a     CALL      0x4494,0x0       ConvertADC();                                                                  C:\Hannibal Code1.1\ifi_utilities.c
003d88   f022                                                                                                               
003d8a   ec07     CALL      0x80e,0x0        while( BusyADC() );                                                            C:\Hannibal Code1.1\ifi_utilities.c
003d8c   f004                                                                                                               
003d8e   0900     IORLW     0x0                                                                                             
003d90   e001     BZ        0x3d94                                                                                          
003d92   d7fb     BRA       0x3d8a                                                                                          
003d94   eccb     CALL      0x4396,0x0       ReadADC();                                                                     C:\Hannibal Code1.1\ifi_utilities.c
003d96   f021                                                                                                               
003d98   ec47     CALL      0x448e,0x0       CloseADC();                                                                    C:\Hannibal Code1.1\ifi_utilities.c
003d9a   f022                                                                                                               
003d9c   50c4     MOVF      0xc4,0x0,0x0     result = (int) ADRESH << 8 | ADRESL;                                           C:\Hannibal Code1.1\ifi_utilities.c
003d9e   6e2d     MOVWF     0x2d,0x0                                                                                        
003da0   c02d     MOVFF     0x2d,0x2e                                                                                       
003da2   f02e                                                                                                               
003da4   6a2d     CLRF      0x2d,0x0                                                                                        
003da6   50c3     MOVF      0xc3,0x0,0x0                                                                                    
003da8   0100     MOVLB     0x0                                                                                             
003daa   102d     IORWF     0x2d,0x0,0x0                                                                                    
003dac   6f2b     MOVWF     0x2b,0x1                                                                                        
003dae   c02e     MOVFF     0x2e,0x2c                                                                                       
003db0   f02c                                                                                                               
003db2   c02b     MOVFF     0x2b,0xfde                                                                                      
003db4   ffde                                                                                                               
003db6   c02c     MOVFF     0x2c,0xfdd                                                                                      
003db8   ffdd                                                                                                               
003dba   cfde     MOVFF     0xfde,0x2b       return result;                                                                 C:\Hannibal Code1.1\ifi_utilities.c
003dbc   f02b                                                                                                               
003dbe   cfdd     MOVFF     0xfdd,0x2c                                                                                      
003dc0   f02c                                                                                                               
003dc2   c02b     MOVFF     0x2b,0xff3                                                                                      
003dc4   fff3                                                                                                               
003dc6   c02c     MOVFF     0x2c,0xff4                                                                                      
003dc8   fff4                                                                                                               
003dca   d000     BRA       0x3dcc                                                                                          
003dcc   cfd9     MOVFF     0xfd9,0xfe1    }                                                                                C:\Hannibal Code1.1\ifi_utilities.c
003dce   ffe1                                                                                                               
003dd0   52e5     MOVF      0xe5,0x1,0x0                                                                                    
003dd2   cfe7     MOVFF     0xfe7,0xfd9                                                                                     
003dd4   ffd9                                                                                                               
003dd6   0012     RETURN    0x0                                                                                             
                                                                                                                            C:\Hannibal Code1.1\ifi_utilities.c
                                                                                                                            C:\Hannibal Code1.1\ifi_utilities.c
                                           /******************************************************************************/ C:\Hannibal Code1.1\ifi_utilities.c
                                           /******************************************************************************/ C:\Hannibal Code1.1\ifi_utilities.c
                                           /******************************************************************************/ C:\Hannibal Code1.1\ifi_utilities.c
                                           /******************************************************************************* C:\Hannibal Code1.1\ifi_startup.c
                                           * FILE NAME: ifi_startup.c                                                       C:\Hannibal Code1.1\ifi_startup.c
                                           *                                                                                C:\Hannibal Code1.1\ifi_startup.c
                                           * DESCRIPTION:                                                                   C:\Hannibal Code1.1\ifi_startup.c
                                           *  This file contains important startup code.                                    C:\Hannibal Code1.1\ifi_startup.c
                                           *                                                                                C:\Hannibal Code1.1\ifi_startup.c
                                           * USAGE:                                                                         C:\Hannibal Code1.1\ifi_startup.c
                                           *  This file should not be modified at all by the user.                          C:\Hannibal Code1.1\ifi_startup.c
                                           *                                                                                C:\Hannibal Code1.1\ifi_startup.c
                                           *  DO NOT MODIFY THIS FILE!                                                      C:\Hannibal Code1.1\ifi_startup.c
                                           *******************************************************************************/ C:\Hannibal Code1.1\ifi_startup.c
                                                                                                                            C:\Hannibal Code1.1\ifi_startup.c
                                           #include "ifi_default.h"                                                         C:\Hannibal Code1.1\ifi_startup.c
                                                                                                                            C:\Hannibal Code1.1\ifi_startup.c
                                           extern void Clear_Memory (void);                                                 C:\Hannibal Code1.1\ifi_startup.c
                                           extern void main (void);                                                         C:\Hannibal Code1.1\ifi_startup.c
                                                                                                                            C:\Hannibal Code1.1\ifi_startup.c
                                           void _entry (void);     /* prototype for the startup function */                 C:\Hannibal Code1.1\ifi_startup.c
                                           void _startup (void);                                                            C:\Hannibal Code1.1\ifi_startup.c
                                           void _do_cinit (void);  /* prototype for the initialized data setup */           C:\Hannibal Code1.1\ifi_startup.c
                                                                                                                            C:\Hannibal Code1.1\ifi_startup.c
                                           extern volatile near unsigned long short TBLPTR;                                 C:\Hannibal Code1.1\ifi_startup.c
                                           extern near unsigned FSR0;                                                       C:\Hannibal Code1.1\ifi_startup.c
                                           extern near char FPFLAGS;                                                        C:\Hannibal Code1.1\ifi_startup.c
                                           #define RND 6                                                                    C:\Hannibal Code1.1\ifi_startup.c
                                                                                                                            C:\Hannibal Code1.1\ifi_startup.c
                                           #pragma code _entry_scn=RESET_VECTOR                                             C:\Hannibal Code1.1\ifi_startup.c
                                           void _entry (void)                                                               C:\Hannibal Code1.1\ifi_startup.c
                                           {                                                                                C:\Hannibal Code1.1\ifi_startup.c
000800   ef0e     GOTO      0x441c         _asm goto _startup _endasm                                                       C:\Hannibal Code1.1\ifi_startup.c
000802   f022                                                                                                               
                                                                                                                            C:\Hannibal Code1.1\ifi_startup.c
000804   0012     RETURN    0x0            }                                                                                C:\Hannibal Code1.1\ifi_startup.c
                                                                                                                            C:\Hannibal Code1.1\ifi_startup.c
                                           #pragma code _startup_scn                                                        C:\Hannibal Code1.1\ifi_startup.c
                                           void _startup (void)                                                             C:\Hannibal Code1.1\ifi_startup.c
                                           {                                                                                C:\Hannibal Code1.1\ifi_startup.c
                                             _asm                                                                           C:\Hannibal Code1.1\ifi_startup.c
                                               /* Initialize the stack pointer */                                           C:\Hannibal Code1.1\ifi_startup.c
00441c   ee16     LFSR      0x1,0x600          lfsr 1, _stack lfsr 2, _stack clrf TBLPTRU, 0 /* 1st silicon doesn't do this on POR */ C:\Hannibal Code1.1\ifi_startup.c
00441e   f000                                                                                                               
004420   ee26     LFSR      0x2,0x600                                                                                       
004422   f000                                                                                                               
004424   6af8     CLRF      0xf8,0x0                                                                                        
004426   9c26     BCF       0x26,0x6,0x0       bcf  FPFLAGS,RND,0 /* Initialize rounding flag for floating point libs */    C:\Hannibal Code1.1\ifi_startup.c
                                                                                                                            C:\Hannibal Code1.1\ifi_startup.c
                                               /* initialize the flash memory access configuration. this is harmless */     C:\Hannibal Code1.1\ifi_startup.c
                                               /* for non-flash devices, so we do it on all parts. */                       C:\Hannibal Code1.1\ifi_startup.c
004428   8ea6     BSF       0xa6,0x7,0x0       bsf 0xa6, 7, 0                                                               C:\Hannibal Code1.1\ifi_startup.c
00442a   9ca6     BCF       0xa6,0x6,0x0       bcf 0xa6, 6, 0                                                               C:\Hannibal Code1.1\ifi_startup.c
                                             _endasm                                                                        C:\Hannibal Code1.1\ifi_startup.c
                                                                                                                            C:\Hannibal Code1.1\ifi_startup.c
                                           loop:                                                                            C:\Hannibal Code1.1\ifi_startup.c
                                                                                                                            C:\Hannibal Code1.1\ifi_startup.c
00442c   ecec     CALL      0x3dd8,0x0      	Clear_Memory();                                                                C:\Hannibal Code1.1\ifi_startup.c
00442e   f01e                                                                                                               
004430   ec75     CALL      0x40ea,0x0       _do_cinit ();                                                                  C:\Hannibal Code1.1\ifi_startup.c
004432   f020                                                                                                               
                                             /* Call the user's main routine */                                             C:\Hannibal Code1.1\ifi_startup.c
004434   ecfa     CALL      0x43f4,0x0       main ();                                                                       C:\Hannibal Code1.1\ifi_startup.c
004436   f021                                                                                                               
                                                                                                                            C:\Hannibal Code1.1\ifi_startup.c
004438   d7f9     BRA       0x442c           goto loop;                                                                     C:\Hannibal Code1.1\ifi_startup.c
00443a   0012     RETURN    0x0            }                               /* end _startup() */                             C:\Hannibal Code1.1\ifi_startup.c
                                                                                                                            C:\Hannibal Code1.1\ifi_startup.c
                                           /* MPLAB-C18 initialized data memory support */                                  C:\Hannibal Code1.1\ifi_startup.c
                                           /* The linker will populate the _cinit table */                                  C:\Hannibal Code1.1\ifi_startup.c
                                           extern far rom struct                                                            C:\Hannibal Code1.1\ifi_startup.c
                                           {                                                                                C:\Hannibal Code1.1\ifi_startup.c
                                             unsigned short num_init;                                                       C:\Hannibal Code1.1\ifi_startup.c
                                             struct _init_entry                                                             C:\Hannibal Code1.1\ifi_startup.c
                                             {                                                                              C:\Hannibal Code1.1\ifi_startup.c
                                               unsigned long from;                                                          C:\Hannibal Code1.1\ifi_startup.c
                                               unsigned long to;                                                            C:\Hannibal Code1.1\ifi_startup.c
                                               unsigned long size;                                                          C:\Hannibal Code1.1\ifi_startup.c
                                             }                                                                              C:\Hannibal Code1.1\ifi_startup.c
                                             entries[];                                                                     C:\Hannibal Code1.1\ifi_startup.c
                                           }                                                                                C:\Hannibal Code1.1\ifi_startup.c
                                           _cinit;                                                                          C:\Hannibal Code1.1\ifi_startup.c
                                                                                                                            C:\Hannibal Code1.1\ifi_startup.c
                                           #pragma code _cinit_scn                                                          C:\Hannibal Code1.1\ifi_startup.c
                                           void                                                                             C:\Hannibal Code1.1\ifi_startup.c
                                           _do_cinit (void)                                                                 C:\Hannibal Code1.1\ifi_startup.c
                                           {                                                                                C:\Hannibal Code1.1\ifi_startup.c
                                             /* we'll make the assumption in the following code that these statics          C:\Hannibal Code1.1\ifi_startup.c
                                              * will be allocated into the same bank.                                       C:\Hannibal Code1.1\ifi_startup.c
                                              */                                                                            C:\Hannibal Code1.1\ifi_startup.c
                                             static short long prom;                                                        C:\Hannibal Code1.1\ifi_startup.c
                                             static unsigned short curr_byte;                                               C:\Hannibal Code1.1\ifi_startup.c
                                             static unsigned short curr_entry;                                              C:\Hannibal Code1.1\ifi_startup.c
                                             static short long data_ptr;                                                    C:\Hannibal Code1.1\ifi_startup.c
                                                                                                                            C:\Hannibal Code1.1\ifi_startup.c
                                             /* Initialized data... */                                                      C:\Hannibal Code1.1\ifi_startup.c
0040ea   0e1e     MOVLW     0x1e             TBLPTR = (short long)&_cinit;                                                  C:\Hannibal Code1.1\ifi_startup.c
0040ec   6ef6     MOVWF     0xf6,0x0                                                                                        
0040ee   0e08     MOVLW     0x8                                                                                             
0040f0   6ef7     MOVWF     0xf7,0x0                                                                                        
0040f2   0e00     MOVLW     0x0                                                                                             
0040f4   6ef8     MOVWF     0xf8,0x0                                                                                        
                                             _asm                                                                           C:\Hannibal Code1.1\ifi_startup.c
0040f6   0107     MOVLB     0x7                movlb data_ptr                                                               C:\Hannibal Code1.1\ifi_startup.c
0040f8   0009     TBLRDPOSTINC                 tblrdpostinc                                                                 C:\Hannibal Code1.1\ifi_startup.c
0040fa   50f5     MOVF      0xf5,0x0,0x0       movf  TABLAT, 0, 0                                                           C:\Hannibal Code1.1\ifi_startup.c
0040fc   6fdf     MOVWF     0xdf,0x1           movwf curr_entry, 1                                                          C:\Hannibal Code1.1\ifi_startup.c
0040fe   0009     TBLRDPOSTINC                 tblrdpostinc                                                                 C:\Hannibal Code1.1\ifi_startup.c
004100   50f5     MOVF      0xf5,0x0,0x0       movf  TABLAT, 0, 0                                                           C:\Hannibal Code1.1\ifi_startup.c
004102   6fe0     MOVWF     0xe0,0x1           movwf curr_entry+1, 1                                                        C:\Hannibal Code1.1\ifi_startup.c
                                             _endasm                                                                        C:\Hannibal Code1.1\ifi_startup.c
                                               test:                                                                        C:\Hannibal Code1.1\ifi_startup.c
                                             _asm                                                                           C:\Hannibal Code1.1\ifi_startup.c
004104   e103     BNZ       0x410c              bnz 3                                                                       C:\Hannibal Code1.1\ifi_startup.c
004106   67df     TSTFSZ    0xdf,0x1           tstfsz curr_entry, 1                                                         C:\Hannibal Code1.1\ifi_startup.c
004108   d001     BRA       0x410c             bra 1                                                                        C:\Hannibal Code1.1\ifi_startup.c
                                             _endasm                                                                        C:\Hannibal Code1.1\ifi_startup.c
00410a   d03d     BRA       0x4186           goto done;                                                                     C:\Hannibal Code1.1\ifi_startup.c
                                               /* Count down so we only have to look up the data in _cinit                  C:\Hannibal Code1.1\ifi_startup.c
                                                * once.                                                                     C:\Hannibal Code1.1\ifi_startup.c
                                                *                                                                           C:\Hannibal Code1.1\ifi_startup.c
                                                * At this point we know that TBLPTR points to the top of the current        C:\Hannibal Code1.1\ifi_startup.c
                                                * entry in _cinit, so we can just start reading the from, to, and           C:\Hannibal Code1.1\ifi_startup.c
                                                * size values.                                                              C:\Hannibal Code1.1\ifi_startup.c
                                                */                                                                          C:\Hannibal Code1.1\ifi_startup.c
                                             _asm                                                                           C:\Hannibal Code1.1\ifi_startup.c
                                             /* read the source address */                                                  C:\Hannibal Code1.1\ifi_startup.c
00410c   0009     TBLRDPOSTINC                 tblrdpostinc                                                                 C:\Hannibal Code1.1\ifi_startup.c
00410e   50f5     MOVF      0xf5,0x0,0x0       movf  TABLAT, 0, 0                                                           C:\Hannibal Code1.1\ifi_startup.c
004110   6fda     MOVWF     0xda,0x1           movwf prom, 1                                                                C:\Hannibal Code1.1\ifi_startup.c
004112   0009     TBLRDPOSTINC                 tblrdpostinc                                                                 C:\Hannibal Code1.1\ifi_startup.c
004114   50f5     MOVF      0xf5,0x0,0x0       movf  TABLAT, 0, 0                                                           C:\Hannibal Code1.1\ifi_startup.c
004116   6fdb     MOVWF     0xdb,0x1           movwf prom+1, 1                                                              C:\Hannibal Code1.1\ifi_startup.c
004118   0009     TBLRDPOSTINC                 tblrdpostinc                                                                 C:\Hannibal Code1.1\ifi_startup.c
00411a   50f5     MOVF      0xf5,0x0,0x0       movf  TABLAT, 0, 0                                                           C:\Hannibal Code1.1\ifi_startup.c
00411c   6fdc     MOVWF     0xdc,0x1           movwf prom+2, 1                                                              C:\Hannibal Code1.1\ifi_startup.c
                                               /* skip a byte since it's stored as a 32bit int */                           C:\Hannibal Code1.1\ifi_startup.c
00411e   0009     TBLRDPOSTINC                 tblrdpostinc                                                                 C:\Hannibal Code1.1\ifi_startup.c
                                               /* read the destination address directly into FSR0 */                        C:\Hannibal Code1.1\ifi_startup.c
004120   0009     TBLRDPOSTINC                 tblrdpostinc                                                                 C:\Hannibal Code1.1\ifi_startup.c
004122   50f5     MOVF      0xf5,0x0,0x0       movf  TABLAT, 0, 0                                                           C:\Hannibal Code1.1\ifi_startup.c
004124   6ee9     MOVWF     0xe9,0x0           movwf FSR0L, 0                                                               C:\Hannibal Code1.1\ifi_startup.c
004126   0009     TBLRDPOSTINC                 tblrdpostinc                                                                 C:\Hannibal Code1.1\ifi_startup.c
004128   50f5     MOVF      0xf5,0x0,0x0       movf  TABLAT, 0, 0                                                           C:\Hannibal Code1.1\ifi_startup.c
00412a   6eea     MOVWF     0xea,0x0           movwf FSR0H, 0                                                               C:\Hannibal Code1.1\ifi_startup.c
                                               /* skip two bytes since it's stored as a 32bit int */                        C:\Hannibal Code1.1\ifi_startup.c
00412c   0009     TBLRDPOSTINC                 tblrdpostinc                                                                 C:\Hannibal Code1.1\ifi_startup.c
00412e   0009     TBLRDPOSTINC                 tblrdpostinc                                                                 C:\Hannibal Code1.1\ifi_startup.c
                                               /* read the destination address directly into FSR0 */                        C:\Hannibal Code1.1\ifi_startup.c
004130   0009     TBLRDPOSTINC                 tblrdpostinc                                                                 C:\Hannibal Code1.1\ifi_startup.c
004132   50f5     MOVF      0xf5,0x0,0x0       movf  TABLAT, 0, 0                                                           C:\Hannibal Code1.1\ifi_startup.c
004134   6fdd     MOVWF     0xdd,0x1           movwf curr_byte, 1                                                           C:\Hannibal Code1.1\ifi_startup.c
004136   0009     TBLRDPOSTINC                 tblrdpostinc                                                                 C:\Hannibal Code1.1\ifi_startup.c
004138   50f5     MOVF      0xf5,0x0,0x0       movf  TABLAT, 0, 0                                                           C:\Hannibal Code1.1\ifi_startup.c
00413a   6fde     MOVWF     0xde,0x1           movwf curr_byte+1, 1                                                         C:\Hannibal Code1.1\ifi_startup.c
                                               /* skip two bytes since it's stored as a 32bit int */                        C:\Hannibal Code1.1\ifi_startup.c
00413c   0009     TBLRDPOSTINC                 tblrdpostinc                                                                 C:\Hannibal Code1.1\ifi_startup.c
00413e   0009     TBLRDPOSTINC                 tblrdpostinc                                                                 C:\Hannibal Code1.1\ifi_startup.c
                                             _endasm                                                                        C:\Hannibal Code1.1\ifi_startup.c
                                                                                                                            C:\Hannibal Code1.1\ifi_startup.c
                                             /* the table pointer now points to the next entry. Save it                     C:\Hannibal Code1.1\ifi_startup.c
                                              * off since we'll be using the table pointer to do the copying                C:\Hannibal Code1.1\ifi_startup.c
                                              * for the entry.                                                              C:\Hannibal Code1.1\ifi_startup.c
                                              */                                                                            C:\Hannibal Code1.1\ifi_startup.c
004140   cff6     MOVFF     0xff6,0x7e1      data_ptr = TBLPTR;                                                             C:\Hannibal Code1.1\ifi_startup.c
004142   f7e1                                                                                                               
004144   cff7     MOVFF     0xff7,0x7e2                                                                                     
004146   f7e2                                                                                                               
004148   cff8     MOVFF     0xff8,0x7e3                                                                                     
00414a   f7e3                                                                                                               
                                                                                                                            C:\Hannibal Code1.1\ifi_startup.c
                                             /* now assign the source address to the table pointer */                       C:\Hannibal Code1.1\ifi_startup.c
00414c   c7da     MOVFF     0x7da,0xff6      TBLPTR = prom;                                                                 C:\Hannibal Code1.1\ifi_startup.c
00414e   fff6                                                                                                               
004150   c7db     MOVFF     0x7db,0xff7                                                                                     
004152   fff7                                                                                                               
004154   c7dc     MOVFF     0x7dc,0xff8                                                                                     
004156   fff8                                                                                                               
                                                                                                                            C:\Hannibal Code1.1\ifi_startup.c
                                             /* do the copy loop */                                                         C:\Hannibal Code1.1\ifi_startup.c
                                             _asm                                                                           C:\Hannibal Code1.1\ifi_startup.c
                                                     /* determine if we have any more bytes to copy */                      C:\Hannibal Code1.1\ifi_startup.c
004158   0107     MOVLB     0x7                movlb curr_byte                                                              C:\Hannibal Code1.1\ifi_startup.c
00415a   53dd     MOVF      0xdd,0x1,0x1       movf  curr_byte, 1, 1                                                        C:\Hannibal Code1.1\ifi_startup.c
                                           copy_loop:                                                                       C:\Hannibal Code1.1\ifi_startup.c
00415c   e102     BNZ       0x4162             bnz 2 /* copy_one_byte */                                                    C:\Hannibal Code1.1\ifi_startup.c
00415e   53de     MOVF      0xde,0x1,0x1       movf  curr_byte + 1, 1, 1                                                    C:\Hannibal Code1.1\ifi_startup.c
004160   e007     BZ        0x4170             bz 7  /* done_copying */                                                     C:\Hannibal Code1.1\ifi_startup.c
                                                                                                                            C:\Hannibal Code1.1\ifi_startup.c
                                           copy_one_byte:                                                                   C:\Hannibal Code1.1\ifi_startup.c
004162   0009     TBLRDPOSTINC                 tblrdpostinc                                                                 C:\Hannibal Code1.1\ifi_startup.c
004164   50f5     MOVF      0xf5,0x0,0x0       movf  TABLAT, 0, 0                                                           C:\Hannibal Code1.1\ifi_startup.c
004166   6eee     MOVWF     0xee,0x0           movwf POSTINC0, 0                                                            C:\Hannibal Code1.1\ifi_startup.c
                                                                                                                            C:\Hannibal Code1.1\ifi_startup.c
                                               /* decrement byte counter */                                                 C:\Hannibal Code1.1\ifi_startup.c
004168   07dd     DECF      0xdd,0x1,0x1       decf  curr_byte, 1, 1                                                        C:\Hannibal Code1.1\ifi_startup.c
00416a   e2f8     BC        0x415c             bc -8   /* copy_loop */                                                      C:\Hannibal Code1.1\ifi_startup.c
00416c   07de     DECF      0xde,0x1,0x1       decf  curr_byte + 1, 1, 1                                                    C:\Hannibal Code1.1\ifi_startup.c
00416e   d7f9     BRA       0x4162             bra -7  /* copy_one_byte */                                                  C:\Hannibal Code1.1\ifi_startup.c
                                                                                                                            C:\Hannibal Code1.1\ifi_startup.c
                                           done_copying:                                                                    C:\Hannibal Code1.1\ifi_startup.c
                                             _endasm                                                                        C:\Hannibal Code1.1\ifi_startup.c
                                                 /* restore the table pointer for the next entry */                         C:\Hannibal Code1.1\ifi_startup.c
004170   c7e1     MOVFF     0x7e1,0xff6      TBLPTR = data_ptr;                                                             C:\Hannibal Code1.1\ifi_startup.c
004172   fff6                                                                                                               
004174   c7e2     MOVFF     0x7e2,0xff7                                                                                     
004176   fff7                                                                                                               
004178   c7e3     MOVFF     0x7e3,0xff8                                                                                     
00417a   fff8                                                                                                               
                                             /* next entry... */                                                            C:\Hannibal Code1.1\ifi_startup.c
00417c   0107     MOVLB     0x7              curr_entry--;                                                                  C:\Hannibal Code1.1\ifi_startup.c
00417e   07df     DECF      0xdf,0x1,0x1                                                                                    
004180   0e00     MOVLW     0x0                                                                                             
004182   5be0     SUBWFB    0xe0,0x1,0x1                                                                                    
004184   d7bf     BRA       0x4104           goto test;                                                                     C:\Hannibal Code1.1\ifi_startup.c
                                           done:                                                                            C:\Hannibal Code1.1\ifi_startup.c
                                           ;                                                                                C:\Hannibal Code1.1\ifi_startup.c
004186   0012     RETURN    0x0            }                                                                                C:\Hannibal Code1.1\ifi_startup.c
                                           /******************************************************************************* C:\Hannibal Code1.1\receiver.c
                                           *                                                                                C:\Hannibal Code1.1\receiver.c
                                           *	TITLE:		receiver.c                                                             C:\Hannibal Code1.1\receiver.c
                                           *                                                                                C:\Hannibal Code1.1\receiver.c
                                           *	VERSION:	0.9 (Beta)                                                            C:\Hannibal Code1.1\receiver.c
                                           *                                                                                C:\Hannibal Code1.1\receiver.c
                                           *	DATE:		13-Jan-2004                                                             C:\Hannibal Code1.1\receiver.c
                                           *                                                                                C:\Hannibal Code1.1\receiver.c
                                           *	AUTHOR:		R. Kevin Watson                                                       C:\Hannibal Code1.1\receiver.c
                                           *                                                                                C:\Hannibal Code1.1\receiver.c
                                           *	COMMENTS:	This file contains example 2004 FRC infrared receiver code.          C:\Hannibal Code1.1\receiver.c
                                           *				This code is designed to run on both the EDU and full-size                  C:\Hannibal Code1.1\receiver.c
                                           *				robot controllers.                                                          C:\Hannibal Code1.1\receiver.c
                                           *                                                                                C:\Hannibal Code1.1\receiver.c
                                           *				Numbers within brackets refer to the PIC18F8520 data sheet                  C:\Hannibal Code1.1\receiver.c
                                           *				page number where additional information can be found.                      C:\Hannibal Code1.1\receiver.c
                                           *                                                                                C:\Hannibal Code1.1\receiver.c
                                           *				Assumptions:                                                                C:\Hannibal Code1.1\receiver.c
                                           *                                                                                C:\Hannibal Code1.1\receiver.c
                                           *				For the EDU controller IR sensor 1 is on interrupt 3                        C:\Hannibal Code1.1\receiver.c
                                           *					         "         IR sensor 2 is on interrupt 4                           C:\Hannibal Code1.1\receiver.c
                                           *					         "         IR sensor 3 is on interrupt 5                           C:\Hannibal Code1.1\receiver.c
                                           *					         "         IR sensor 4 is on interrupt 6                           C:\Hannibal Code1.1\receiver.c
                                           *                                                                                C:\Hannibal Code1.1\receiver.c
                                           *				For the 2004 FRC controller IR sensor 1 is on digital input 3               C:\Hannibal Code1.1\receiver.c
                                           *					         "              IR sensor 2 is on digital input 4                  C:\Hannibal Code1.1\receiver.c
                                           *					         "              IR sensor 3 is on digital input 5                  C:\Hannibal Code1.1\receiver.c
                                           *					         "              IR sensor 4 is on digital input 6                  C:\Hannibal Code1.1\receiver.c
                                           *                                                                                C:\Hannibal Code1.1\receiver.c
                                           ******************************************************************************** C:\Hannibal Code1.1\receiver.c
                                           *                                                                                C:\Hannibal Code1.1\receiver.c
                                           *	CHANGE LOG:                                                                    C:\Hannibal Code1.1\receiver.c
                                           *                                                                                C:\Hannibal Code1.1\receiver.c
                                           *	DATE         REV  DESCRIPTION                                                  C:\Hannibal Code1.1\receiver.c
                                           *	-----------  ---  ----------------------------------------------------------   C:\Hannibal Code1.1\receiver.c
                                           *	28-Nov-2003  0.3  RKW Original                                                 C:\Hannibal Code1.1\receiver.c
                                           *	30-Nov-2003  0.4  RKW - Changed Sensor_Stats definition, making Beacon_Count   C:\Hannibal Code1.1\receiver.c
                                           *	                  and Beacon_Quality an array.                                 C:\Hannibal Code1.1\receiver.c
                                           *	04-Dec-2003  0.5  RKW - Changed timer 1 prescaler to 4:1 from 8:1 to double    C:\Hannibal Code1.1\receiver.c
                                           *	                  the racker control rate.                                     C:\Hannibal Code1.1\receiver.c
                                           *	07-Dec-2003  0.6  RKW - Turned Sensor_Stats into an array so that the code in  C:\Hannibal Code1.1\receiver.c
                                           *	                  tracker.c can be simplified.                                 C:\Hannibal Code1.1\receiver.c
                                           *	09-Dec-2003  0.7  RKW - Slight modifications to run on the 2004 full-size      C:\Hannibal Code1.1\receiver.c
                                           *	                  robot controller                                             C:\Hannibal Code1.1\receiver.c
                                           *	23-Dec-2003  0.8  RKW - Reassigned interrupts                                  C:\Hannibal Code1.1\receiver.c
                                           *	13-Jan-2004  0.9  RKW - Added Disable_Receiver() function which should be      C:\Hannibal Code1.1\receiver.c
                                           *	                  called when the beacon receiver is no longer needed.         C:\Hannibal Code1.1\receiver.c
                                           *                                                                                C:\Hannibal Code1.1\receiver.c
                                           *******************************************************************************/ C:\Hannibal Code1.1\receiver.c
                                                                                                                            C:\Hannibal Code1.1\receiver.c
                                           #include "ifi_picdefs.h"                                                         C:\Hannibal Code1.1\receiver.c
                                           #include "ifi_aliases.h"                                                         C:\Hannibal Code1.1\receiver.c
                                           #include "printf_lib.h"                                                          C:\Hannibal Code1.1\receiver.c
                                           #include "receiver.h"                                                            C:\Hannibal Code1.1\receiver.c
                                           #include "user_routines.h"                                                       C:\Hannibal Code1.1\receiver.c
                                                                                                                            C:\Hannibal Code1.1\receiver.c
                                           unsigned int Clock = 0;	// upper 16 bits of the 32 bit system clock              C:\Hannibal Code1.1\receiver.c
                                           						// timer 1 contains the lower 16 bits                                      C:\Hannibal Code1.1\receiver.c
                                           						// each clock tick is worth 26.21 milliseconds                             C:\Hannibal Code1.1\receiver.c
                                           unsigned long Wheel_Clock=0;                                                     C:\Hannibal Code1.1\receiver.c
                                                                                                                            C:\Hannibal Code1.1\receiver.c
                                           unsigned int wheel_r_count=0;                                                    C:\Hannibal Code1.1\receiver.c
                                           unsigned int wheel_l_count=0;                                                    C:\Hannibal Code1.1\receiver.c
                                                                                                                            C:\Hannibal Code1.1\receiver.c
                                           /******************************************************************************* C:\Hannibal Code1.1\receiver.c
                                           *                                                                                C:\Hannibal Code1.1\receiver.c
                                           *	FUNCTION:		Initialize_Receiver()                                               C:\Hannibal Code1.1\receiver.c
                                           *                                                                                C:\Hannibal Code1.1\receiver.c
                                           *	PURPOSE:		Initializes the infrared receiver code.                              C:\Hannibal Code1.1\receiver.c
                                           *                                                                                C:\Hannibal Code1.1\receiver.c
                                           *	CALLED FROM:	user_routines.c/User_Initialization()                             C:\Hannibal Code1.1\receiver.c
                                           *                                                                                C:\Hannibal Code1.1\receiver.c
                                           *	PARAMETERS:		None                                                              C:\Hannibal Code1.1\receiver.c
                                           *                                                                                C:\Hannibal Code1.1\receiver.c
                                           *	RETURNS:		Nothing                                                              C:\Hannibal Code1.1\receiver.c
                                           *                                                                                C:\Hannibal Code1.1\receiver.c
                                           *	COMMENTS:                                                                      C:\Hannibal Code1.1\receiver.c
                                           *                                                                                C:\Hannibal Code1.1\receiver.c
                                           *******************************************************************************/ C:\Hannibal Code1.1\receiver.c
                                                                                                                            C:\Hannibal Code1.1\receiver.c
                                           void Initialize_Receiver(void)                                                   C:\Hannibal Code1.1\receiver.c
                                           {                                                                                C:\Hannibal Code1.1\receiver.c
                                           	// initialize and start timer 1                                                 C:\Hannibal Code1.1\receiver.c
003f22   909f     BCF       0x9f,0x0,0x0   	IPR1bits.TMR1IP = 0;		// timer 1 will use the low priority interrupt [98]       C:\Hannibal Code1.1\receiver.c
003f24   809d     BSF       0x9d,0x0,0x0   	PIE1bits.TMR1IE = 1;		// enable timer1 roll-over interrupt [95]                 C:\Hannibal Code1.1\receiver.c
003f26   8ecd     BSF       0xcd,0x7,0x0   	T1CONbits.RD16 = 1;			// use 16-bit read/write operations with timer 1 [135]    C:\Hannibal Code1.1\receiver.c
003f28   98cd     BCF       0xcd,0x4,0x0   	T1CONbits.T1CKPS0 = 0;		// timer 1 clock will use a 4:1 prescale value [135]    C:\Hannibal Code1.1\receiver.c
003f2a   8acd     BSF       0xcd,0x5,0x0   	T1CONbits.T1CKPS1 = 1;                                                          C:\Hannibal Code1.1\receiver.c
003f2c   96cd     BCF       0xcd,0x3,0x0   	T1CONbits.T1OSCEN = 0;		// turn-off the timer 1 oscillator to save power [135]  C:\Hannibal Code1.1\receiver.c
003f2e   92cd     BCF       0xcd,0x1,0x0   	T1CONbits.TMR1CS = 0;		// timer 1 will use the internal 10MHz clock [135]       C:\Hannibal Code1.1\receiver.c
003f30   80cd     BSF       0xcd,0x0,0x0   	T1CONbits.TMR1ON = 1;		// start timer 1 [135]                                   C:\Hannibal Code1.1\receiver.c
                                                                                                                            C:\Hannibal Code1.1\receiver.c
                                           	// initialize external interrupts 3-6 (KBI0 - KBI3 on user 18F8520)             C:\Hannibal Code1.1\receiver.c
003f32   8893     BSF       0x93,0x4,0x0   	TRISBbits.TRISB4 = 1;		// make sure RB4/KBI0 is setup as an input [108]         C:\Hannibal Code1.1\receiver.c
003f34   8a93     BSF       0x93,0x5,0x0   	TRISBbits.TRISB5 = 1;		// make sure RB5/KBI1 is setup as an input [108]         C:\Hannibal Code1.1\receiver.c
003f36   8c93     BSF       0x93,0x6,0x0   	TRISBbits.TRISB6 = 1;		// make sure RB6/KBI2 is setup as an input [108]         C:\Hannibal Code1.1\receiver.c
003f38   8e93     BSF       0x93,0x7,0x0   	TRISBbits.TRISB7 = 1;		// make sure RB7/KBI3 is setup as an input [108]         C:\Hannibal Code1.1\receiver.c
003f3a   90f1     BCF       0xf1,0x0,0x0   	INTCON2bits.RBIP = 0;		// interrupts 3 through 6 will use the low priority interrupt [90] C:\Hannibal Code1.1\receiver.c
003f3c   86f2     BSF       0xf2,0x3,0x0   	INTCONbits.RBIE = 1;		// enable interrupts 3 through 6 [89]                     C:\Hannibal Code1.1\receiver.c
                                           	                                                                                C:\Hannibal Code1.1\receiver.c
003f3e   efa1     GOTO      0x3f42         	Initialize_Timer_2();                                                           C:\Hannibal Code1.1\receiver.c
003f40   f01f                                                                                                               
                                           }                                                                                C:\Hannibal Code1.1\receiver.c
                                           /******************************************************************************* C:\Hannibal Code1.1\receiver.c
                                           *                                                                                C:\Hannibal Code1.1\receiver.c
                                           *	FUNCTION:		Initialize_Timer_2()                                                C:\Hannibal Code1.1\receiver.c
                                           *                                                                                C:\Hannibal Code1.1\receiver.c
                                           *	PURPOSE:		Initializes the timer 2 hardware.                                    C:\Hannibal Code1.1\receiver.c
                                           *                                                                                C:\Hannibal Code1.1\receiver.c
                                           *	CALLED FROM:	user_routines.c/User_Initialization()                             C:\Hannibal Code1.1\receiver.c
                                           *                                                                                C:\Hannibal Code1.1\receiver.c
                                           *	PARAMETERS:		None                                                              C:\Hannibal Code1.1\receiver.c
                                           *                                                                                C:\Hannibal Code1.1\receiver.c
                                           *	RETURNS:		Nothing                                                              C:\Hannibal Code1.1\receiver.c
                                           *                                                                                C:\Hannibal Code1.1\receiver.c
                                           *	COMMENTS:		Place "#include "interrupts.h" in the includes section              C:\Hannibal Code1.1\receiver.c
                                           *					of user_routines.c then call Initialize_Timer_2() in                       C:\Hannibal Code1.1\receiver.c
                                           *					user_routines.c/User_Initialization().                                     C:\Hannibal Code1.1\receiver.c
                                           *                                                                                C:\Hannibal Code1.1\receiver.c
                                           *					Timer 2 documentation starts on page 141 of the data sheet.                C:\Hannibal Code1.1\receiver.c
                                           *                                                                                C:\Hannibal Code1.1\receiver.c
                                           *******************************************************************************/ C:\Hannibal Code1.1\receiver.c
                                           void Initialize_Timer_2(void)                                                    C:\Hannibal Code1.1\receiver.c
                                           {                                                                                C:\Hannibal Code1.1\receiver.c
003f42   6acc     CLRF      0xcc,0x0       	TMR2 = 0x00;			// 8-bit timer 2 register (this is readable and writable)        C:\Hannibal Code1.1\receiver.c
                                           							//                                                                        C:\Hannibal Code1.1\receiver.c
003f44   68cb     SETF      0xcb,0x0       	PR2	= 0xFF;				// timer 2 period register - timer 2 increments to this          C:\Hannibal Code1.1\receiver.c
                                           							// value then resets to zero on the next clock and starts                 C:\Hannibal Code1.1\receiver.c
                                           							// all over again                                                         C:\Hannibal Code1.1\receiver.c
                                           							//                                                                        C:\Hannibal Code1.1\receiver.c
003f46   96ca     BCF       0xca,0x3,0x0   	T2CONbits.T2OUTPS0 = 0;	// T2OUTPS3 T2OUTPS2 T2OUTPS1 T2OUTPS0                  C:\Hannibal Code1.1\receiver.c
003f48   98ca     BCF       0xca,0x4,0x0   	T2CONbits.T2OUTPS1 = 0;	//    0        0        0        0		1:1 postscaler      C:\Hannibal Code1.1\receiver.c
003f4a   9aca     BCF       0xca,0x5,0x0   	T2CONbits.T2OUTPS2 = 0;	//    0        0        0        1		1:2 postscaler      C:\Hannibal Code1.1\receiver.c
003f4c   9cca     BCF       0xca,0x6,0x0   	T2CONbits.T2OUTPS3 = 0;	//    0        0        1        0		1:3 postscaler      C:\Hannibal Code1.1\receiver.c
                                           							//    0        0        1        1		1:4 postscaler                        C:\Hannibal Code1.1\receiver.c
                                           							//    0        1        0        0		1:5 postscaler                        C:\Hannibal Code1.1\receiver.c
                                           							//    0        1        0        1		1:6 postscaler                        C:\Hannibal Code1.1\receiver.c
                                           							//    0        1        1        0		1:7 postscaler                        C:\Hannibal Code1.1\receiver.c
                                           							//    0        1        1        1		1:8 postscaler                        C:\Hannibal Code1.1\receiver.c
                                           							//    1        0        0        0		1:9 postscaler                        C:\Hannibal Code1.1\receiver.c
                                           							//    1        0        0        1		1:10 postscaler                       C:\Hannibal Code1.1\receiver.c
                                           							//    1        0        1        0		1:11 postscaler                       C:\Hannibal Code1.1\receiver.c
                                           							//    1        0        1        1		1:12 postscaler                       C:\Hannibal Code1.1\receiver.c
                                           							//    1        1        0        0		1:13 postscaler                       C:\Hannibal Code1.1\receiver.c
                                           							//    1        1        0        1		1:14 postscaler                       C:\Hannibal Code1.1\receiver.c
                                           							//    1        1        1        0		1:15 postscaler                       C:\Hannibal Code1.1\receiver.c
                                           							//    1        1        1        1		1:16 postscaler                       C:\Hannibal Code1.1\receiver.c
                                           							//                                                                        C:\Hannibal Code1.1\receiver.c
003f4e   80ca     BSF       0xca,0x0,0x0   	T2CONbits.T2CKPS0 = 1;	// T2CKPS1  T2CKPS0                                      C:\Hannibal Code1.1\receiver.c
003f50   82ca     BSF       0xca,0x1,0x0   	T2CONbits.T2CKPS1 = 1;	//    0        0	1:1 prescaler (clock = 10MHz/each tick=100ns) C:\Hannibal Code1.1\receiver.c
                                           							//    0        1	1:4 prescaler (clock = 2.5MHz/each tick=400ns)           C:\Hannibal Code1.1\receiver.c
                                           							//    1        x	1:16 prescaler (clock = 625KHz/each tick=1.6us) (T2CKPS0 doesn't matter) C:\Hannibal Code1.1\receiver.c
                                           							//                                                                        C:\Hannibal Code1.1\receiver.c
003f52   829d     BSF       0x9d,0x1,0x0   	PIE1bits.TMR2IE = 1;	// 0: disable timer 2 interrupt on PR2 match               C:\Hannibal Code1.1\receiver.c
                                           							// 1: enable timer 2 interrupt on PR2 match                               C:\Hannibal Code1.1\receiver.c
                                           							//    if the prescaler is enabled (i.e., greater than 1:1), this          C:\Hannibal Code1.1\receiver.c
                                           							//    match will occur n times (where n is the postscaler value)          C:\Hannibal Code1.1\receiver.c
                                           							//    before an interrupt will be generated                               C:\Hannibal Code1.1\receiver.c
                                           							//                                                                        C:\Hannibal Code1.1\receiver.c
003f54   929f     BCF       0x9f,0x1,0x0   	IPR1bits.TMR2IP = 0;	// 0: timer 2 interrupt is low priority (leave at 0 for IFI controllers) C:\Hannibal Code1.1\receiver.c
                                           							// 1: timer 2 interrupt is high priority                                  C:\Hannibal Code1.1\receiver.c
                                           							//                                                                        C:\Hannibal Code1.1\receiver.c
003f56   84ca     BSF       0xca,0x2,0x0   	T2CONbits.TMR2ON = 1;	// 0: timer 2 is disabled                                 C:\Hannibal Code1.1\receiver.c
                                           							// 1: timer 2 is enabled (running)                                        C:\Hannibal Code1.1\receiver.c
003f58   0012     RETURN    0x0            }                                                                                C:\Hannibal Code1.1\receiver.c
                                                                                                                            C:\Hannibal Code1.1\receiver.c
                                           /******************************************************************************* C:\Hannibal Code1.1\receiver.c
                                           *                                                                                C:\Hannibal Code1.1\receiver.c
                                           *	FUNCTION:		Disable_Receiver()                                                  C:\Hannibal Code1.1\receiver.c
                                           *                                                                                C:\Hannibal Code1.1\receiver.c
                                           *	PURPOSE:		Disables the infrared receiver code.                                 C:\Hannibal Code1.1\receiver.c
                                           *                                                                                C:\Hannibal Code1.1\receiver.c
                                           *	CALLED FROM:	user_routines.c/User_Initialization()                             C:\Hannibal Code1.1\receiver.c
                                           *                                                                                C:\Hannibal Code1.1\receiver.c
                                           *	PARAMETERS:		None                                                              C:\Hannibal Code1.1\receiver.c
                                           *                                                                                C:\Hannibal Code1.1\receiver.c
                                           *	RETURNS:		Nothing                                                              C:\Hannibal Code1.1\receiver.c
                                           *                                                                                C:\Hannibal Code1.1\receiver.c
                                           *	COMMENTS:                                                                      C:\Hannibal Code1.1\receiver.c
                                           *                                                                                C:\Hannibal Code1.1\receiver.c
                                           *******************************************************************************/ C:\Hannibal Code1.1\receiver.c
                                           void Disable_Receiver(void)                                                      C:\Hannibal Code1.1\receiver.c
                                           {                                                                                C:\Hannibal Code1.1\receiver.c
003f5a   90cd     BCF       0xcd,0x0,0x0   	T1CONbits.TMR1ON = 0;		// stop timer 1 [135]                                    C:\Hannibal Code1.1\receiver.c
                                           	//INTCONbits.RBIE = 0;		// disable interrupts 3 through 6 [89]                  C:\Hannibal Code1.1\receiver.c
003f5c   0012     RETURN    0x0            }                                                                                C:\Hannibal Code1.1\receiver.c
                                                                                                                            C:\Hannibal Code1.1\receiver.c
                                                                                                                            C:\Hannibal Code1.1\receiver.c
                                                                                                                            C:\Hannibal Code1.1\receiver.c
                                           void disableInterrupts(void)                                                     C:\Hannibal Code1.1\receiver.c
                                           {                                                                                C:\Hannibal Code1.1\receiver.c
003f5e   90cd     BCF       0xcd,0x0,0x0   	T1CONbits.TMR1ON = 0;		// stop timer 1 [135]                                    C:\Hannibal Code1.1\receiver.c
003f60   94ca     BCF       0xca,0x2,0x0   	T2CONbits.TMR2ON = 0;                                                           C:\Hannibal Code1.1\receiver.c
003f62   96f2     BCF       0xf2,0x3,0x0   	INTCONbits.RBIE = 0;		// disable interrupts 3 through 6 [89]                    C:\Hannibal Code1.1\receiver.c
003f64   0012     RETURN    0x0            }                                                                                C:\Hannibal Code1.1\receiver.c
                                                                                                                            C:\Hannibal Code1.1\receiver.c
                                                                                                                            C:\Hannibal Code1.1\receiver.c
                                           void enableInterrupts(void)                                                      C:\Hannibal Code1.1\receiver.c
                                           {                                                                                C:\Hannibal Code1.1\receiver.c
003f66   80cd     BSF       0xcd,0x0,0x0   	T1CONbits.TMR1ON = 1;		// stop timer 1 [135]                                    C:\Hannibal Code1.1\receiver.c
003f68   84ca     BSF       0xca,0x2,0x0   	T2CONbits.TMR2ON = 1;                                                           C:\Hannibal Code1.1\receiver.c
003f6a   86f2     BSF       0xf2,0x3,0x0   	INTCONbits.RBIE = 1;		// disable interrupts 3 through 6 [89]                    C:\Hannibal Code1.1\receiver.c
003f6c   0012     RETURN    0x0            }                                                                                C:\Hannibal Code1.1\receiver.c
                                           /******************************************************************************* C:\Hannibal Code1.1\receiver.c
                                           *                                                                                C:\Hannibal Code1.1\receiver.c
                                           *	FUNCTION:		Timer_2_Int_Handler()                                               C:\Hannibal Code1.1\receiver.c
                                           *                                                                                C:\Hannibal Code1.1\receiver.c
                                           *	PURPOSE:		This code is called in response to a timer 1                         C:\Hannibal Code1.1\receiver.c
                                           *					roll-over interrupt.                                                       C:\Hannibal Code1.1\receiver.c
                                           *                                                                                C:\Hannibal Code1.1\receiver.c
                                           *	CALLED FROM:	User_Routines_Fast()                                              C:\Hannibal Code1.1\receiver.c
                                           *                                                                                C:\Hannibal Code1.1\receiver.c
                                           *	PARAMETERS:		None                                                              C:\Hannibal Code1.1\receiver.c
                                           *                                                                                C:\Hannibal Code1.1\receiver.c
                                           *	RETURNS:		Nothing                                                              C:\Hannibal Code1.1\receiver.c
                                           *                                                                                C:\Hannibal Code1.1\receiver.c
                                           *	COMMENTS:		With a 1:4 timer 1 prescale, this function is                       C:\Hannibal Code1.1\receiver.c
                                           *					called every 26.21 milliseconds                                            C:\Hannibal Code1.1\receiver.c
                                           *                                                                                C:\Hannibal Code1.1\receiver.c
                                           *******************************************************************************/ C:\Hannibal Code1.1\receiver.c
                                           void Timer_2_Int_Handler(void)                                                   C:\Hannibal Code1.1\receiver.c
                                           {                                                                                C:\Hannibal Code1.1\receiver.c
003f6e   0107     MOVLB     0x7            	Wheel_Clock++;                                                                  C:\Hannibal Code1.1\receiver.c
003f70   2be6     INCF      0xe6,0x1,0x1                                                                                    
003f72   0e00     MOVLW     0x0                                                                                             
003f74   23e7     ADDWFC    0xe7,0x1,0x1                                                                                    
003f76   23e8     ADDWFC    0xe8,0x1,0x1                                                                                    
003f78   23e9     ADDWFC    0xe9,0x1,0x1                                                                                    
003f7a   0012     RETURN    0x0            }                                                                                C:\Hannibal Code1.1\receiver.c
                                           /******************************************************************************* C:\Hannibal Code1.1\receiver.c
                                           *                                                                                C:\Hannibal Code1.1\receiver.c
                                           *	FUNCTION:		Timer_1_Int_Handler()                                               C:\Hannibal Code1.1\receiver.c
                                           *                                                                                C:\Hannibal Code1.1\receiver.c
                                           *	PURPOSE:		This code is called in response to a timer 1                         C:\Hannibal Code1.1\receiver.c
                                           *					roll-over interrupt.                                                       C:\Hannibal Code1.1\receiver.c
                                           *                                                                                C:\Hannibal Code1.1\receiver.c
                                           *	CALLED FROM:	User_Routines_Fast()                                              C:\Hannibal Code1.1\receiver.c
                                           *                                                                                C:\Hannibal Code1.1\receiver.c
                                           *	PARAMETERS:		None                                                              C:\Hannibal Code1.1\receiver.c
                                           *                                                                                C:\Hannibal Code1.1\receiver.c
                                           *	RETURNS:		Nothing                                                              C:\Hannibal Code1.1\receiver.c
                                           *                                                                                C:\Hannibal Code1.1\receiver.c
                                           *	COMMENTS:		With a 1:4 timer 1 prescale, this function is                       C:\Hannibal Code1.1\receiver.c
                                           *					called every 26.21 milliseconds                                            C:\Hannibal Code1.1\receiver.c
                                           *                                                                                C:\Hannibal Code1.1\receiver.c
                                           *******************************************************************************/ C:\Hannibal Code1.1\receiver.c
                                           void Timer_1_Int_Handler(void)                                                   C:\Hannibal Code1.1\receiver.c
                                           {	                                                                               C:\Hannibal Code1.1\receiver.c
003f7c   0107     MOVLB     0x7            	Clock++; // increment the upper 16-bits of the system clock                     C:\Hannibal Code1.1\receiver.c
003f7e   2be4     INCF      0xe4,0x1,0x1                                                                                    
003f80   0e00     MOVLW     0x0                                                                                             
003f82   23e5     ADDWFC    0xe5,0x1,0x1                                                                                    
003f84   0012     RETURN    0x0            }                                                                                C:\Hannibal Code1.1\receiver.c
                                                                                                                            C:\Hannibal Code1.1\receiver.c
                                           /******************************************************************************* C:\Hannibal Code1.1\receiver.c
                                           *                                                                                C:\Hannibal Code1.1\receiver.c
                                           *	FUNCTION:		Int_3_Handler()                                                     C:\Hannibal Code1.1\receiver.c
                                           *                                                                                C:\Hannibal Code1.1\receiver.c
                                           *	PURPOSE:		This code is called in response to an interrupt 3 request.           C:\Hannibal Code1.1\receiver.c
                                           *					This is used by IR sensor 1.                                               C:\Hannibal Code1.1\receiver.c
                                           *                                                                                C:\Hannibal Code1.1\receiver.c
                                           *	CALLED FROM:	user_routines_fast.c/InterruptHandlerLow()                        C:\Hannibal Code1.1\receiver.c
                                           *                                                                                C:\Hannibal Code1.1\receiver.c
                                           *	PARAMETERS:		None                                                              C:\Hannibal Code1.1\receiver.c
                                           *                                                                                C:\Hannibal Code1.1\receiver.c
                                           *	RETURNS:		Nothing                                                              C:\Hannibal Code1.1\receiver.c
                                           *                                                                                C:\Hannibal Code1.1\receiver.c
                                           *	COMMENTS:		The digital input 3/interrupt 3 input uses the                      C:\Hannibal Code1.1\receiver.c
                                           *					PIC18F8520's RB4/KBI0 pin on port b.                                       C:\Hannibal Code1.1\receiver.c
                                           *                                                                                C:\Hannibal Code1.1\receiver.c
                                           *******************************************************************************/ C:\Hannibal Code1.1\receiver.c
003f86   cfd9     MOVFF     0xfd9,0xfe6    void Int_3_Handler(unsigned char RB4_State, unsigned char *hitBall)              C:\Hannibal Code1.1\receiver.c
003f88   ffe6                                                                                                               
003f8a   cfe1     MOVFF     0xfe1,0xfd9                                                                                     
003f8c   ffd9                                                                                                               
003f8e   0e07     MOVLW     0x7                                                                                             
003f90   26e1     ADDWF     0xe1,0x1,0x0                                                                                    
                                           {                                                                                C:\Hannibal Code1.1\receiver.c
                                           	unsigned char Bryan; // temporary data buffer                                   C:\Hannibal Code1.1\receiver.c
                                           	unsigned int Int_3_Period; // pulse-width period                                C:\Hannibal Code1.1\receiver.c
                                           	unsigned int Int_3_Up_Edge_Count_Low; // lower 16-bits of the rising-edge time snapshot C:\Hannibal Code1.1\receiver.c
                                           	unsigned int Int_3_Up_Edge_Count_High; // upper 16-bits of the rising-edge time snapshot C:\Hannibal Code1.1\receiver.c
                                           	static unsigned int Int_3_Down_Edge_Count_Low; // lower 16-bits of the falling-edge time snapshot C:\Hannibal Code1.1\receiver.c
                                           	static unsigned int Int_3_Down_Edge_Count_High; // upper 16-bits of the falling-edge time snapshot C:\Hannibal Code1.1\receiver.c
                                           	                                                                                C:\Hannibal Code1.1\receiver.c
                                                                                                                            C:\Hannibal Code1.1\receiver.c
003f92   0efc     MOVLW     0xfc           	if(!*hitBall)                                                                   C:\Hannibal Code1.1\receiver.c
003f94   cfdb     MOVFF     0xfdb,0xfe9                                                                                     
003f96   ffe9                                                                                                               
003f98   0efd     MOVLW     0xfd                                                                                            
003f9a   cfdb     MOVFF     0xfdb,0xfea                                                                                     
003f9c   ffea                                                                                                               
003f9e   50ef     MOVF      0xef,0x0,0x0                                                                                    
003fa0   e111     BNZ       0x3fc4                                                                                          
                                           	{                                                                               C:\Hannibal Code1.1\receiver.c
                                           		/*switch(RB4_State) // current state determines how the function behaves       C:\Hannibal Code1.1\receiver.c
                                           		{                                                                              C:\Hannibal Code1.1\receiver.c
                                           		case 0: // falling-edge detected (beginning of the pulse)                      C:\Hannibal Code1.1\receiver.c
                                           			printf("Falling Edge\n");                                                     C:\Hannibal Code1.1\receiver.c
                                           			Int_3_Down_Edge_Count_High = Clock; // get a snapshot of the time             C:\Hannibal Code1.1\receiver.c
                                           			Bryan = TMR1L; // TMR1L must be read before TMR1H                             C:\Hannibal Code1.1\receiver.c
                                           			Int_3_Down_Edge_Count_Low = TMR1H;                                            C:\Hannibal Code1.1\receiver.c
                                           			Int_3_Down_Edge_Count_Low <<= 8;                                              C:\Hannibal Code1.1\receiver.c
                                           			Int_3_Down_Edge_Count_Low += Bryan;                                           C:\Hannibal Code1.1\receiver.c
                                           			break; // now wait for the rising-edge interrupt to happen...                 C:\Hannibal Code1.1\receiver.c
                                           	                                                                                C:\Hannibal Code1.1\receiver.c
                                           		case 1: // rising-edge detected (end of the pulse)                             C:\Hannibal Code1.1\receiver.c
                                           			printf("Rising Edge\n");                                                      C:\Hannibal Code1.1\receiver.c
                                           			Int_3_Up_Edge_Count_High = Clock; // get a snapshot of the time               C:\Hannibal Code1.1\receiver.c
                                           			Bryan = TMR1L;                                                                C:\Hannibal Code1.1\receiver.c
                                           			Int_3_Up_Edge_Count_Low = TMR1H;                                              C:\Hannibal Code1.1\receiver.c
                                           			Int_3_Up_Edge_Count_Low <<= 8;                                                C:\Hannibal Code1.1\receiver.c
                                           			Int_3_Up_Edge_Count_Low += Bryan;                                             C:\Hannibal Code1.1\receiver.c
                                           			                                                                              C:\Hannibal Code1.1\receiver.c
                                           			// determine the pulse-width period by determining the time                   C:\Hannibal Code1.1\receiver.c
                                           			// difference between the falling-edge and rising-edge interrupts             C:\Hannibal Code1.1\receiver.c
                                           			if (Int_3_Up_Edge_Count_High == Int_3_Down_Edge_Count_High)                   C:\Hannibal Code1.1\receiver.c
                                           			{                                                                             C:\Hannibal Code1.1\receiver.c
                                           				// this is quicker because the 16-bit system clock hasn't changed and therefore has no effect on the outcome C:\Hannibal Code1.1\receiver.c
                                           				Int_3_Period = Int_3_Up_Edge_Count_Low - Int_3_Down_Edge_Count_Low;          C:\Hannibal Code1.1\receiver.c
                                           			}	                                                                            C:\Hannibal Code1.1\receiver.c
                                           			else                                                                          C:\Hannibal Code1.1\receiver.c
                                           			{                                                                             C:\Hannibal Code1.1\receiver.c
                                           				// this works because the pulse-width will always be less than one clock tick (= 65536 timer ticks) C:\Hannibal Code1.1\receiver.c
                                           				Int_3_Period = 65536 - Int_3_Down_Edge_Count_Low + Int_3_Up_Edge_Count_Low;  C:\Hannibal Code1.1\receiver.c
                                           			}                                                                             C:\Hannibal Code1.1\receiver.c
                                           		                                                                               C:\Hannibal Code1.1\receiver.c
                                           			// now catagorize the pulse type and update the associated statistics variable C:\Hannibal Code1.1\receiver.c
                                           			if ((Int_3_Period >= BEACON_0_LOWER_BOUND) && (Int_3_Period <= BEACON_0_UPPER_BOUND)) C:\Hannibal Code1.1\receiver.c
                                           			{                                                                             C:\Hannibal Code1.1\receiver.c
                                           				printf("Head Towards the Light...\n");                                       C:\Hannibal Code1.1\receiver.c
                                           				*hitBall=1;                                                                  C:\Hannibal Code1.1\receiver.c
                                           			}                                                                             C:\Hannibal Code1.1\receiver.c
                                           			break; // now wait for another falling-edge interrupt to happen...            C:\Hannibal Code1.1\receiver.c
                                           		}*/                                                                            C:\Hannibal Code1.1\receiver.c
                                                                                                                            C:\Hannibal Code1.1\receiver.c
003fa2   0ecf     MOVLW     0xcf           		printf("Head Towards the Light...\n");                                         C:\Hannibal Code1.1\receiver.c
003fa4   6ee6     MOVWF     0xe6,0x0                                                                                        
003fa6   0e40     MOVLW     0x40                                                                                            
003fa8   6ee6     MOVWF     0xe6,0x0                                                                                        
003faa   ec35     CALL      0x146a,0x0                                                                                      
003fac   f00a                                                                                                               
003fae   52e5     MOVF      0xe5,0x1,0x0                                                                                    
003fb0   52e5     MOVF      0xe5,0x1,0x0                                                                                    
003fb2   0efc     MOVLW     0xfc           		*hitBall=1;                                                                    C:\Hannibal Code1.1\receiver.c
003fb4   cfdb     MOVFF     0xfdb,0xfe9                                                                                     
003fb6   ffe9                                                                                                               
003fb8   0efd     MOVLW     0xfd                                                                                            
003fba   cfdb     MOVFF     0xfdb,0xfea                                                                                     
003fbc   ffea                                                                                                               
003fbe   0e01     MOVLW     0x1                                                                                             
003fc0   6eef     MOVWF     0xef,0x0                                                                                        
                                           	}                                                                               C:\Hannibal Code1.1\receiver.c
003fc2   d001     BRA       0x3fc6         	else                                                                            C:\Hannibal Code1.1\receiver.c
                                           	{                                                                               C:\Hannibal Code1.1\receiver.c
003fc4   dfca     RCALL     0x3f5a         		Disable_Receiver();                                                            C:\Hannibal Code1.1\receiver.c
                                           	}                                                                               C:\Hannibal Code1.1\receiver.c
003fc6   cfd9     MOVFF     0xfd9,0xfe1    }                                                                                C:\Hannibal Code1.1\receiver.c
003fc8   ffe1                                                                                                               
003fca   52e5     MOVF      0xe5,0x1,0x0                                                                                    
003fcc   cfe7     MOVFF     0xfe7,0xfd9                                                                                     
003fce   ffd9                                                                                                               
003fd0   0012     RETURN    0x0                                                                                             
                                           /******************************************************************************* C:\Hannibal Code1.1\receiver.c
                                           *                                                                                C:\Hannibal Code1.1\receiver.c
                                           *	FUNCTION:		Int_4_Handler()                                                     C:\Hannibal Code1.1\receiver.c
                                           *                                                                                C:\Hannibal Code1.1\receiver.c
                                           *	PURPOSE:		This code is called in response to a interrupt 4 request.            C:\Hannibal Code1.1\receiver.c
                                           *					This is used by IR sensor 2.                                               C:\Hannibal Code1.1\receiver.c
                                           *                                                                                C:\Hannibal Code1.1\receiver.c
                                           *	CALLED FROM:	user_routines_fast.c/InterruptHandlerLow()                        C:\Hannibal Code1.1\receiver.c
                                           *                                                                                C:\Hannibal Code1.1\receiver.c
                                           *	PARAMETERS:		None                                                              C:\Hannibal Code1.1\receiver.c
                                           *                                                                                C:\Hannibal Code1.1\receiver.c
                                           *	RETURNS:		Nothing                                                              C:\Hannibal Code1.1\receiver.c
                                           *                                                                                C:\Hannibal Code1.1\receiver.c
                                           *	COMMENTS:		The digital input 4/interrupt 4 input uses the                      C:\Hannibal Code1.1\receiver.c
                                           *					PIC18F8520's RB5/KBI1/PGM pin on port b.                                   C:\Hannibal Code1.1\receiver.c
                                           *                                                                                C:\Hannibal Code1.1\receiver.c
                                           *******************************************************************************/ C:\Hannibal Code1.1\receiver.c
003fd2   cfd9     MOVFF     0xfd9,0xfe6    void Int_4_Handler(unsigned char RB5_State)                                      C:\Hannibal Code1.1\receiver.c
003fd4   ffe6                                                                                                               
003fd6   cfe1     MOVFF     0xfe1,0xfd9                                                                                     
003fd8   ffd9                                                                                                               
                                           {                                                                                C:\Hannibal Code1.1\receiver.c
                                           	//Right Encoder Interrupt                                                       C:\Hannibal Code1.1\receiver.c
003fda   aa81     BTFSS     0x81,0x5,0x0       if(rc_dig_in04) wheel_r_count++;                                             C:\Hannibal Code1.1\receiver.c
003fdc   d004     BRA       0x3fe6                                                                                          
003fde   0107     MOVLB     0x7                                                                                             
003fe0   2bea     INCF      0xea,0x1,0x1                                                                                    
003fe2   0e00     MOVLW     0x0                                                                                             
003fe4   23eb     ADDWFC    0xeb,0x1,0x1                                                                                    
003fe6   52e5     MOVF      0xe5,0x1,0x0   }                                                                                C:\Hannibal Code1.1\receiver.c
003fe8   cfe7     MOVFF     0xfe7,0xfd9                                                                                     
003fea   ffd9                                                                                                               
003fec   0012     RETURN    0x0                                                                                             
                                                                                                                            C:\Hannibal Code1.1\receiver.c
                                           /******************************************************************************* C:\Hannibal Code1.1\receiver.c
                                           *                                                                                C:\Hannibal Code1.1\receiver.c
                                           *	FUNCTION:		Int_5_Handler()                                                     C:\Hannibal Code1.1\receiver.c
                                           *                                                                                C:\Hannibal Code1.1\receiver.c
                                           *	PURPOSE:		This code is called in response to a interrupt 5 request.            C:\Hannibal Code1.1\receiver.c
                                           *					This is used by IR sensor 3.                                               C:\Hannibal Code1.1\receiver.c
                                           *                                                                                C:\Hannibal Code1.1\receiver.c
                                           *	CALLED FROM:	user_routines_fast.c/InterruptHandlerLow()                        C:\Hannibal Code1.1\receiver.c
                                           *                                                                                C:\Hannibal Code1.1\receiver.c
                                           *	PARAMETERS:		None                                                              C:\Hannibal Code1.1\receiver.c
                                           *                                                                                C:\Hannibal Code1.1\receiver.c
                                           *	RETURNS:		Nothing                                                              C:\Hannibal Code1.1\receiver.c
                                           *                                                                                C:\Hannibal Code1.1\receiver.c
                                           *	COMMENTS:		The digital input 5/interrupt 5 input uses the                      C:\Hannibal Code1.1\receiver.c
                                           *					PIC18F8520's RB6/KBI2/PGC pin on port b.                                   C:\Hannibal Code1.1\receiver.c
                                           *                                                                                C:\Hannibal Code1.1\receiver.c
                                           *******************************************************************************/ C:\Hannibal Code1.1\receiver.c
003fee   cfd9     MOVFF     0xfd9,0xfe6    void Int_5_Handler(unsigned char RB6_State)                                      C:\Hannibal Code1.1\receiver.c
003ff0   ffe6                                                                                                               
003ff2   cfe1     MOVFF     0xfe1,0xfd9                                                                                     
003ff4   ffd9                                                                                                               
                                           {                                                                                C:\Hannibal Code1.1\receiver.c
                                           	//Left Encoder Interrupt                                                        C:\Hannibal Code1.1\receiver.c
003ff6   ac81     BTFSS     0x81,0x6,0x0       if(rc_dig_in05) wheel_l_count++;                                             C:\Hannibal Code1.1\receiver.c
003ff8   d004     BRA       0x4002                                                                                          
003ffa   0107     MOVLB     0x7                                                                                             
003ffc   2bec     INCF      0xec,0x1,0x1                                                                                    
003ffe   0e00     MOVLW     0x0                                                                                             
004000   23ed     ADDWFC    0xed,0x1,0x1                                                                                    
004002   52e5     MOVF      0xe5,0x1,0x0   }                                                                                C:\Hannibal Code1.1\receiver.c
004004   cfe7     MOVFF     0xfe7,0xfd9                                                                                     
004006   ffd9                                                                                                               
004008   0012     RETURN    0x0                                                                                             
                                                                                                                            C:\Hannibal Code1.1\receiver.c
                                           /******************************************************************************* C:\Hannibal Code1.1\receiver.c
                                           *                                                                                C:\Hannibal Code1.1\receiver.c
                                           *	FUNCTION:		Int_6_Handler()                                                     C:\Hannibal Code1.1\receiver.c
                                           *                                                                                C:\Hannibal Code1.1\receiver.c
                                           *	PURPOSE:		This code is called in response to a interrupt 6 request.            C:\Hannibal Code1.1\receiver.c
                                           *					This is used by IR sensor 4.                                               C:\Hannibal Code1.1\receiver.c
                                           *                                                                                C:\Hannibal Code1.1\receiver.c
                                           *	CALLED FROM:	user_routines_fast.c/InterruptHandlerLow()                        C:\Hannibal Code1.1\receiver.c
                                           *                                                                                C:\Hannibal Code1.1\receiver.c
                                           *	PARAMETERS:		None                                                              C:\Hannibal Code1.1\receiver.c
                                           *                                                                                C:\Hannibal Code1.1\receiver.c
                                           *	RETURNS:		Nothing                                                              C:\Hannibal Code1.1\receiver.c
                                           *                                                                                C:\Hannibal Code1.1\receiver.c
                                           *	COMMENTS:		The digital input 6/interrupt 6 input uses the                      C:\Hannibal Code1.1\receiver.c
                                           *					PIC18F8520's RB7/KBI3/PGD pin on port b.                                   C:\Hannibal Code1.1\receiver.c
                                           *                                                                                C:\Hannibal Code1.1\receiver.c
                                           *******************************************************************************/ C:\Hannibal Code1.1\receiver.c
00400a   cfd9     MOVFF     0xfd9,0xfe6    void Int_6_Handler(unsigned char RB7_State)                                      C:\Hannibal Code1.1\receiver.c
00400c   ffe6                                                                                                               
00400e   cfe1     MOVFF     0xfe1,0xfd9                                                                                     
004010   ffd9                                                                                                               
                                           {                                                                                C:\Hannibal Code1.1\receiver.c
004012   52e5     MOVF      0xe5,0x1,0x0   }                                                                                C:\Hannibal Code1.1\receiver.c
004014   cfe7     MOVFF     0xfe7,0xfd9                                                                                     
004016   ffd9                                                                                                               
004018   0012     RETURN    0x0                                                                                             
                                                   LIST                                                                     C:\Program Files\MPLAB IDE\MCHIP_Tools\p18f8520.inc
                                                                                                                            C:\Program Files\MPLAB IDE\MCHIP_Tools\p18f8520.inc
                                           ;==========================================================================      C:\Program Files\MPLAB IDE\MCHIP_Tools\p18f8520.inc
                                           ;  $Id: P18F8520.INC,v 1.5 2003/05/30 22:31:28 sealep Exp $                      C:\Program Files\MPLAB IDE\MCHIP_Tools\p18f8520.inc
                                           ;  MPASM PIC18F8520 processor include                                            C:\Program Files\MPLAB IDE\MCHIP_Tools\p18f8520.inc
                                           ;                                                                                C:\Program Files\MPLAB IDE\MCHIP_Tools\p18f8520.inc
                                           ;  (c) Copyright 1999-2003 Microchip Technology, All rights reserved             C:\Program Files\MPLAB IDE\MCHIP_Tools\p18f8520.inc
                                           ;==========================================================================      C:\Program Files\MPLAB IDE\MCHIP_Tools\p18f8520.inc
                                                                                                                            C:\Program Files\MPLAB IDE\MCHIP_Tools\p18f8520.inc
                                                   LIST                                                                     C:\Program Files\MPLAB IDE\MCHIP_Tools\p18f8520.inc
